Component: ARM Compiler 6.12 Tool: armlink [5d624300]

==============================================================================

Section Cross References

    startup_stm32h750xx.o(STACK) refers (Special) to heapauxi.o(.text) for __use_two_region_memory
    startup_stm32h750xx.o(HEAP) refers (Special) to heapauxi.o(.text) for __use_two_region_memory
    startup_stm32h750xx.o(RESET) refers (Special) to heapauxi.o(.text) for __use_two_region_memory
    startup_stm32h750xx.o(RESET) refers to startup_stm32h750xx.o(STACK) for __initial_sp
    startup_stm32h750xx.o(RESET) refers to startup_stm32h750xx.o(.text) for Reset_Handler
    startup_stm32h750xx.o(RESET) refers to lto-llvm-7a7817.o(.text.NMI_Handler) for NMI_Handler
    startup_stm32h750xx.o(RESET) refers to lto-llvm-7a7817.o(.text.HardFault_Handler) for HardFault_Handler
    startup_stm32h750xx.o(RESET) refers to lto-llvm-7a7817.o(.text.MemManage_Handler) for MemManage_Handler
    startup_stm32h750xx.o(RESET) refers to lto-llvm-7a7817.o(.text.BusFault_Handler) for BusFault_Handler
    startup_stm32h750xx.o(RESET) refers to lto-llvm-7a7817.o(.text.UsageFault_Handler) for UsageFault_Handler
    startup_stm32h750xx.o(RESET) refers to lto-llvm-7a7817.o(.text.SVC_Handler) for SVC_Handler
    startup_stm32h750xx.o(RESET) refers to lto-llvm-7a7817.o(.text.DebugMon_Handler) for DebugMon_Handler
    startup_stm32h750xx.o(RESET) refers to lto-llvm-7a7817.o(.text.PendSV_Handler) for PendSV_Handler
    startup_stm32h750xx.o(RESET) refers to lto-llvm-7a7817.o(.text.SysTick_Handler) for SysTick_Handler
    startup_stm32h750xx.o(RESET) refers to lto-llvm-7a7817.o(.text.EXTI4_IRQHandler) for EXTI4_IRQHandler
    startup_stm32h750xx.o(RESET) refers to lto-llvm-7a7817.o(.text.DMA1_Stream0_IRQHandler) for DMA1_Stream0_IRQHandler
    startup_stm32h750xx.o(RESET) refers to lto-llvm-7a7817.o(.text.DMA1_Stream1_IRQHandler) for DMA1_Stream1_IRQHandler
    startup_stm32h750xx.o(RESET) refers to lto-llvm-7a7817.o(.text.USART1_IRQHandler) for USART1_IRQHandler
    startup_stm32h750xx.o(RESET) refers to lto-llvm-7a7817.o(.text.TIM6_DAC_IRQHandler) for TIM6_DAC_IRQHandler
    startup_stm32h750xx.o(RESET) refers to lto-llvm-7a7817.o(.text.TIM7_IRQHandler) for TIM7_IRQHandler
    startup_stm32h750xx.o(.text) refers (Special) to heapauxi.o(.text) for __use_two_region_memory
    startup_stm32h750xx.o(.text) refers to lto-llvm-7a7817.o(.text.SystemInit) for SystemInit
    startup_stm32h750xx.o(.text) refers to __main.o(!!!main) for __main
    startup_stm32h750xx.o(.text) refers to startup_stm32h750xx.o(HEAP) for Heap_Mem
    startup_stm32h750xx.o(.text) refers to startup_stm32h750xx.o(STACK) for Stack_Mem
    use_no_semi_2.o(.text) refers (Special) to use_no_semi.o(.text) for __use_no_semihosting_swi
    realloc.o(.text) refers (Special) to hguard.o(.text) for __heap$guard
    realloc.o(.text) refers to rt_heap_descriptor_intlibspace.o(.text) for __rt_heap_descriptor
    realloc.o(.text) refers to heapstubs.o(.text) for __Heap_Realloc
    realloc.o(.text) refers to h1_free.o(.text) for free
    realloc.o(.text) refers to h1_alloc.o(.text) for malloc
    h1_realloc.o(.text) refers to rt_heap_descriptor_intlibspace.o(.text) for __rt_heap_descriptor
    h1_realloc.o(.text) refers to h1_free.o(.text) for free
    h1_realloc.o(.text) refers to h1_alloc.o(.text) for malloc
    h1_realloc.o(.text) refers to rt_memcpy_w.o(.text) for __aeabi_memcpy4
    h1_realloc_threads.o(.text) refers to rt_heap_descriptor_intlibspace.o(.text) for __rt_heap_descriptor
    h1_realloc_threads.o(.text) refers to h1_free_threads.o(.text) for free_internal$concurrent
    h1_realloc_threads.o(.text) refers to h1_free.o(.text) for free
    h1_realloc_threads.o(.text) refers to h1_alloc.o(.text) for malloc
    h1_realloc_threads.o(.text) refers to h1_alloc_threads.o(.text) for malloc_internal$concurrent
    h1_realloc_threads.o(.text) refers to rt_memcpy_w.o(.text) for __aeabi_memcpy4
    heap2.o(i._FDIterate) refers to heap2.o(.conststring) for .conststring
    heap2.o(i.__Heap_ProvideMemory$realtime) refers to fdtree.o(i._FDTree_Delete) for _FDTree_Delete
    heap2.o(i.__Heap_ProvideMemory$realtime) refers to fdtree.o(i._FDTree_Insert) for _FDTree_Insert
    heap2.o(i.__Heap_Stats$realtime) refers to heap2.o(i._Heap2_StatsIterate) for _Heap2_StatsIterate
    heap2.o(i.__Heap_Valid$realtime) refers to heap2.o(i._FDIterate) for _FDIterate
    heap2.o(i.__Heap_Valid$realtime) refers to heap2.o(.conststring) for .conststring
    heap2.o(i.free$realtime) refers to rt_heap_descriptor_intlibspace.o(.text) for __rt_heap_descriptor
    heap2.o(i.free$realtime) refers to fdtree.o(i._FDTree_Delete) for _FDTree_Delete
    heap2.o(i.free$realtime) refers to fdtree.o(i._FDTree_Insert) for _FDTree_Insert
    heap2.o(i.malloc$realtime) refers to rt_heap_descriptor_intlibspace.o(.text) for __rt_heap_descriptor
    heap2.o(i.malloc$realtime) refers to fdtree.o(i._FDTree_FindFirst) for _FDTree_FindFirst
    heap2.o(i.malloc$realtime) refers to init_alloc.o(.text) for __Heap_Full
    heap2.o(i.malloc$realtime) refers to fdtree.o(i._FDTree_RemoveNode) for _FDTree_RemoveNode
    heap2.o(i.malloc$realtime) refers to fdtree.o(i._FDTree_Insert) for _FDTree_Insert
    heap2.o(i.posix_memalign$realtime) refers to rt_heap_descriptor_intlibspace.o(.text) for __rt_heap_descriptor
    heap2.o(i.posix_memalign$realtime) refers to fdtree.o(i._FDTree_FindFirst) for _FDTree_FindFirst
    heap2.o(i.posix_memalign$realtime) refers to init_alloc.o(.text) for __Heap_Full
    heap2.o(i.posix_memalign$realtime) refers to fdtree.o(i._FDTree_RemoveNode) for _FDTree_RemoveNode
    heap2.o(i.posix_memalign$realtime) refers to fdtree.o(i._FDTree_Insert) for _FDTree_Insert
    heap2.o(i.realloc$realtime) refers to rt_heap_descriptor_intlibspace.o(.text) for __rt_heap_descriptor
    heap2.o(i.realloc$realtime) refers to fdtree.o(i._FDTree_Insert) for _FDTree_Insert
    heap2.o(i.realloc$realtime) refers to h1_free.o(.text) for free
    heap2.o(i.realloc$realtime) refers to h1_alloc.o(.text) for malloc
    heap2.o(i.realloc$realtime) refers to fdtree.o(i._FDTree_Delete) for _FDTree_Delete
    heap2.o(i.realloc$realtime) refers to rt_memcpy_w.o(.text) for __aeabi_memcpy4
    heap2_threads.o(i._FDIterate) refers to heap2_threads.o(.conststring) for .conststring
    heap2_threads.o(i.__Heap_Initialize$realtime$concurrent) refers to mutex_dummy.o(.text) for _mutex_initialize
    heap2_threads.o(i.__Heap_ProvideMemory$realtime$concurrent) refers to fdtree.o(i._FDTree_Delete) for _FDTree_Delete
    heap2_threads.o(i.__Heap_ProvideMemory$realtime$concurrent) refers to fdtree.o(i._FDTree_Insert) for _FDTree_Insert
    heap2_threads.o(i.__Heap_Stats$realtime$concurrent) refers to heap2_threads.o(i._Heap2_StatsIterate) for _Heap2_StatsIterate
    heap2_threads.o(i.__Heap_Valid$realtime$concurrent) refers to heap2_threads.o(i._FDIterate) for _FDIterate
    heap2_threads.o(i.__Heap_Valid$realtime$concurrent) refers to heap2_threads.o(.conststring) for .conststring
    heap2_threads.o(i.free$realtime$concurrent) refers to rt_heap_descriptor_intlibspace.o(.text) for __rt_heap_descriptor
    heap2_threads.o(i.free$realtime$concurrent) refers to fdtree.o(i._FDTree_Delete) for _FDTree_Delete
    heap2_threads.o(i.free$realtime$concurrent) refers to fdtree.o(i._FDTree_Insert) for _FDTree_Insert
    heap2_threads.o(i.malloc$realtime$concurrent) refers to rt_heap_descriptor_intlibspace.o(.text) for __rt_heap_descriptor
    heap2_threads.o(i.malloc$realtime$concurrent) refers to fdtree.o(i._FDTree_FindFirst) for _FDTree_FindFirst
    heap2_threads.o(i.malloc$realtime$concurrent) refers to init_alloc.o(.text) for __Heap_Full
    heap2_threads.o(i.malloc$realtime$concurrent) refers to fdtree.o(i._FDTree_RemoveNode) for _FDTree_RemoveNode
    heap2_threads.o(i.malloc$realtime$concurrent) refers to fdtree.o(i._FDTree_Insert) for _FDTree_Insert
    heap2_threads.o(i.posix_memalign$realtime$concurrent) refers to rt_heap_descriptor_intlibspace.o(.text) for __rt_heap_descriptor
    heap2_threads.o(i.posix_memalign$realtime$concurrent) refers to fdtree.o(i._FDTree_FindFirst) for _FDTree_FindFirst
    heap2_threads.o(i.posix_memalign$realtime$concurrent) refers to init_alloc.o(.text) for __Heap_Full
    heap2_threads.o(i.posix_memalign$realtime$concurrent) refers to fdtree.o(i._FDTree_RemoveNode) for _FDTree_RemoveNode
    heap2_threads.o(i.posix_memalign$realtime$concurrent) refers to fdtree.o(i._FDTree_Insert) for _FDTree_Insert
    heap2_threads.o(i.realloc$realtime$concurrent) refers to rt_heap_descriptor_intlibspace.o(.text) for __rt_heap_descriptor
    heap2_threads.o(i.realloc$realtime$concurrent) refers to fdtree.o(i._FDTree_Insert) for _FDTree_Insert
    heap2_threads.o(i.realloc$realtime$concurrent) refers to h1_free.o(.text) for free
    heap2_threads.o(i.realloc$realtime$concurrent) refers to h1_alloc.o(.text) for malloc
    heap2_threads.o(i.realloc$realtime$concurrent) refers to fdtree.o(i._FDTree_Delete) for _FDTree_Delete
    heap2_threads.o(i.realloc$realtime$concurrent) refers to rt_memcpy_w.o(.text) for __aeabi_memcpy4
    abort.o(.text) refers to defsig_abrt_outer.o(.text) for __rt_SIGABRT
    abort.o(.text) refers (Weak) to libshutdown.o(.ARM.Collect$$libshutdown$$00000000) for __rt_lib_shutdown
    abort.o(.text) refers to lto-llvm-7a7817.o(.text._sys_exit) for _sys_exit
    __main.o(!!!main) refers to __rtentry.o(.ARM.Collect$$rtentry$$00000000) for __rt_entry
    new.cpp.o(.text._ZSt17__throw_bad_allocv) refers to abort.o(.text) for abort
    new.cpp.o(.ARM.exidx.text._ZSt17__throw_bad_allocv) refers to new.cpp.o(.text._ZSt17__throw_bad_allocv) for [Anonymous Symbol]
    new.cpp.o(.text._Znwj) refers to h1_alloc.o(.text) for malloc
    new.cpp.o(.text._Znwj) refers to cxa_handlers.cpp.o(.text._ZSt15get_new_handlerv) for std::get_new_handler()
    new.cpp.o(.ARM.exidx.text._Znwj) refers to new.cpp.o(.text._Znwj) for [Anonymous Symbol]
    new.cpp.o(.text._ZnwjRKSt9nothrow_t) refers to new.cpp.o(.text._Znwj) for operator new(unsigned)
    new.cpp.o(.ARM.exidx.text._ZnwjRKSt9nothrow_t) refers to new.cpp.o(.text._ZnwjRKSt9nothrow_t) for [Anonymous Symbol]
    new.cpp.o(.text._Znaj) refers to new.cpp.o(.text._Znwj) for operator new(unsigned)
    new.cpp.o(.ARM.exidx.text._Znaj) refers to new.cpp.o(.text._Znaj) for [Anonymous Symbol]
    new.cpp.o(.text._ZnajRKSt9nothrow_t) refers to new.cpp.o(.text._Znaj) for operator new[] (unsigned)
    new.cpp.o(.ARM.exidx.text._ZnajRKSt9nothrow_t) refers to new.cpp.o(.text._ZnajRKSt9nothrow_t) for [Anonymous Symbol]
    new.cpp.o(.text._ZdlPv) refers to h1_free.o(.text) for free
    new.cpp.o(.ARM.exidx.text._ZdlPv) refers to new.cpp.o(.text._ZdlPv) for [Anonymous Symbol]
    new.cpp.o(.text._ZdlPvRKSt9nothrow_t) refers to new.cpp.o(.text._ZdlPv) for operator delete (void*)
    new.cpp.o(.ARM.exidx.text._ZdlPvRKSt9nothrow_t) refers to new.cpp.o(.text._ZdlPvRKSt9nothrow_t) for [Anonymous Symbol]
    new.cpp.o(.text._ZdlPvj) refers to new.cpp.o(.text._ZdlPv) for operator delete (void*)
    new.cpp.o(.ARM.exidx.text._ZdlPvj) refers to new.cpp.o(.text._ZdlPvj) for [Anonymous Symbol]
    new.cpp.o(.text._ZdaPv) refers to new.cpp.o(.text._ZdlPv) for operator delete (void*)
    new.cpp.o(.ARM.exidx.text._ZdaPv) refers to new.cpp.o(.text._ZdaPv) for [Anonymous Symbol]
    new.cpp.o(.text._ZdaPvRKSt9nothrow_t) refers to new.cpp.o(.text._ZdaPv) for operator delete[] (void*)
    new.cpp.o(.ARM.exidx.text._ZdaPvRKSt9nothrow_t) refers to new.cpp.o(.text._ZdaPvRKSt9nothrow_t) for [Anonymous Symbol]
    new.cpp.o(.text._ZdaPvj) refers to new.cpp.o(.text._ZdaPv) for operator delete[] (void*)
    new.cpp.o(.ARM.exidx.text._ZdaPvj) refers to new.cpp.o(.text._ZdaPvj) for [Anonymous Symbol]
    new.cpp.o(.text._ZnwjSt11align_val_t) refers to h1_memalign.o(.text) for posix_memalign
    new.cpp.o(.text._ZnwjSt11align_val_t) refers to cxa_handlers.cpp.o(.text._ZSt15get_new_handlerv) for std::get_new_handler()
    new.cpp.o(.ARM.exidx.text._ZnwjSt11align_val_t) refers to new.cpp.o(.text._ZnwjSt11align_val_t) for [Anonymous Symbol]
    new.cpp.o(.text._ZnwjSt11align_val_tRKSt9nothrow_t) refers to new.cpp.o(.text._ZnwjSt11align_val_t) for operator new(unsigned, std::align_val_t)
    new.cpp.o(.ARM.exidx.text._ZnwjSt11align_val_tRKSt9nothrow_t) refers to new.cpp.o(.text._ZnwjSt11align_val_tRKSt9nothrow_t) for [Anonymous Symbol]
    new.cpp.o(.text._ZnajSt11align_val_t) refers to new.cpp.o(.text._ZnwjSt11align_val_t) for operator new(unsigned, std::align_val_t)
    new.cpp.o(.ARM.exidx.text._ZnajSt11align_val_t) refers to new.cpp.o(.text._ZnajSt11align_val_t) for [Anonymous Symbol]
    new.cpp.o(.text._ZnajSt11align_val_tRKSt9nothrow_t) refers to new.cpp.o(.text._ZnajSt11align_val_t) for operator new[] (unsigned, std::align_val_t)
    new.cpp.o(.ARM.exidx.text._ZnajSt11align_val_tRKSt9nothrow_t) refers to new.cpp.o(.text._ZnajSt11align_val_tRKSt9nothrow_t) for [Anonymous Symbol]
    new.cpp.o(.text._ZdlPvSt11align_val_t) refers to h1_free.o(.text) for free
    new.cpp.o(.ARM.exidx.text._ZdlPvSt11align_val_t) refers to new.cpp.o(.text._ZdlPvSt11align_val_t) for [Anonymous Symbol]
    new.cpp.o(.text._ZdlPvSt11align_val_tRKSt9nothrow_t) refers to new.cpp.o(.text._ZdlPvSt11align_val_t) for operator delete (void*, std::align_val_t)
    new.cpp.o(.ARM.exidx.text._ZdlPvSt11align_val_tRKSt9nothrow_t) refers to new.cpp.o(.text._ZdlPvSt11align_val_tRKSt9nothrow_t) for [Anonymous Symbol]
    new.cpp.o(.text._ZdlPvjSt11align_val_t) refers to new.cpp.o(.text._ZdlPvSt11align_val_t) for operator delete (void*, std::align_val_t)
    new.cpp.o(.ARM.exidx.text._ZdlPvjSt11align_val_t) refers to new.cpp.o(.text._ZdlPvjSt11align_val_t) for [Anonymous Symbol]
    new.cpp.o(.text._ZdaPvSt11align_val_t) refers to new.cpp.o(.text._ZdlPvSt11align_val_t) for operator delete (void*, std::align_val_t)
    new.cpp.o(.ARM.exidx.text._ZdaPvSt11align_val_t) refers to new.cpp.o(.text._ZdaPvSt11align_val_t) for [Anonymous Symbol]
    new.cpp.o(.text._ZdaPvSt11align_val_tRKSt9nothrow_t) refers to new.cpp.o(.text._ZdaPvSt11align_val_t) for operator delete[] (void*, std::align_val_t)
    new.cpp.o(.ARM.exidx.text._ZdaPvSt11align_val_tRKSt9nothrow_t) refers to new.cpp.o(.text._ZdaPvSt11align_val_tRKSt9nothrow_t) for [Anonymous Symbol]
    new.cpp.o(.text._ZdaPvjSt11align_val_t) refers to new.cpp.o(.text._ZdaPvSt11align_val_t) for operator delete[] (void*, std::align_val_t)
    new.cpp.o(.ARM.exidx.text._ZdaPvjSt11align_val_t) refers to new.cpp.o(.text._ZdaPvjSt11align_val_t) for [Anonymous Symbol]
    string.cpp.o(.text) refers (Special) to _printf_d.o(.ARM.Collect$$_printf_percent$$00000009) for _printf_d
    string.cpp.o(.text) refers (Special) to _printf_f.o(.ARM.Collect$$_printf_percent$$00000003) for _printf_f
    string.cpp.o(.text) refers (Special) to printf1.o(x$fpl$printf1) for _printf_fp_dec
    string.cpp.o(.text) refers (Special) to _printf_dec.o(.text) for _printf_int_dec
    string.cpp.o(.text) refers (Special) to _printf_lld.o(.ARM.Collect$$_printf_percent$$0000000E) for _printf_lld
    string.cpp.o(.text) refers (Special) to _printf_llu.o(.ARM.Collect$$_printf_percent$$0000000F) for _printf_llu
    string.cpp.o(.text) refers (Special) to _printf_longlong_dec.o(.text) for _printf_longlong_dec
    string.cpp.o(.text) refers (Special) to _printf_percent.o(.ARM.Collect$$_printf_percent$$00000000) for _printf_percent
    string.cpp.o(.text) refers (Special) to _printf_s.o(.ARM.Collect$$_printf_percent$$00000014) for _printf_s
    string.cpp.o(.text) refers (Special) to _printf_str.o(.text) for _printf_str
    string.cpp.o(.text) refers (Special) to _printf_u.o(.ARM.Collect$$_printf_percent$$0000000A) for _printf_u
    string.cpp.o(.text._ZNSt3__14stoiERKNS_12basic_stringIcNS_11char_traitsIcEENS_9allocatorIcEEEEPji) refers (Special) to _printf_d.o(.ARM.Collect$$_printf_percent$$00000009) for _printf_d
    string.cpp.o(.text._ZNSt3__14stoiERKNS_12basic_stringIcNS_11char_traitsIcEENS_9allocatorIcEEEEPji) refers (Special) to _printf_f.o(.ARM.Collect$$_printf_percent$$00000003) for _printf_f
    string.cpp.o(.text._ZNSt3__14stoiERKNS_12basic_stringIcNS_11char_traitsIcEENS_9allocatorIcEEEEPji) refers (Special) to printf1.o(x$fpl$printf1) for _printf_fp_dec
    string.cpp.o(.text._ZNSt3__14stoiERKNS_12basic_stringIcNS_11char_traitsIcEENS_9allocatorIcEEEEPji) refers (Special) to _printf_dec.o(.text) for _printf_int_dec
    string.cpp.o(.text._ZNSt3__14stoiERKNS_12basic_stringIcNS_11char_traitsIcEENS_9allocatorIcEEEEPji) refers (Special) to _printf_lld.o(.ARM.Collect$$_printf_percent$$0000000E) for _printf_lld
    string.cpp.o(.text._ZNSt3__14stoiERKNS_12basic_stringIcNS_11char_traitsIcEENS_9allocatorIcEEEEPji) refers (Special) to _printf_llu.o(.ARM.Collect$$_printf_percent$$0000000F) for _printf_llu
    string.cpp.o(.text._ZNSt3__14stoiERKNS_12basic_stringIcNS_11char_traitsIcEENS_9allocatorIcEEEEPji) refers (Special) to _printf_longlong_dec.o(.text) for _printf_longlong_dec
    string.cpp.o(.text._ZNSt3__14stoiERKNS_12basic_stringIcNS_11char_traitsIcEENS_9allocatorIcEEEEPji) refers (Special) to _printf_percent.o(.ARM.Collect$$_printf_percent$$00000000) for _printf_percent
    string.cpp.o(.text._ZNSt3__14stoiERKNS_12basic_stringIcNS_11char_traitsIcEENS_9allocatorIcEEEEPji) refers (Special) to _printf_s.o(.ARM.Collect$$_printf_percent$$00000014) for _printf_s
    string.cpp.o(.text._ZNSt3__14stoiERKNS_12basic_stringIcNS_11char_traitsIcEENS_9allocatorIcEEEEPji) refers (Special) to _printf_str.o(.text) for _printf_str
    string.cpp.o(.text._ZNSt3__14stoiERKNS_12basic_stringIcNS_11char_traitsIcEENS_9allocatorIcEEEEPji) refers (Special) to _printf_u.o(.ARM.Collect$$_printf_percent$$0000000A) for _printf_u
    string.cpp.o(.text._ZNSt3__14stoiERKNS_12basic_stringIcNS_11char_traitsIcEENS_9allocatorIcEEEEPji) refers to rt_errno_addr_intlibspace.o(.text) for __aeabi_errno_addr
    string.cpp.o(.text._ZNSt3__14stoiERKNS_12basic_stringIcNS_11char_traitsIcEENS_9allocatorIcEEEEPji) refers to strtol.o(.text) for strtol
    string.cpp.o(.text._ZNSt3__14stoiERKNS_12basic_stringIcNS_11char_traitsIcEENS_9allocatorIcEEEEPji) refers to string.cpp.o(.text._ZNSt3__112_GLOBAL__N_130throw_from_string_out_of_rangeERKNS_12basic_stringIcNS_11char_traitsIcEENS_9allocatorIcEEEE) for std::__1::<unnamed namespace 1>::throw_from_string_out_of_range(const std::__1::basic_string<char, std::__1::char_traits<char>, std::__1::allocator<char>>&)
    string.cpp.o(.text._ZNSt3__14stoiERKNS_12basic_stringIcNS_11char_traitsIcEENS_9allocatorIcEEEEPji) refers to string.cpp.o(.text._ZNSt3__112_GLOBAL__N_129throw_from_string_invalid_argERKNS_12basic_stringIcNS_11char_traitsIcEENS_9allocatorIcEEEE) for std::__1::<unnamed namespace 1>::throw_from_string_invalid_arg(const std::__1::basic_string<char, std::__1::char_traits<char>, std::__1::allocator<char>>&)
    string.cpp.o(.ARM.exidx.text._ZNSt3__14stoiERKNS_12basic_stringIcNS_11char_traitsIcEENS_9allocatorIcEEEEPji) refers (Special) to _printf_d.o(.ARM.Collect$$_printf_percent$$00000009) for _printf_d
    string.cpp.o(.ARM.exidx.text._ZNSt3__14stoiERKNS_12basic_stringIcNS_11char_traitsIcEENS_9allocatorIcEEEEPji) refers (Special) to _printf_f.o(.ARM.Collect$$_printf_percent$$00000003) for _printf_f
    string.cpp.o(.ARM.exidx.text._ZNSt3__14stoiERKNS_12basic_stringIcNS_11char_traitsIcEENS_9allocatorIcEEEEPji) refers (Special) to printf1.o(x$fpl$printf1) for _printf_fp_dec
    string.cpp.o(.ARM.exidx.text._ZNSt3__14stoiERKNS_12basic_stringIcNS_11char_traitsIcEENS_9allocatorIcEEEEPji) refers (Special) to _printf_dec.o(.text) for _printf_int_dec
    string.cpp.o(.ARM.exidx.text._ZNSt3__14stoiERKNS_12basic_stringIcNS_11char_traitsIcEENS_9allocatorIcEEEEPji) refers (Special) to _printf_lld.o(.ARM.Collect$$_printf_percent$$0000000E) for _printf_lld
    string.cpp.o(.ARM.exidx.text._ZNSt3__14stoiERKNS_12basic_stringIcNS_11char_traitsIcEENS_9allocatorIcEEEEPji) refers (Special) to _printf_llu.o(.ARM.Collect$$_printf_percent$$0000000F) for _printf_llu
    string.cpp.o(.ARM.exidx.text._ZNSt3__14stoiERKNS_12basic_stringIcNS_11char_traitsIcEENS_9allocatorIcEEEEPji) refers (Special) to _printf_longlong_dec.o(.text) for _printf_longlong_dec
    string.cpp.o(.ARM.exidx.text._ZNSt3__14stoiERKNS_12basic_stringIcNS_11char_traitsIcEENS_9allocatorIcEEEEPji) refers (Special) to _printf_percent.o(.ARM.Collect$$_printf_percent$$00000000) for _printf_percent
    string.cpp.o(.ARM.exidx.text._ZNSt3__14stoiERKNS_12basic_stringIcNS_11char_traitsIcEENS_9allocatorIcEEEEPji) refers (Special) to _printf_s.o(.ARM.Collect$$_printf_percent$$00000014) for _printf_s
    string.cpp.o(.ARM.exidx.text._ZNSt3__14stoiERKNS_12basic_stringIcNS_11char_traitsIcEENS_9allocatorIcEEEEPji) refers (Special) to _printf_str.o(.text) for _printf_str
    string.cpp.o(.ARM.exidx.text._ZNSt3__14stoiERKNS_12basic_stringIcNS_11char_traitsIcEENS_9allocatorIcEEEEPji) refers (Special) to _printf_u.o(.ARM.Collect$$_printf_percent$$0000000A) for _printf_u
    string.cpp.o(.ARM.exidx.text._ZNSt3__14stoiERKNS_12basic_stringIcNS_11char_traitsIcEENS_9allocatorIcEEEEPji) refers to string.cpp.o(.text._ZNSt3__14stoiERKNS_12basic_stringIcNS_11char_traitsIcEENS_9allocatorIcEEEEPji) for [Anonymous Symbol]
    string.cpp.o(.text._ZNSt3__14stoiERKNS_12basic_stringIwNS_11char_traitsIwEENS_9allocatorIwEEEEPji) refers (Special) to _printf_d.o(.ARM.Collect$$_printf_percent$$00000009) for _printf_d
    string.cpp.o(.text._ZNSt3__14stoiERKNS_12basic_stringIwNS_11char_traitsIwEENS_9allocatorIwEEEEPji) refers (Special) to _printf_f.o(.ARM.Collect$$_printf_percent$$00000003) for _printf_f
    string.cpp.o(.text._ZNSt3__14stoiERKNS_12basic_stringIwNS_11char_traitsIwEENS_9allocatorIwEEEEPji) refers (Special) to printf1.o(x$fpl$printf1) for _printf_fp_dec
    string.cpp.o(.text._ZNSt3__14stoiERKNS_12basic_stringIwNS_11char_traitsIwEENS_9allocatorIwEEEEPji) refers (Special) to _printf_dec.o(.text) for _printf_int_dec
    string.cpp.o(.text._ZNSt3__14stoiERKNS_12basic_stringIwNS_11char_traitsIwEENS_9allocatorIwEEEEPji) refers (Special) to _printf_lld.o(.ARM.Collect$$_printf_percent$$0000000E) for _printf_lld
    string.cpp.o(.text._ZNSt3__14stoiERKNS_12basic_stringIwNS_11char_traitsIwEENS_9allocatorIwEEEEPji) refers (Special) to _printf_llu.o(.ARM.Collect$$_printf_percent$$0000000F) for _printf_llu
    string.cpp.o(.text._ZNSt3__14stoiERKNS_12basic_stringIwNS_11char_traitsIwEENS_9allocatorIwEEEEPji) refers (Special) to _printf_longlong_dec.o(.text) for _printf_longlong_dec
    string.cpp.o(.text._ZNSt3__14stoiERKNS_12basic_stringIwNS_11char_traitsIwEENS_9allocatorIwEEEEPji) refers (Special) to _printf_percent.o(.ARM.Collect$$_printf_percent$$00000000) for _printf_percent
    string.cpp.o(.text._ZNSt3__14stoiERKNS_12basic_stringIwNS_11char_traitsIwEENS_9allocatorIwEEEEPji) refers (Special) to _printf_s.o(.ARM.Collect$$_printf_percent$$00000014) for _printf_s
    string.cpp.o(.text._ZNSt3__14stoiERKNS_12basic_stringIwNS_11char_traitsIwEENS_9allocatorIwEEEEPji) refers (Special) to _printf_str.o(.text) for _printf_str
    string.cpp.o(.text._ZNSt3__14stoiERKNS_12basic_stringIwNS_11char_traitsIwEENS_9allocatorIwEEEEPji) refers (Special) to _printf_u.o(.ARM.Collect$$_printf_percent$$0000000A) for _printf_u
    string.cpp.o(.text._ZNSt3__14stoiERKNS_12basic_stringIwNS_11char_traitsIwEENS_9allocatorIwEEEEPji) refers to rt_errno_addr_intlibspace.o(.text) for __aeabi_errno_addr
    string.cpp.o(.text._ZNSt3__14stoiERKNS_12basic_stringIwNS_11char_traitsIwEENS_9allocatorIwEEEEPji) refers to wcstol.o(.text) for wcstol
    string.cpp.o(.text._ZNSt3__14stoiERKNS_12basic_stringIwNS_11char_traitsIwEENS_9allocatorIwEEEEPji) refers to string.cpp.o(.text._ZNSt3__112_GLOBAL__N_130throw_from_string_out_of_rangeERKNS_12basic_stringIcNS_11char_traitsIcEENS_9allocatorIcEEEE) for std::__1::<unnamed namespace 1>::throw_from_string_out_of_range(const std::__1::basic_string<char, std::__1::char_traits<char>, std::__1::allocator<char>>&)
    string.cpp.o(.text._ZNSt3__14stoiERKNS_12basic_stringIwNS_11char_traitsIwEENS_9allocatorIwEEEEPji) refers to string.cpp.o(.text._ZNSt3__112_GLOBAL__N_129throw_from_string_invalid_argERKNS_12basic_stringIcNS_11char_traitsIcEENS_9allocatorIcEEEE) for std::__1::<unnamed namespace 1>::throw_from_string_invalid_arg(const std::__1::basic_string<char, std::__1::char_traits<char>, std::__1::allocator<char>>&)
    string.cpp.o(.ARM.exidx.text._ZNSt3__14stoiERKNS_12basic_stringIwNS_11char_traitsIwEENS_9allocatorIwEEEEPji) refers (Special) to _printf_d.o(.ARM.Collect$$_printf_percent$$00000009) for _printf_d
    string.cpp.o(.ARM.exidx.text._ZNSt3__14stoiERKNS_12basic_stringIwNS_11char_traitsIwEENS_9allocatorIwEEEEPji) refers (Special) to _printf_f.o(.ARM.Collect$$_printf_percent$$00000003) for _printf_f
    string.cpp.o(.ARM.exidx.text._ZNSt3__14stoiERKNS_12basic_stringIwNS_11char_traitsIwEENS_9allocatorIwEEEEPji) refers (Special) to printf1.o(x$fpl$printf1) for _printf_fp_dec
    string.cpp.o(.ARM.exidx.text._ZNSt3__14stoiERKNS_12basic_stringIwNS_11char_traitsIwEENS_9allocatorIwEEEEPji) refers (Special) to _printf_dec.o(.text) for _printf_int_dec
    string.cpp.o(.ARM.exidx.text._ZNSt3__14stoiERKNS_12basic_stringIwNS_11char_traitsIwEENS_9allocatorIwEEEEPji) refers (Special) to _printf_lld.o(.ARM.Collect$$_printf_percent$$0000000E) for _printf_lld
    string.cpp.o(.ARM.exidx.text._ZNSt3__14stoiERKNS_12basic_stringIwNS_11char_traitsIwEENS_9allocatorIwEEEEPji) refers (Special) to _printf_llu.o(.ARM.Collect$$_printf_percent$$0000000F) for _printf_llu
    string.cpp.o(.ARM.exidx.text._ZNSt3__14stoiERKNS_12basic_stringIwNS_11char_traitsIwEENS_9allocatorIwEEEEPji) refers (Special) to _printf_longlong_dec.o(.text) for _printf_longlong_dec
    string.cpp.o(.ARM.exidx.text._ZNSt3__14stoiERKNS_12basic_stringIwNS_11char_traitsIwEENS_9allocatorIwEEEEPji) refers (Special) to _printf_percent.o(.ARM.Collect$$_printf_percent$$00000000) for _printf_percent
    string.cpp.o(.ARM.exidx.text._ZNSt3__14stoiERKNS_12basic_stringIwNS_11char_traitsIwEENS_9allocatorIwEEEEPji) refers (Special) to _printf_s.o(.ARM.Collect$$_printf_percent$$00000014) for _printf_s
    string.cpp.o(.ARM.exidx.text._ZNSt3__14stoiERKNS_12basic_stringIwNS_11char_traitsIwEENS_9allocatorIwEEEEPji) refers (Special) to _printf_str.o(.text) for _printf_str
    string.cpp.o(.ARM.exidx.text._ZNSt3__14stoiERKNS_12basic_stringIwNS_11char_traitsIwEENS_9allocatorIwEEEEPji) refers (Special) to _printf_u.o(.ARM.Collect$$_printf_percent$$0000000A) for _printf_u
    string.cpp.o(.ARM.exidx.text._ZNSt3__14stoiERKNS_12basic_stringIwNS_11char_traitsIwEENS_9allocatorIwEEEEPji) refers to string.cpp.o(.text._ZNSt3__14stoiERKNS_12basic_stringIwNS_11char_traitsIwEENS_9allocatorIwEEEEPji) for [Anonymous Symbol]
    string.cpp.o(.text._ZNSt3__14stolERKNS_12basic_stringIcNS_11char_traitsIcEENS_9allocatorIcEEEEPji) refers (Special) to _printf_d.o(.ARM.Collect$$_printf_percent$$00000009) for _printf_d
    string.cpp.o(.text._ZNSt3__14stolERKNS_12basic_stringIcNS_11char_traitsIcEENS_9allocatorIcEEEEPji) refers (Special) to _printf_f.o(.ARM.Collect$$_printf_percent$$00000003) for _printf_f
    string.cpp.o(.text._ZNSt3__14stolERKNS_12basic_stringIcNS_11char_traitsIcEENS_9allocatorIcEEEEPji) refers (Special) to printf1.o(x$fpl$printf1) for _printf_fp_dec
    string.cpp.o(.text._ZNSt3__14stolERKNS_12basic_stringIcNS_11char_traitsIcEENS_9allocatorIcEEEEPji) refers (Special) to _printf_dec.o(.text) for _printf_int_dec
    string.cpp.o(.text._ZNSt3__14stolERKNS_12basic_stringIcNS_11char_traitsIcEENS_9allocatorIcEEEEPji) refers (Special) to _printf_lld.o(.ARM.Collect$$_printf_percent$$0000000E) for _printf_lld
    string.cpp.o(.text._ZNSt3__14stolERKNS_12basic_stringIcNS_11char_traitsIcEENS_9allocatorIcEEEEPji) refers (Special) to _printf_llu.o(.ARM.Collect$$_printf_percent$$0000000F) for _printf_llu
    string.cpp.o(.text._ZNSt3__14stolERKNS_12basic_stringIcNS_11char_traitsIcEENS_9allocatorIcEEEEPji) refers (Special) to _printf_longlong_dec.o(.text) for _printf_longlong_dec
    string.cpp.o(.text._ZNSt3__14stolERKNS_12basic_stringIcNS_11char_traitsIcEENS_9allocatorIcEEEEPji) refers (Special) to _printf_percent.o(.ARM.Collect$$_printf_percent$$00000000) for _printf_percent
    string.cpp.o(.text._ZNSt3__14stolERKNS_12basic_stringIcNS_11char_traitsIcEENS_9allocatorIcEEEEPji) refers (Special) to _printf_s.o(.ARM.Collect$$_printf_percent$$00000014) for _printf_s
    string.cpp.o(.text._ZNSt3__14stolERKNS_12basic_stringIcNS_11char_traitsIcEENS_9allocatorIcEEEEPji) refers (Special) to _printf_str.o(.text) for _printf_str
    string.cpp.o(.text._ZNSt3__14stolERKNS_12basic_stringIcNS_11char_traitsIcEENS_9allocatorIcEEEEPji) refers (Special) to _printf_u.o(.ARM.Collect$$_printf_percent$$0000000A) for _printf_u
    string.cpp.o(.text._ZNSt3__14stolERKNS_12basic_stringIcNS_11char_traitsIcEENS_9allocatorIcEEEEPji) refers to rt_errno_addr_intlibspace.o(.text) for __aeabi_errno_addr
    string.cpp.o(.text._ZNSt3__14stolERKNS_12basic_stringIcNS_11char_traitsIcEENS_9allocatorIcEEEEPji) refers to strtol.o(.text) for strtol
    string.cpp.o(.text._ZNSt3__14stolERKNS_12basic_stringIcNS_11char_traitsIcEENS_9allocatorIcEEEEPji) refers to string.cpp.o(.text._ZNSt3__112_GLOBAL__N_130throw_from_string_out_of_rangeERKNS_12basic_stringIcNS_11char_traitsIcEENS_9allocatorIcEEEE) for std::__1::<unnamed namespace 1>::throw_from_string_out_of_range(const std::__1::basic_string<char, std::__1::char_traits<char>, std::__1::allocator<char>>&)
    string.cpp.o(.text._ZNSt3__14stolERKNS_12basic_stringIcNS_11char_traitsIcEENS_9allocatorIcEEEEPji) refers to string.cpp.o(.text._ZNSt3__112_GLOBAL__N_129throw_from_string_invalid_argERKNS_12basic_stringIcNS_11char_traitsIcEENS_9allocatorIcEEEE) for std::__1::<unnamed namespace 1>::throw_from_string_invalid_arg(const std::__1::basic_string<char, std::__1::char_traits<char>, std::__1::allocator<char>>&)
    string.cpp.o(.ARM.exidx.text._ZNSt3__14stolERKNS_12basic_stringIcNS_11char_traitsIcEENS_9allocatorIcEEEEPji) refers (Special) to _printf_d.o(.ARM.Collect$$_printf_percent$$00000009) for _printf_d
    string.cpp.o(.ARM.exidx.text._ZNSt3__14stolERKNS_12basic_stringIcNS_11char_traitsIcEENS_9allocatorIcEEEEPji) refers (Special) to _printf_f.o(.ARM.Collect$$_printf_percent$$00000003) for _printf_f
    string.cpp.o(.ARM.exidx.text._ZNSt3__14stolERKNS_12basic_stringIcNS_11char_traitsIcEENS_9allocatorIcEEEEPji) refers (Special) to printf1.o(x$fpl$printf1) for _printf_fp_dec
    string.cpp.o(.ARM.exidx.text._ZNSt3__14stolERKNS_12basic_stringIcNS_11char_traitsIcEENS_9allocatorIcEEEEPji) refers (Special) to _printf_dec.o(.text) for _printf_int_dec
    string.cpp.o(.ARM.exidx.text._ZNSt3__14stolERKNS_12basic_stringIcNS_11char_traitsIcEENS_9allocatorIcEEEEPji) refers (Special) to _printf_lld.o(.ARM.Collect$$_printf_percent$$0000000E) for _printf_lld
    string.cpp.o(.ARM.exidx.text._ZNSt3__14stolERKNS_12basic_stringIcNS_11char_traitsIcEENS_9allocatorIcEEEEPji) refers (Special) to _printf_llu.o(.ARM.Collect$$_printf_percent$$0000000F) for _printf_llu
    string.cpp.o(.ARM.exidx.text._ZNSt3__14stolERKNS_12basic_stringIcNS_11char_traitsIcEENS_9allocatorIcEEEEPji) refers (Special) to _printf_longlong_dec.o(.text) for _printf_longlong_dec
    string.cpp.o(.ARM.exidx.text._ZNSt3__14stolERKNS_12basic_stringIcNS_11char_traitsIcEENS_9allocatorIcEEEEPji) refers (Special) to _printf_percent.o(.ARM.Collect$$_printf_percent$$00000000) for _printf_percent
    string.cpp.o(.ARM.exidx.text._ZNSt3__14stolERKNS_12basic_stringIcNS_11char_traitsIcEENS_9allocatorIcEEEEPji) refers (Special) to _printf_s.o(.ARM.Collect$$_printf_percent$$00000014) for _printf_s
    string.cpp.o(.ARM.exidx.text._ZNSt3__14stolERKNS_12basic_stringIcNS_11char_traitsIcEENS_9allocatorIcEEEEPji) refers (Special) to _printf_str.o(.text) for _printf_str
    string.cpp.o(.ARM.exidx.text._ZNSt3__14stolERKNS_12basic_stringIcNS_11char_traitsIcEENS_9allocatorIcEEEEPji) refers (Special) to _printf_u.o(.ARM.Collect$$_printf_percent$$0000000A) for _printf_u
    string.cpp.o(.ARM.exidx.text._ZNSt3__14stolERKNS_12basic_stringIcNS_11char_traitsIcEENS_9allocatorIcEEEEPji) refers to string.cpp.o(.text._ZNSt3__14stolERKNS_12basic_stringIcNS_11char_traitsIcEENS_9allocatorIcEEEEPji) for [Anonymous Symbol]
    string.cpp.o(.text._ZNSt3__14stolERKNS_12basic_stringIwNS_11char_traitsIwEENS_9allocatorIwEEEEPji) refers (Special) to _printf_d.o(.ARM.Collect$$_printf_percent$$00000009) for _printf_d
    string.cpp.o(.text._ZNSt3__14stolERKNS_12basic_stringIwNS_11char_traitsIwEENS_9allocatorIwEEEEPji) refers (Special) to _printf_f.o(.ARM.Collect$$_printf_percent$$00000003) for _printf_f
    string.cpp.o(.text._ZNSt3__14stolERKNS_12basic_stringIwNS_11char_traitsIwEENS_9allocatorIwEEEEPji) refers (Special) to printf1.o(x$fpl$printf1) for _printf_fp_dec
    string.cpp.o(.text._ZNSt3__14stolERKNS_12basic_stringIwNS_11char_traitsIwEENS_9allocatorIwEEEEPji) refers (Special) to _printf_dec.o(.text) for _printf_int_dec
    string.cpp.o(.text._ZNSt3__14stolERKNS_12basic_stringIwNS_11char_traitsIwEENS_9allocatorIwEEEEPji) refers (Special) to _printf_lld.o(.ARM.Collect$$_printf_percent$$0000000E) for _printf_lld
    string.cpp.o(.text._ZNSt3__14stolERKNS_12basic_stringIwNS_11char_traitsIwEENS_9allocatorIwEEEEPji) refers (Special) to _printf_llu.o(.ARM.Collect$$_printf_percent$$0000000F) for _printf_llu
    string.cpp.o(.text._ZNSt3__14stolERKNS_12basic_stringIwNS_11char_traitsIwEENS_9allocatorIwEEEEPji) refers (Special) to _printf_longlong_dec.o(.text) for _printf_longlong_dec
    string.cpp.o(.text._ZNSt3__14stolERKNS_12basic_stringIwNS_11char_traitsIwEENS_9allocatorIwEEEEPji) refers (Special) to _printf_percent.o(.ARM.Collect$$_printf_percent$$00000000) for _printf_percent
    string.cpp.o(.text._ZNSt3__14stolERKNS_12basic_stringIwNS_11char_traitsIwEENS_9allocatorIwEEEEPji) refers (Special) to _printf_s.o(.ARM.Collect$$_printf_percent$$00000014) for _printf_s
    string.cpp.o(.text._ZNSt3__14stolERKNS_12basic_stringIwNS_11char_traitsIwEENS_9allocatorIwEEEEPji) refers (Special) to _printf_str.o(.text) for _printf_str
    string.cpp.o(.text._ZNSt3__14stolERKNS_12basic_stringIwNS_11char_traitsIwEENS_9allocatorIwEEEEPji) refers (Special) to _printf_u.o(.ARM.Collect$$_printf_percent$$0000000A) for _printf_u
    string.cpp.o(.text._ZNSt3__14stolERKNS_12basic_stringIwNS_11char_traitsIwEENS_9allocatorIwEEEEPji) refers to rt_errno_addr_intlibspace.o(.text) for __aeabi_errno_addr
    string.cpp.o(.text._ZNSt3__14stolERKNS_12basic_stringIwNS_11char_traitsIwEENS_9allocatorIwEEEEPji) refers to wcstol.o(.text) for wcstol
    string.cpp.o(.text._ZNSt3__14stolERKNS_12basic_stringIwNS_11char_traitsIwEENS_9allocatorIwEEEEPji) refers to string.cpp.o(.text._ZNSt3__112_GLOBAL__N_130throw_from_string_out_of_rangeERKNS_12basic_stringIcNS_11char_traitsIcEENS_9allocatorIcEEEE) for std::__1::<unnamed namespace 1>::throw_from_string_out_of_range(const std::__1::basic_string<char, std::__1::char_traits<char>, std::__1::allocator<char>>&)
    string.cpp.o(.text._ZNSt3__14stolERKNS_12basic_stringIwNS_11char_traitsIwEENS_9allocatorIwEEEEPji) refers to string.cpp.o(.text._ZNSt3__112_GLOBAL__N_129throw_from_string_invalid_argERKNS_12basic_stringIcNS_11char_traitsIcEENS_9allocatorIcEEEE) for std::__1::<unnamed namespace 1>::throw_from_string_invalid_arg(const std::__1::basic_string<char, std::__1::char_traits<char>, std::__1::allocator<char>>&)
    string.cpp.o(.ARM.exidx.text._ZNSt3__14stolERKNS_12basic_stringIwNS_11char_traitsIwEENS_9allocatorIwEEEEPji) refers (Special) to _printf_d.o(.ARM.Collect$$_printf_percent$$00000009) for _printf_d
    string.cpp.o(.ARM.exidx.text._ZNSt3__14stolERKNS_12basic_stringIwNS_11char_traitsIwEENS_9allocatorIwEEEEPji) refers (Special) to _printf_f.o(.ARM.Collect$$_printf_percent$$00000003) for _printf_f
    string.cpp.o(.ARM.exidx.text._ZNSt3__14stolERKNS_12basic_stringIwNS_11char_traitsIwEENS_9allocatorIwEEEEPji) refers (Special) to printf1.o(x$fpl$printf1) for _printf_fp_dec
    string.cpp.o(.ARM.exidx.text._ZNSt3__14stolERKNS_12basic_stringIwNS_11char_traitsIwEENS_9allocatorIwEEEEPji) refers (Special) to _printf_dec.o(.text) for _printf_int_dec
    string.cpp.o(.ARM.exidx.text._ZNSt3__14stolERKNS_12basic_stringIwNS_11char_traitsIwEENS_9allocatorIwEEEEPji) refers (Special) to _printf_lld.o(.ARM.Collect$$_printf_percent$$0000000E) for _printf_lld
    string.cpp.o(.ARM.exidx.text._ZNSt3__14stolERKNS_12basic_stringIwNS_11char_traitsIwEENS_9allocatorIwEEEEPji) refers (Special) to _printf_llu.o(.ARM.Collect$$_printf_percent$$0000000F) for _printf_llu
    string.cpp.o(.ARM.exidx.text._ZNSt3__14stolERKNS_12basic_stringIwNS_11char_traitsIwEENS_9allocatorIwEEEEPji) refers (Special) to _printf_longlong_dec.o(.text) for _printf_longlong_dec
    string.cpp.o(.ARM.exidx.text._ZNSt3__14stolERKNS_12basic_stringIwNS_11char_traitsIwEENS_9allocatorIwEEEEPji) refers (Special) to _printf_percent.o(.ARM.Collect$$_printf_percent$$00000000) for _printf_percent
    string.cpp.o(.ARM.exidx.text._ZNSt3__14stolERKNS_12basic_stringIwNS_11char_traitsIwEENS_9allocatorIwEEEEPji) refers (Special) to _printf_s.o(.ARM.Collect$$_printf_percent$$00000014) for _printf_s
    string.cpp.o(.ARM.exidx.text._ZNSt3__14stolERKNS_12basic_stringIwNS_11char_traitsIwEENS_9allocatorIwEEEEPji) refers (Special) to _printf_str.o(.text) for _printf_str
    string.cpp.o(.ARM.exidx.text._ZNSt3__14stolERKNS_12basic_stringIwNS_11char_traitsIwEENS_9allocatorIwEEEEPji) refers (Special) to _printf_u.o(.ARM.Collect$$_printf_percent$$0000000A) for _printf_u
    string.cpp.o(.ARM.exidx.text._ZNSt3__14stolERKNS_12basic_stringIwNS_11char_traitsIwEENS_9allocatorIwEEEEPji) refers to string.cpp.o(.text._ZNSt3__14stolERKNS_12basic_stringIwNS_11char_traitsIwEENS_9allocatorIwEEEEPji) for [Anonymous Symbol]
    string.cpp.o(.text._ZNSt3__15stoulERKNS_12basic_stringIcNS_11char_traitsIcEENS_9allocatorIcEEEEPji) refers (Special) to _printf_d.o(.ARM.Collect$$_printf_percent$$00000009) for _printf_d
    string.cpp.o(.text._ZNSt3__15stoulERKNS_12basic_stringIcNS_11char_traitsIcEENS_9allocatorIcEEEEPji) refers (Special) to _printf_f.o(.ARM.Collect$$_printf_percent$$00000003) for _printf_f
    string.cpp.o(.text._ZNSt3__15stoulERKNS_12basic_stringIcNS_11char_traitsIcEENS_9allocatorIcEEEEPji) refers (Special) to printf1.o(x$fpl$printf1) for _printf_fp_dec
    string.cpp.o(.text._ZNSt3__15stoulERKNS_12basic_stringIcNS_11char_traitsIcEENS_9allocatorIcEEEEPji) refers (Special) to _printf_dec.o(.text) for _printf_int_dec
    string.cpp.o(.text._ZNSt3__15stoulERKNS_12basic_stringIcNS_11char_traitsIcEENS_9allocatorIcEEEEPji) refers (Special) to _printf_lld.o(.ARM.Collect$$_printf_percent$$0000000E) for _printf_lld
    string.cpp.o(.text._ZNSt3__15stoulERKNS_12basic_stringIcNS_11char_traitsIcEENS_9allocatorIcEEEEPji) refers (Special) to _printf_llu.o(.ARM.Collect$$_printf_percent$$0000000F) for _printf_llu
    string.cpp.o(.text._ZNSt3__15stoulERKNS_12basic_stringIcNS_11char_traitsIcEENS_9allocatorIcEEEEPji) refers (Special) to _printf_longlong_dec.o(.text) for _printf_longlong_dec
    string.cpp.o(.text._ZNSt3__15stoulERKNS_12basic_stringIcNS_11char_traitsIcEENS_9allocatorIcEEEEPji) refers (Special) to _printf_percent.o(.ARM.Collect$$_printf_percent$$00000000) for _printf_percent
    string.cpp.o(.text._ZNSt3__15stoulERKNS_12basic_stringIcNS_11char_traitsIcEENS_9allocatorIcEEEEPji) refers (Special) to _printf_s.o(.ARM.Collect$$_printf_percent$$00000014) for _printf_s
    string.cpp.o(.text._ZNSt3__15stoulERKNS_12basic_stringIcNS_11char_traitsIcEENS_9allocatorIcEEEEPji) refers (Special) to _printf_str.o(.text) for _printf_str
    string.cpp.o(.text._ZNSt3__15stoulERKNS_12basic_stringIcNS_11char_traitsIcEENS_9allocatorIcEEEEPji) refers (Special) to _printf_u.o(.ARM.Collect$$_printf_percent$$0000000A) for _printf_u
    string.cpp.o(.text._ZNSt3__15stoulERKNS_12basic_stringIcNS_11char_traitsIcEENS_9allocatorIcEEEEPji) refers to string.cpp.o(.rodata.str1.1) for .L.str.3
    string.cpp.o(.text._ZNSt3__15stoulERKNS_12basic_stringIcNS_11char_traitsIcEENS_9allocatorIcEEEEPji) refers to rt_memcpy_v6.o(.text) for __aeabi_memcpy
    string.cpp.o(.text._ZNSt3__15stoulERKNS_12basic_stringIcNS_11char_traitsIcEENS_9allocatorIcEEEEPji) refers to rt_errno_addr_intlibspace.o(.text) for __aeabi_errno_addr
    string.cpp.o(.text._ZNSt3__15stoulERKNS_12basic_stringIcNS_11char_traitsIcEENS_9allocatorIcEEEEPji) refers to strtoul.o(.text) for strtoul
    string.cpp.o(.text._ZNSt3__15stoulERKNS_12basic_stringIcNS_11char_traitsIcEENS_9allocatorIcEEEEPji) refers to string.cpp.o(.text._ZNSt3__112_GLOBAL__N_130throw_from_string_out_of_rangeERKNS_12basic_stringIcNS_11char_traitsIcEENS_9allocatorIcEEEE) for std::__1::<unnamed namespace 1>::throw_from_string_out_of_range(const std::__1::basic_string<char, std::__1::char_traits<char>, std::__1::allocator<char>>&)
    string.cpp.o(.text._ZNSt3__15stoulERKNS_12basic_stringIcNS_11char_traitsIcEENS_9allocatorIcEEEEPji) refers to string.cpp.o(.text._ZNSt3__112_GLOBAL__N_129throw_from_string_invalid_argERKNS_12basic_stringIcNS_11char_traitsIcEENS_9allocatorIcEEEE) for std::__1::<unnamed namespace 1>::throw_from_string_invalid_arg(const std::__1::basic_string<char, std::__1::char_traits<char>, std::__1::allocator<char>>&)
    string.cpp.o(.ARM.exidx.text._ZNSt3__15stoulERKNS_12basic_stringIcNS_11char_traitsIcEENS_9allocatorIcEEEEPji) refers (Special) to _printf_d.o(.ARM.Collect$$_printf_percent$$00000009) for _printf_d
    string.cpp.o(.ARM.exidx.text._ZNSt3__15stoulERKNS_12basic_stringIcNS_11char_traitsIcEENS_9allocatorIcEEEEPji) refers (Special) to _printf_f.o(.ARM.Collect$$_printf_percent$$00000003) for _printf_f
    string.cpp.o(.ARM.exidx.text._ZNSt3__15stoulERKNS_12basic_stringIcNS_11char_traitsIcEENS_9allocatorIcEEEEPji) refers (Special) to printf1.o(x$fpl$printf1) for _printf_fp_dec
    string.cpp.o(.ARM.exidx.text._ZNSt3__15stoulERKNS_12basic_stringIcNS_11char_traitsIcEENS_9allocatorIcEEEEPji) refers (Special) to _printf_dec.o(.text) for _printf_int_dec
    string.cpp.o(.ARM.exidx.text._ZNSt3__15stoulERKNS_12basic_stringIcNS_11char_traitsIcEENS_9allocatorIcEEEEPji) refers (Special) to _printf_lld.o(.ARM.Collect$$_printf_percent$$0000000E) for _printf_lld
    string.cpp.o(.ARM.exidx.text._ZNSt3__15stoulERKNS_12basic_stringIcNS_11char_traitsIcEENS_9allocatorIcEEEEPji) refers (Special) to _printf_llu.o(.ARM.Collect$$_printf_percent$$0000000F) for _printf_llu
    string.cpp.o(.ARM.exidx.text._ZNSt3__15stoulERKNS_12basic_stringIcNS_11char_traitsIcEENS_9allocatorIcEEEEPji) refers (Special) to _printf_longlong_dec.o(.text) for _printf_longlong_dec
    string.cpp.o(.ARM.exidx.text._ZNSt3__15stoulERKNS_12basic_stringIcNS_11char_traitsIcEENS_9allocatorIcEEEEPji) refers (Special) to _printf_percent.o(.ARM.Collect$$_printf_percent$$00000000) for _printf_percent
    string.cpp.o(.ARM.exidx.text._ZNSt3__15stoulERKNS_12basic_stringIcNS_11char_traitsIcEENS_9allocatorIcEEEEPji) refers (Special) to _printf_s.o(.ARM.Collect$$_printf_percent$$00000014) for _printf_s
    string.cpp.o(.ARM.exidx.text._ZNSt3__15stoulERKNS_12basic_stringIcNS_11char_traitsIcEENS_9allocatorIcEEEEPji) refers (Special) to _printf_str.o(.text) for _printf_str
    string.cpp.o(.ARM.exidx.text._ZNSt3__15stoulERKNS_12basic_stringIcNS_11char_traitsIcEENS_9allocatorIcEEEEPji) refers (Special) to _printf_u.o(.ARM.Collect$$_printf_percent$$0000000A) for _printf_u
    string.cpp.o(.ARM.exidx.text._ZNSt3__15stoulERKNS_12basic_stringIcNS_11char_traitsIcEENS_9allocatorIcEEEEPji) refers to string.cpp.o(.text._ZNSt3__15stoulERKNS_12basic_stringIcNS_11char_traitsIcEENS_9allocatorIcEEEEPji) for [Anonymous Symbol]
    string.cpp.o(.text._ZNSt3__15stoulERKNS_12basic_stringIwNS_11char_traitsIwEENS_9allocatorIwEEEEPji) refers (Special) to _printf_d.o(.ARM.Collect$$_printf_percent$$00000009) for _printf_d
    string.cpp.o(.text._ZNSt3__15stoulERKNS_12basic_stringIwNS_11char_traitsIwEENS_9allocatorIwEEEEPji) refers (Special) to _printf_f.o(.ARM.Collect$$_printf_percent$$00000003) for _printf_f
    string.cpp.o(.text._ZNSt3__15stoulERKNS_12basic_stringIwNS_11char_traitsIwEENS_9allocatorIwEEEEPji) refers (Special) to printf1.o(x$fpl$printf1) for _printf_fp_dec
    string.cpp.o(.text._ZNSt3__15stoulERKNS_12basic_stringIwNS_11char_traitsIwEENS_9allocatorIwEEEEPji) refers (Special) to _printf_dec.o(.text) for _printf_int_dec
    string.cpp.o(.text._ZNSt3__15stoulERKNS_12basic_stringIwNS_11char_traitsIwEENS_9allocatorIwEEEEPji) refers (Special) to _printf_lld.o(.ARM.Collect$$_printf_percent$$0000000E) for _printf_lld
    string.cpp.o(.text._ZNSt3__15stoulERKNS_12basic_stringIwNS_11char_traitsIwEENS_9allocatorIwEEEEPji) refers (Special) to _printf_llu.o(.ARM.Collect$$_printf_percent$$0000000F) for _printf_llu
    string.cpp.o(.text._ZNSt3__15stoulERKNS_12basic_stringIwNS_11char_traitsIwEENS_9allocatorIwEEEEPji) refers (Special) to _printf_longlong_dec.o(.text) for _printf_longlong_dec
    string.cpp.o(.text._ZNSt3__15stoulERKNS_12basic_stringIwNS_11char_traitsIwEENS_9allocatorIwEEEEPji) refers (Special) to _printf_percent.o(.ARM.Collect$$_printf_percent$$00000000) for _printf_percent
    string.cpp.o(.text._ZNSt3__15stoulERKNS_12basic_stringIwNS_11char_traitsIwEENS_9allocatorIwEEEEPji) refers (Special) to _printf_s.o(.ARM.Collect$$_printf_percent$$00000014) for _printf_s
    string.cpp.o(.text._ZNSt3__15stoulERKNS_12basic_stringIwNS_11char_traitsIwEENS_9allocatorIwEEEEPji) refers (Special) to _printf_str.o(.text) for _printf_str
    string.cpp.o(.text._ZNSt3__15stoulERKNS_12basic_stringIwNS_11char_traitsIwEENS_9allocatorIwEEEEPji) refers (Special) to _printf_u.o(.ARM.Collect$$_printf_percent$$0000000A) for _printf_u
    string.cpp.o(.text._ZNSt3__15stoulERKNS_12basic_stringIwNS_11char_traitsIwEENS_9allocatorIwEEEEPji) refers to string.cpp.o(.rodata.str1.1) for .L.str.3
    string.cpp.o(.text._ZNSt3__15stoulERKNS_12basic_stringIwNS_11char_traitsIwEENS_9allocatorIwEEEEPji) refers to rt_memcpy_v6.o(.text) for __aeabi_memcpy
    string.cpp.o(.text._ZNSt3__15stoulERKNS_12basic_stringIwNS_11char_traitsIwEENS_9allocatorIwEEEEPji) refers to rt_errno_addr_intlibspace.o(.text) for __aeabi_errno_addr
    string.cpp.o(.text._ZNSt3__15stoulERKNS_12basic_stringIwNS_11char_traitsIwEENS_9allocatorIwEEEEPji) refers to wcstoul.o(.text) for wcstoul
    string.cpp.o(.text._ZNSt3__15stoulERKNS_12basic_stringIwNS_11char_traitsIwEENS_9allocatorIwEEEEPji) refers to string.cpp.o(.text._ZNSt3__112_GLOBAL__N_130throw_from_string_out_of_rangeERKNS_12basic_stringIcNS_11char_traitsIcEENS_9allocatorIcEEEE) for std::__1::<unnamed namespace 1>::throw_from_string_out_of_range(const std::__1::basic_string<char, std::__1::char_traits<char>, std::__1::allocator<char>>&)
    string.cpp.o(.text._ZNSt3__15stoulERKNS_12basic_stringIwNS_11char_traitsIwEENS_9allocatorIwEEEEPji) refers to string.cpp.o(.text._ZNSt3__112_GLOBAL__N_129throw_from_string_invalid_argERKNS_12basic_stringIcNS_11char_traitsIcEENS_9allocatorIcEEEE) for std::__1::<unnamed namespace 1>::throw_from_string_invalid_arg(const std::__1::basic_string<char, std::__1::char_traits<char>, std::__1::allocator<char>>&)
    string.cpp.o(.ARM.exidx.text._ZNSt3__15stoulERKNS_12basic_stringIwNS_11char_traitsIwEENS_9allocatorIwEEEEPji) refers (Special) to _printf_d.o(.ARM.Collect$$_printf_percent$$00000009) for _printf_d
    string.cpp.o(.ARM.exidx.text._ZNSt3__15stoulERKNS_12basic_stringIwNS_11char_traitsIwEENS_9allocatorIwEEEEPji) refers (Special) to _printf_f.o(.ARM.Collect$$_printf_percent$$00000003) for _printf_f
    string.cpp.o(.ARM.exidx.text._ZNSt3__15stoulERKNS_12basic_stringIwNS_11char_traitsIwEENS_9allocatorIwEEEEPji) refers (Special) to printf1.o(x$fpl$printf1) for _printf_fp_dec
    string.cpp.o(.ARM.exidx.text._ZNSt3__15stoulERKNS_12basic_stringIwNS_11char_traitsIwEENS_9allocatorIwEEEEPji) refers (Special) to _printf_dec.o(.text) for _printf_int_dec
    string.cpp.o(.ARM.exidx.text._ZNSt3__15stoulERKNS_12basic_stringIwNS_11char_traitsIwEENS_9allocatorIwEEEEPji) refers (Special) to _printf_lld.o(.ARM.Collect$$_printf_percent$$0000000E) for _printf_lld
    string.cpp.o(.ARM.exidx.text._ZNSt3__15stoulERKNS_12basic_stringIwNS_11char_traitsIwEENS_9allocatorIwEEEEPji) refers (Special) to _printf_llu.o(.ARM.Collect$$_printf_percent$$0000000F) for _printf_llu
    string.cpp.o(.ARM.exidx.text._ZNSt3__15stoulERKNS_12basic_stringIwNS_11char_traitsIwEENS_9allocatorIwEEEEPji) refers (Special) to _printf_longlong_dec.o(.text) for _printf_longlong_dec
    string.cpp.o(.ARM.exidx.text._ZNSt3__15stoulERKNS_12basic_stringIwNS_11char_traitsIwEENS_9allocatorIwEEEEPji) refers (Special) to _printf_percent.o(.ARM.Collect$$_printf_percent$$00000000) for _printf_percent
    string.cpp.o(.ARM.exidx.text._ZNSt3__15stoulERKNS_12basic_stringIwNS_11char_traitsIwEENS_9allocatorIwEEEEPji) refers (Special) to _printf_s.o(.ARM.Collect$$_printf_percent$$00000014) for _printf_s
    string.cpp.o(.ARM.exidx.text._ZNSt3__15stoulERKNS_12basic_stringIwNS_11char_traitsIwEENS_9allocatorIwEEEEPji) refers (Special) to _printf_str.o(.text) for _printf_str
    string.cpp.o(.ARM.exidx.text._ZNSt3__15stoulERKNS_12basic_stringIwNS_11char_traitsIwEENS_9allocatorIwEEEEPji) refers (Special) to _printf_u.o(.ARM.Collect$$_printf_percent$$0000000A) for _printf_u
    string.cpp.o(.ARM.exidx.text._ZNSt3__15stoulERKNS_12basic_stringIwNS_11char_traitsIwEENS_9allocatorIwEEEEPji) refers to string.cpp.o(.text._ZNSt3__15stoulERKNS_12basic_stringIwNS_11char_traitsIwEENS_9allocatorIwEEEEPji) for [Anonymous Symbol]
    string.cpp.o(.text._ZNSt3__15stollERKNS_12basic_stringIcNS_11char_traitsIcEENS_9allocatorIcEEEEPji) refers (Special) to _printf_d.o(.ARM.Collect$$_printf_percent$$00000009) for _printf_d
    string.cpp.o(.text._ZNSt3__15stollERKNS_12basic_stringIcNS_11char_traitsIcEENS_9allocatorIcEEEEPji) refers (Special) to _printf_f.o(.ARM.Collect$$_printf_percent$$00000003) for _printf_f
    string.cpp.o(.text._ZNSt3__15stollERKNS_12basic_stringIcNS_11char_traitsIcEENS_9allocatorIcEEEEPji) refers (Special) to printf1.o(x$fpl$printf1) for _printf_fp_dec
    string.cpp.o(.text._ZNSt3__15stollERKNS_12basic_stringIcNS_11char_traitsIcEENS_9allocatorIcEEEEPji) refers (Special) to _printf_dec.o(.text) for _printf_int_dec
    string.cpp.o(.text._ZNSt3__15stollERKNS_12basic_stringIcNS_11char_traitsIcEENS_9allocatorIcEEEEPji) refers (Special) to _printf_lld.o(.ARM.Collect$$_printf_percent$$0000000E) for _printf_lld
    string.cpp.o(.text._ZNSt3__15stollERKNS_12basic_stringIcNS_11char_traitsIcEENS_9allocatorIcEEEEPji) refers (Special) to _printf_llu.o(.ARM.Collect$$_printf_percent$$0000000F) for _printf_llu
    string.cpp.o(.text._ZNSt3__15stollERKNS_12basic_stringIcNS_11char_traitsIcEENS_9allocatorIcEEEEPji) refers (Special) to _printf_longlong_dec.o(.text) for _printf_longlong_dec
    string.cpp.o(.text._ZNSt3__15stollERKNS_12basic_stringIcNS_11char_traitsIcEENS_9allocatorIcEEEEPji) refers (Special) to _printf_percent.o(.ARM.Collect$$_printf_percent$$00000000) for _printf_percent
    string.cpp.o(.text._ZNSt3__15stollERKNS_12basic_stringIcNS_11char_traitsIcEENS_9allocatorIcEEEEPji) refers (Special) to _printf_s.o(.ARM.Collect$$_printf_percent$$00000014) for _printf_s
    string.cpp.o(.text._ZNSt3__15stollERKNS_12basic_stringIcNS_11char_traitsIcEENS_9allocatorIcEEEEPji) refers (Special) to _printf_str.o(.text) for _printf_str
    string.cpp.o(.text._ZNSt3__15stollERKNS_12basic_stringIcNS_11char_traitsIcEENS_9allocatorIcEEEEPji) refers (Special) to _printf_u.o(.ARM.Collect$$_printf_percent$$0000000A) for _printf_u
    string.cpp.o(.text._ZNSt3__15stollERKNS_12basic_stringIcNS_11char_traitsIcEENS_9allocatorIcEEEEPji) refers to string.cpp.o(.rodata.str1.1) for .L.str.4
    string.cpp.o(.text._ZNSt3__15stollERKNS_12basic_stringIcNS_11char_traitsIcEENS_9allocatorIcEEEEPji) refers to rt_memcpy_v6.o(.text) for __aeabi_memcpy
    string.cpp.o(.text._ZNSt3__15stollERKNS_12basic_stringIcNS_11char_traitsIcEENS_9allocatorIcEEEEPji) refers to rt_errno_addr_intlibspace.o(.text) for __aeabi_errno_addr
    string.cpp.o(.text._ZNSt3__15stollERKNS_12basic_stringIcNS_11char_traitsIcEENS_9allocatorIcEEEEPji) refers to strtoll.o(.text) for strtoll
    string.cpp.o(.text._ZNSt3__15stollERKNS_12basic_stringIcNS_11char_traitsIcEENS_9allocatorIcEEEEPji) refers to string.cpp.o(.text._ZNSt3__112_GLOBAL__N_130throw_from_string_out_of_rangeERKNS_12basic_stringIcNS_11char_traitsIcEENS_9allocatorIcEEEE) for std::__1::<unnamed namespace 1>::throw_from_string_out_of_range(const std::__1::basic_string<char, std::__1::char_traits<char>, std::__1::allocator<char>>&)
    string.cpp.o(.text._ZNSt3__15stollERKNS_12basic_stringIcNS_11char_traitsIcEENS_9allocatorIcEEEEPji) refers to string.cpp.o(.text._ZNSt3__112_GLOBAL__N_129throw_from_string_invalid_argERKNS_12basic_stringIcNS_11char_traitsIcEENS_9allocatorIcEEEE) for std::__1::<unnamed namespace 1>::throw_from_string_invalid_arg(const std::__1::basic_string<char, std::__1::char_traits<char>, std::__1::allocator<char>>&)
    string.cpp.o(.ARM.exidx.text._ZNSt3__15stollERKNS_12basic_stringIcNS_11char_traitsIcEENS_9allocatorIcEEEEPji) refers (Special) to _printf_d.o(.ARM.Collect$$_printf_percent$$00000009) for _printf_d
    string.cpp.o(.ARM.exidx.text._ZNSt3__15stollERKNS_12basic_stringIcNS_11char_traitsIcEENS_9allocatorIcEEEEPji) refers (Special) to _printf_f.o(.ARM.Collect$$_printf_percent$$00000003) for _printf_f
    string.cpp.o(.ARM.exidx.text._ZNSt3__15stollERKNS_12basic_stringIcNS_11char_traitsIcEENS_9allocatorIcEEEEPji) refers (Special) to printf1.o(x$fpl$printf1) for _printf_fp_dec
    string.cpp.o(.ARM.exidx.text._ZNSt3__15stollERKNS_12basic_stringIcNS_11char_traitsIcEENS_9allocatorIcEEEEPji) refers (Special) to _printf_dec.o(.text) for _printf_int_dec
    string.cpp.o(.ARM.exidx.text._ZNSt3__15stollERKNS_12basic_stringIcNS_11char_traitsIcEENS_9allocatorIcEEEEPji) refers (Special) to _printf_lld.o(.ARM.Collect$$_printf_percent$$0000000E) for _printf_lld
    string.cpp.o(.ARM.exidx.text._ZNSt3__15stollERKNS_12basic_stringIcNS_11char_traitsIcEENS_9allocatorIcEEEEPji) refers (Special) to _printf_llu.o(.ARM.Collect$$_printf_percent$$0000000F) for _printf_llu
    string.cpp.o(.ARM.exidx.text._ZNSt3__15stollERKNS_12basic_stringIcNS_11char_traitsIcEENS_9allocatorIcEEEEPji) refers (Special) to _printf_longlong_dec.o(.text) for _printf_longlong_dec
    string.cpp.o(.ARM.exidx.text._ZNSt3__15stollERKNS_12basic_stringIcNS_11char_traitsIcEENS_9allocatorIcEEEEPji) refers (Special) to _printf_percent.o(.ARM.Collect$$_printf_percent$$00000000) for _printf_percent
    string.cpp.o(.ARM.exidx.text._ZNSt3__15stollERKNS_12basic_stringIcNS_11char_traitsIcEENS_9allocatorIcEEEEPji) refers (Special) to _printf_s.o(.ARM.Collect$$_printf_percent$$00000014) for _printf_s
    string.cpp.o(.ARM.exidx.text._ZNSt3__15stollERKNS_12basic_stringIcNS_11char_traitsIcEENS_9allocatorIcEEEEPji) refers (Special) to _printf_str.o(.text) for _printf_str
    string.cpp.o(.ARM.exidx.text._ZNSt3__15stollERKNS_12basic_stringIcNS_11char_traitsIcEENS_9allocatorIcEEEEPji) refers (Special) to _printf_u.o(.ARM.Collect$$_printf_percent$$0000000A) for _printf_u
    string.cpp.o(.ARM.exidx.text._ZNSt3__15stollERKNS_12basic_stringIcNS_11char_traitsIcEENS_9allocatorIcEEEEPji) refers to string.cpp.o(.text._ZNSt3__15stollERKNS_12basic_stringIcNS_11char_traitsIcEENS_9allocatorIcEEEEPji) for [Anonymous Symbol]
    string.cpp.o(.text._ZNSt3__15stollERKNS_12basic_stringIwNS_11char_traitsIwEENS_9allocatorIwEEEEPji) refers (Special) to _printf_d.o(.ARM.Collect$$_printf_percent$$00000009) for _printf_d
    string.cpp.o(.text._ZNSt3__15stollERKNS_12basic_stringIwNS_11char_traitsIwEENS_9allocatorIwEEEEPji) refers (Special) to _printf_f.o(.ARM.Collect$$_printf_percent$$00000003) for _printf_f
    string.cpp.o(.text._ZNSt3__15stollERKNS_12basic_stringIwNS_11char_traitsIwEENS_9allocatorIwEEEEPji) refers (Special) to printf1.o(x$fpl$printf1) for _printf_fp_dec
    string.cpp.o(.text._ZNSt3__15stollERKNS_12basic_stringIwNS_11char_traitsIwEENS_9allocatorIwEEEEPji) refers (Special) to _printf_dec.o(.text) for _printf_int_dec
    string.cpp.o(.text._ZNSt3__15stollERKNS_12basic_stringIwNS_11char_traitsIwEENS_9allocatorIwEEEEPji) refers (Special) to _printf_lld.o(.ARM.Collect$$_printf_percent$$0000000E) for _printf_lld
    string.cpp.o(.text._ZNSt3__15stollERKNS_12basic_stringIwNS_11char_traitsIwEENS_9allocatorIwEEEEPji) refers (Special) to _printf_llu.o(.ARM.Collect$$_printf_percent$$0000000F) for _printf_llu
    string.cpp.o(.text._ZNSt3__15stollERKNS_12basic_stringIwNS_11char_traitsIwEENS_9allocatorIwEEEEPji) refers (Special) to _printf_longlong_dec.o(.text) for _printf_longlong_dec
    string.cpp.o(.text._ZNSt3__15stollERKNS_12basic_stringIwNS_11char_traitsIwEENS_9allocatorIwEEEEPji) refers (Special) to _printf_percent.o(.ARM.Collect$$_printf_percent$$00000000) for _printf_percent
    string.cpp.o(.text._ZNSt3__15stollERKNS_12basic_stringIwNS_11char_traitsIwEENS_9allocatorIwEEEEPji) refers (Special) to _printf_s.o(.ARM.Collect$$_printf_percent$$00000014) for _printf_s
    string.cpp.o(.text._ZNSt3__15stollERKNS_12basic_stringIwNS_11char_traitsIwEENS_9allocatorIwEEEEPji) refers (Special) to _printf_str.o(.text) for _printf_str
    string.cpp.o(.text._ZNSt3__15stollERKNS_12basic_stringIwNS_11char_traitsIwEENS_9allocatorIwEEEEPji) refers (Special) to _printf_u.o(.ARM.Collect$$_printf_percent$$0000000A) for _printf_u
    string.cpp.o(.text._ZNSt3__15stollERKNS_12basic_stringIwNS_11char_traitsIwEENS_9allocatorIwEEEEPji) refers to string.cpp.o(.rodata.str1.1) for .L.str.4
    string.cpp.o(.text._ZNSt3__15stollERKNS_12basic_stringIwNS_11char_traitsIwEENS_9allocatorIwEEEEPji) refers to rt_memcpy_v6.o(.text) for __aeabi_memcpy
    string.cpp.o(.text._ZNSt3__15stollERKNS_12basic_stringIwNS_11char_traitsIwEENS_9allocatorIwEEEEPji) refers to rt_errno_addr_intlibspace.o(.text) for __aeabi_errno_addr
    string.cpp.o(.text._ZNSt3__15stollERKNS_12basic_stringIwNS_11char_traitsIwEENS_9allocatorIwEEEEPji) refers to wcstoll.o(.text) for wcstoll
    string.cpp.o(.text._ZNSt3__15stollERKNS_12basic_stringIwNS_11char_traitsIwEENS_9allocatorIwEEEEPji) refers to string.cpp.o(.text._ZNSt3__112_GLOBAL__N_130throw_from_string_out_of_rangeERKNS_12basic_stringIcNS_11char_traitsIcEENS_9allocatorIcEEEE) for std::__1::<unnamed namespace 1>::throw_from_string_out_of_range(const std::__1::basic_string<char, std::__1::char_traits<char>, std::__1::allocator<char>>&)
    string.cpp.o(.text._ZNSt3__15stollERKNS_12basic_stringIwNS_11char_traitsIwEENS_9allocatorIwEEEEPji) refers to string.cpp.o(.text._ZNSt3__112_GLOBAL__N_129throw_from_string_invalid_argERKNS_12basic_stringIcNS_11char_traitsIcEENS_9allocatorIcEEEE) for std::__1::<unnamed namespace 1>::throw_from_string_invalid_arg(const std::__1::basic_string<char, std::__1::char_traits<char>, std::__1::allocator<char>>&)
    string.cpp.o(.ARM.exidx.text._ZNSt3__15stollERKNS_12basic_stringIwNS_11char_traitsIwEENS_9allocatorIwEEEEPji) refers (Special) to _printf_d.o(.ARM.Collect$$_printf_percent$$00000009) for _printf_d
    string.cpp.o(.ARM.exidx.text._ZNSt3__15stollERKNS_12basic_stringIwNS_11char_traitsIwEENS_9allocatorIwEEEEPji) refers (Special) to _printf_f.o(.ARM.Collect$$_printf_percent$$00000003) for _printf_f
    string.cpp.o(.ARM.exidx.text._ZNSt3__15stollERKNS_12basic_stringIwNS_11char_traitsIwEENS_9allocatorIwEEEEPji) refers (Special) to printf1.o(x$fpl$printf1) for _printf_fp_dec
    string.cpp.o(.ARM.exidx.text._ZNSt3__15stollERKNS_12basic_stringIwNS_11char_traitsIwEENS_9allocatorIwEEEEPji) refers (Special) to _printf_dec.o(.text) for _printf_int_dec
    string.cpp.o(.ARM.exidx.text._ZNSt3__15stollERKNS_12basic_stringIwNS_11char_traitsIwEENS_9allocatorIwEEEEPji) refers (Special) to _printf_lld.o(.ARM.Collect$$_printf_percent$$0000000E) for _printf_lld
    string.cpp.o(.ARM.exidx.text._ZNSt3__15stollERKNS_12basic_stringIwNS_11char_traitsIwEENS_9allocatorIwEEEEPji) refers (Special) to _printf_llu.o(.ARM.Collect$$_printf_percent$$0000000F) for _printf_llu
    string.cpp.o(.ARM.exidx.text._ZNSt3__15stollERKNS_12basic_stringIwNS_11char_traitsIwEENS_9allocatorIwEEEEPji) refers (Special) to _printf_longlong_dec.o(.text) for _printf_longlong_dec
    string.cpp.o(.ARM.exidx.text._ZNSt3__15stollERKNS_12basic_stringIwNS_11char_traitsIwEENS_9allocatorIwEEEEPji) refers (Special) to _printf_percent.o(.ARM.Collect$$_printf_percent$$00000000) for _printf_percent
    string.cpp.o(.ARM.exidx.text._ZNSt3__15stollERKNS_12basic_stringIwNS_11char_traitsIwEENS_9allocatorIwEEEEPji) refers (Special) to _printf_s.o(.ARM.Collect$$_printf_percent$$00000014) for _printf_s
    string.cpp.o(.ARM.exidx.text._ZNSt3__15stollERKNS_12basic_stringIwNS_11char_traitsIwEENS_9allocatorIwEEEEPji) refers (Special) to _printf_str.o(.text) for _printf_str
    string.cpp.o(.ARM.exidx.text._ZNSt3__15stollERKNS_12basic_stringIwNS_11char_traitsIwEENS_9allocatorIwEEEEPji) refers (Special) to _printf_u.o(.ARM.Collect$$_printf_percent$$0000000A) for _printf_u
    string.cpp.o(.ARM.exidx.text._ZNSt3__15stollERKNS_12basic_stringIwNS_11char_traitsIwEENS_9allocatorIwEEEEPji) refers to string.cpp.o(.text._ZNSt3__15stollERKNS_12basic_stringIwNS_11char_traitsIwEENS_9allocatorIwEEEEPji) for [Anonymous Symbol]
    string.cpp.o(.text._ZNSt3__16stoullERKNS_12basic_stringIcNS_11char_traitsIcEENS_9allocatorIcEEEEPji) refers (Special) to _printf_d.o(.ARM.Collect$$_printf_percent$$00000009) for _printf_d
    string.cpp.o(.text._ZNSt3__16stoullERKNS_12basic_stringIcNS_11char_traitsIcEENS_9allocatorIcEEEEPji) refers (Special) to _printf_f.o(.ARM.Collect$$_printf_percent$$00000003) for _printf_f
    string.cpp.o(.text._ZNSt3__16stoullERKNS_12basic_stringIcNS_11char_traitsIcEENS_9allocatorIcEEEEPji) refers (Special) to printf1.o(x$fpl$printf1) for _printf_fp_dec
    string.cpp.o(.text._ZNSt3__16stoullERKNS_12basic_stringIcNS_11char_traitsIcEENS_9allocatorIcEEEEPji) refers (Special) to _printf_dec.o(.text) for _printf_int_dec
    string.cpp.o(.text._ZNSt3__16stoullERKNS_12basic_stringIcNS_11char_traitsIcEENS_9allocatorIcEEEEPji) refers (Special) to _printf_lld.o(.ARM.Collect$$_printf_percent$$0000000E) for _printf_lld
    string.cpp.o(.text._ZNSt3__16stoullERKNS_12basic_stringIcNS_11char_traitsIcEENS_9allocatorIcEEEEPji) refers (Special) to _printf_llu.o(.ARM.Collect$$_printf_percent$$0000000F) for _printf_llu
    string.cpp.o(.text._ZNSt3__16stoullERKNS_12basic_stringIcNS_11char_traitsIcEENS_9allocatorIcEEEEPji) refers (Special) to _printf_longlong_dec.o(.text) for _printf_longlong_dec
    string.cpp.o(.text._ZNSt3__16stoullERKNS_12basic_stringIcNS_11char_traitsIcEENS_9allocatorIcEEEEPji) refers (Special) to _printf_percent.o(.ARM.Collect$$_printf_percent$$00000000) for _printf_percent
    string.cpp.o(.text._ZNSt3__16stoullERKNS_12basic_stringIcNS_11char_traitsIcEENS_9allocatorIcEEEEPji) refers (Special) to _printf_s.o(.ARM.Collect$$_printf_percent$$00000014) for _printf_s
    string.cpp.o(.text._ZNSt3__16stoullERKNS_12basic_stringIcNS_11char_traitsIcEENS_9allocatorIcEEEEPji) refers (Special) to _printf_str.o(.text) for _printf_str
    string.cpp.o(.text._ZNSt3__16stoullERKNS_12basic_stringIcNS_11char_traitsIcEENS_9allocatorIcEEEEPji) refers (Special) to _printf_u.o(.ARM.Collect$$_printf_percent$$0000000A) for _printf_u
    string.cpp.o(.text._ZNSt3__16stoullERKNS_12basic_stringIcNS_11char_traitsIcEENS_9allocatorIcEEEEPji) refers to string.cpp.o(.rodata.str1.1) for .L.str.5
    string.cpp.o(.text._ZNSt3__16stoullERKNS_12basic_stringIcNS_11char_traitsIcEENS_9allocatorIcEEEEPji) refers to rt_memcpy_v6.o(.text) for __aeabi_memcpy
    string.cpp.o(.text._ZNSt3__16stoullERKNS_12basic_stringIcNS_11char_traitsIcEENS_9allocatorIcEEEEPji) refers to rt_errno_addr_intlibspace.o(.text) for __aeabi_errno_addr
    string.cpp.o(.text._ZNSt3__16stoullERKNS_12basic_stringIcNS_11char_traitsIcEENS_9allocatorIcEEEEPji) refers to strtoull.o(.text) for strtoull
    string.cpp.o(.text._ZNSt3__16stoullERKNS_12basic_stringIcNS_11char_traitsIcEENS_9allocatorIcEEEEPji) refers to string.cpp.o(.text._ZNSt3__112_GLOBAL__N_130throw_from_string_out_of_rangeERKNS_12basic_stringIcNS_11char_traitsIcEENS_9allocatorIcEEEE) for std::__1::<unnamed namespace 1>::throw_from_string_out_of_range(const std::__1::basic_string<char, std::__1::char_traits<char>, std::__1::allocator<char>>&)
    string.cpp.o(.text._ZNSt3__16stoullERKNS_12basic_stringIcNS_11char_traitsIcEENS_9allocatorIcEEEEPji) refers to string.cpp.o(.text._ZNSt3__112_GLOBAL__N_129throw_from_string_invalid_argERKNS_12basic_stringIcNS_11char_traitsIcEENS_9allocatorIcEEEE) for std::__1::<unnamed namespace 1>::throw_from_string_invalid_arg(const std::__1::basic_string<char, std::__1::char_traits<char>, std::__1::allocator<char>>&)
    string.cpp.o(.ARM.exidx.text._ZNSt3__16stoullERKNS_12basic_stringIcNS_11char_traitsIcEENS_9allocatorIcEEEEPji) refers (Special) to _printf_d.o(.ARM.Collect$$_printf_percent$$00000009) for _printf_d
    string.cpp.o(.ARM.exidx.text._ZNSt3__16stoullERKNS_12basic_stringIcNS_11char_traitsIcEENS_9allocatorIcEEEEPji) refers (Special) to _printf_f.o(.ARM.Collect$$_printf_percent$$00000003) for _printf_f
    string.cpp.o(.ARM.exidx.text._ZNSt3__16stoullERKNS_12basic_stringIcNS_11char_traitsIcEENS_9allocatorIcEEEEPji) refers (Special) to printf1.o(x$fpl$printf1) for _printf_fp_dec
    string.cpp.o(.ARM.exidx.text._ZNSt3__16stoullERKNS_12basic_stringIcNS_11char_traitsIcEENS_9allocatorIcEEEEPji) refers (Special) to _printf_dec.o(.text) for _printf_int_dec
    string.cpp.o(.ARM.exidx.text._ZNSt3__16stoullERKNS_12basic_stringIcNS_11char_traitsIcEENS_9allocatorIcEEEEPji) refers (Special) to _printf_lld.o(.ARM.Collect$$_printf_percent$$0000000E) for _printf_lld
    string.cpp.o(.ARM.exidx.text._ZNSt3__16stoullERKNS_12basic_stringIcNS_11char_traitsIcEENS_9allocatorIcEEEEPji) refers (Special) to _printf_llu.o(.ARM.Collect$$_printf_percent$$0000000F) for _printf_llu
    string.cpp.o(.ARM.exidx.text._ZNSt3__16stoullERKNS_12basic_stringIcNS_11char_traitsIcEENS_9allocatorIcEEEEPji) refers (Special) to _printf_longlong_dec.o(.text) for _printf_longlong_dec
    string.cpp.o(.ARM.exidx.text._ZNSt3__16stoullERKNS_12basic_stringIcNS_11char_traitsIcEENS_9allocatorIcEEEEPji) refers (Special) to _printf_percent.o(.ARM.Collect$$_printf_percent$$00000000) for _printf_percent
    string.cpp.o(.ARM.exidx.text._ZNSt3__16stoullERKNS_12basic_stringIcNS_11char_traitsIcEENS_9allocatorIcEEEEPji) refers (Special) to _printf_s.o(.ARM.Collect$$_printf_percent$$00000014) for _printf_s
    string.cpp.o(.ARM.exidx.text._ZNSt3__16stoullERKNS_12basic_stringIcNS_11char_traitsIcEENS_9allocatorIcEEEEPji) refers (Special) to _printf_str.o(.text) for _printf_str
    string.cpp.o(.ARM.exidx.text._ZNSt3__16stoullERKNS_12basic_stringIcNS_11char_traitsIcEENS_9allocatorIcEEEEPji) refers (Special) to _printf_u.o(.ARM.Collect$$_printf_percent$$0000000A) for _printf_u
    string.cpp.o(.ARM.exidx.text._ZNSt3__16stoullERKNS_12basic_stringIcNS_11char_traitsIcEENS_9allocatorIcEEEEPji) refers to string.cpp.o(.text._ZNSt3__16stoullERKNS_12basic_stringIcNS_11char_traitsIcEENS_9allocatorIcEEEEPji) for [Anonymous Symbol]
    string.cpp.o(.text._ZNSt3__16stoullERKNS_12basic_stringIwNS_11char_traitsIwEENS_9allocatorIwEEEEPji) refers (Special) to _printf_d.o(.ARM.Collect$$_printf_percent$$00000009) for _printf_d
    string.cpp.o(.text._ZNSt3__16stoullERKNS_12basic_stringIwNS_11char_traitsIwEENS_9allocatorIwEEEEPji) refers (Special) to _printf_f.o(.ARM.Collect$$_printf_percent$$00000003) for _printf_f
    string.cpp.o(.text._ZNSt3__16stoullERKNS_12basic_stringIwNS_11char_traitsIwEENS_9allocatorIwEEEEPji) refers (Special) to printf1.o(x$fpl$printf1) for _printf_fp_dec
    string.cpp.o(.text._ZNSt3__16stoullERKNS_12basic_stringIwNS_11char_traitsIwEENS_9allocatorIwEEEEPji) refers (Special) to _printf_dec.o(.text) for _printf_int_dec
    string.cpp.o(.text._ZNSt3__16stoullERKNS_12basic_stringIwNS_11char_traitsIwEENS_9allocatorIwEEEEPji) refers (Special) to _printf_lld.o(.ARM.Collect$$_printf_percent$$0000000E) for _printf_lld
    string.cpp.o(.text._ZNSt3__16stoullERKNS_12basic_stringIwNS_11char_traitsIwEENS_9allocatorIwEEEEPji) refers (Special) to _printf_llu.o(.ARM.Collect$$_printf_percent$$0000000F) for _printf_llu
    string.cpp.o(.text._ZNSt3__16stoullERKNS_12basic_stringIwNS_11char_traitsIwEENS_9allocatorIwEEEEPji) refers (Special) to _printf_longlong_dec.o(.text) for _printf_longlong_dec
    string.cpp.o(.text._ZNSt3__16stoullERKNS_12basic_stringIwNS_11char_traitsIwEENS_9allocatorIwEEEEPji) refers (Special) to _printf_percent.o(.ARM.Collect$$_printf_percent$$00000000) for _printf_percent
    string.cpp.o(.text._ZNSt3__16stoullERKNS_12basic_stringIwNS_11char_traitsIwEENS_9allocatorIwEEEEPji) refers (Special) to _printf_s.o(.ARM.Collect$$_printf_percent$$00000014) for _printf_s
    string.cpp.o(.text._ZNSt3__16stoullERKNS_12basic_stringIwNS_11char_traitsIwEENS_9allocatorIwEEEEPji) refers (Special) to _printf_str.o(.text) for _printf_str
    string.cpp.o(.text._ZNSt3__16stoullERKNS_12basic_stringIwNS_11char_traitsIwEENS_9allocatorIwEEEEPji) refers (Special) to _printf_u.o(.ARM.Collect$$_printf_percent$$0000000A) for _printf_u
    string.cpp.o(.text._ZNSt3__16stoullERKNS_12basic_stringIwNS_11char_traitsIwEENS_9allocatorIwEEEEPji) refers to string.cpp.o(.rodata.str1.1) for .L.str.5
    string.cpp.o(.text._ZNSt3__16stoullERKNS_12basic_stringIwNS_11char_traitsIwEENS_9allocatorIwEEEEPji) refers to rt_memcpy_v6.o(.text) for __aeabi_memcpy
    string.cpp.o(.text._ZNSt3__16stoullERKNS_12basic_stringIwNS_11char_traitsIwEENS_9allocatorIwEEEEPji) refers to rt_errno_addr_intlibspace.o(.text) for __aeabi_errno_addr
    string.cpp.o(.text._ZNSt3__16stoullERKNS_12basic_stringIwNS_11char_traitsIwEENS_9allocatorIwEEEEPji) refers to wcstoull.o(.text) for wcstoull
    string.cpp.o(.text._ZNSt3__16stoullERKNS_12basic_stringIwNS_11char_traitsIwEENS_9allocatorIwEEEEPji) refers to string.cpp.o(.text._ZNSt3__112_GLOBAL__N_130throw_from_string_out_of_rangeERKNS_12basic_stringIcNS_11char_traitsIcEENS_9allocatorIcEEEE) for std::__1::<unnamed namespace 1>::throw_from_string_out_of_range(const std::__1::basic_string<char, std::__1::char_traits<char>, std::__1::allocator<char>>&)
    string.cpp.o(.text._ZNSt3__16stoullERKNS_12basic_stringIwNS_11char_traitsIwEENS_9allocatorIwEEEEPji) refers to string.cpp.o(.text._ZNSt3__112_GLOBAL__N_129throw_from_string_invalid_argERKNS_12basic_stringIcNS_11char_traitsIcEENS_9allocatorIcEEEE) for std::__1::<unnamed namespace 1>::throw_from_string_invalid_arg(const std::__1::basic_string<char, std::__1::char_traits<char>, std::__1::allocator<char>>&)
    string.cpp.o(.ARM.exidx.text._ZNSt3__16stoullERKNS_12basic_stringIwNS_11char_traitsIwEENS_9allocatorIwEEEEPji) refers (Special) to _printf_d.o(.ARM.Collect$$_printf_percent$$00000009) for _printf_d
    string.cpp.o(.ARM.exidx.text._ZNSt3__16stoullERKNS_12basic_stringIwNS_11char_traitsIwEENS_9allocatorIwEEEEPji) refers (Special) to _printf_f.o(.ARM.Collect$$_printf_percent$$00000003) for _printf_f
    string.cpp.o(.ARM.exidx.text._ZNSt3__16stoullERKNS_12basic_stringIwNS_11char_traitsIwEENS_9allocatorIwEEEEPji) refers (Special) to printf1.o(x$fpl$printf1) for _printf_fp_dec
    string.cpp.o(.ARM.exidx.text._ZNSt3__16stoullERKNS_12basic_stringIwNS_11char_traitsIwEENS_9allocatorIwEEEEPji) refers (Special) to _printf_dec.o(.text) for _printf_int_dec
    string.cpp.o(.ARM.exidx.text._ZNSt3__16stoullERKNS_12basic_stringIwNS_11char_traitsIwEENS_9allocatorIwEEEEPji) refers (Special) to _printf_lld.o(.ARM.Collect$$_printf_percent$$0000000E) for _printf_lld
    string.cpp.o(.ARM.exidx.text._ZNSt3__16stoullERKNS_12basic_stringIwNS_11char_traitsIwEENS_9allocatorIwEEEEPji) refers (Special) to _printf_llu.o(.ARM.Collect$$_printf_percent$$0000000F) for _printf_llu
    string.cpp.o(.ARM.exidx.text._ZNSt3__16stoullERKNS_12basic_stringIwNS_11char_traitsIwEENS_9allocatorIwEEEEPji) refers (Special) to _printf_longlong_dec.o(.text) for _printf_longlong_dec
    string.cpp.o(.ARM.exidx.text._ZNSt3__16stoullERKNS_12basic_stringIwNS_11char_traitsIwEENS_9allocatorIwEEEEPji) refers (Special) to _printf_percent.o(.ARM.Collect$$_printf_percent$$00000000) for _printf_percent
    string.cpp.o(.ARM.exidx.text._ZNSt3__16stoullERKNS_12basic_stringIwNS_11char_traitsIwEENS_9allocatorIwEEEEPji) refers (Special) to _printf_s.o(.ARM.Collect$$_printf_percent$$00000014) for _printf_s
    string.cpp.o(.ARM.exidx.text._ZNSt3__16stoullERKNS_12basic_stringIwNS_11char_traitsIwEENS_9allocatorIwEEEEPji) refers (Special) to _printf_str.o(.text) for _printf_str
    string.cpp.o(.ARM.exidx.text._ZNSt3__16stoullERKNS_12basic_stringIwNS_11char_traitsIwEENS_9allocatorIwEEEEPji) refers (Special) to _printf_u.o(.ARM.Collect$$_printf_percent$$0000000A) for _printf_u
    string.cpp.o(.ARM.exidx.text._ZNSt3__16stoullERKNS_12basic_stringIwNS_11char_traitsIwEENS_9allocatorIwEEEEPji) refers to string.cpp.o(.text._ZNSt3__16stoullERKNS_12basic_stringIwNS_11char_traitsIwEENS_9allocatorIwEEEEPji) for [Anonymous Symbol]
    string.cpp.o(.text._ZNSt3__14stofERKNS_12basic_stringIcNS_11char_traitsIcEENS_9allocatorIcEEEEPj) refers (Special) to _printf_d.o(.ARM.Collect$$_printf_percent$$00000009) for _printf_d
    string.cpp.o(.text._ZNSt3__14stofERKNS_12basic_stringIcNS_11char_traitsIcEENS_9allocatorIcEEEEPj) refers (Special) to _printf_f.o(.ARM.Collect$$_printf_percent$$00000003) for _printf_f
    string.cpp.o(.text._ZNSt3__14stofERKNS_12basic_stringIcNS_11char_traitsIcEENS_9allocatorIcEEEEPj) refers (Special) to printf1.o(x$fpl$printf1) for _printf_fp_dec
    string.cpp.o(.text._ZNSt3__14stofERKNS_12basic_stringIcNS_11char_traitsIcEENS_9allocatorIcEEEEPj) refers (Special) to _printf_dec.o(.text) for _printf_int_dec
    string.cpp.o(.text._ZNSt3__14stofERKNS_12basic_stringIcNS_11char_traitsIcEENS_9allocatorIcEEEEPj) refers (Special) to _printf_lld.o(.ARM.Collect$$_printf_percent$$0000000E) for _printf_lld
    string.cpp.o(.text._ZNSt3__14stofERKNS_12basic_stringIcNS_11char_traitsIcEENS_9allocatorIcEEEEPj) refers (Special) to _printf_llu.o(.ARM.Collect$$_printf_percent$$0000000F) for _printf_llu
    string.cpp.o(.text._ZNSt3__14stofERKNS_12basic_stringIcNS_11char_traitsIcEENS_9allocatorIcEEEEPj) refers (Special) to _printf_longlong_dec.o(.text) for _printf_longlong_dec
    string.cpp.o(.text._ZNSt3__14stofERKNS_12basic_stringIcNS_11char_traitsIcEENS_9allocatorIcEEEEPj) refers (Special) to _printf_percent.o(.ARM.Collect$$_printf_percent$$00000000) for _printf_percent
    string.cpp.o(.text._ZNSt3__14stofERKNS_12basic_stringIcNS_11char_traitsIcEENS_9allocatorIcEEEEPj) refers (Special) to _printf_s.o(.ARM.Collect$$_printf_percent$$00000014) for _printf_s
    string.cpp.o(.text._ZNSt3__14stofERKNS_12basic_stringIcNS_11char_traitsIcEENS_9allocatorIcEEEEPj) refers (Special) to _printf_str.o(.text) for _printf_str
    string.cpp.o(.text._ZNSt3__14stofERKNS_12basic_stringIcNS_11char_traitsIcEENS_9allocatorIcEEEEPj) refers (Special) to _printf_u.o(.ARM.Collect$$_printf_percent$$0000000A) for _printf_u
    string.cpp.o(.text._ZNSt3__14stofERKNS_12basic_stringIcNS_11char_traitsIcEENS_9allocatorIcEEEEPj) refers to rt_errno_addr_intlibspace.o(.text) for __aeabi_errno_addr
    string.cpp.o(.text._ZNSt3__14stofERKNS_12basic_stringIcNS_11char_traitsIcEENS_9allocatorIcEEEEPj) refers to strtof.o(i.strtof) for strtof
    string.cpp.o(.text._ZNSt3__14stofERKNS_12basic_stringIcNS_11char_traitsIcEENS_9allocatorIcEEEEPj) refers to string.cpp.o(.text._ZNSt3__112_GLOBAL__N_130throw_from_string_out_of_rangeERKNS_12basic_stringIcNS_11char_traitsIcEENS_9allocatorIcEEEE) for std::__1::<unnamed namespace 1>::throw_from_string_out_of_range(const std::__1::basic_string<char, std::__1::char_traits<char>, std::__1::allocator<char>>&)
    string.cpp.o(.text._ZNSt3__14stofERKNS_12basic_stringIcNS_11char_traitsIcEENS_9allocatorIcEEEEPj) refers to string.cpp.o(.text._ZNSt3__112_GLOBAL__N_129throw_from_string_invalid_argERKNS_12basic_stringIcNS_11char_traitsIcEENS_9allocatorIcEEEE) for std::__1::<unnamed namespace 1>::throw_from_string_invalid_arg(const std::__1::basic_string<char, std::__1::char_traits<char>, std::__1::allocator<char>>&)
    string.cpp.o(.ARM.exidx.text._ZNSt3__14stofERKNS_12basic_stringIcNS_11char_traitsIcEENS_9allocatorIcEEEEPj) refers (Special) to _printf_d.o(.ARM.Collect$$_printf_percent$$00000009) for _printf_d
    string.cpp.o(.ARM.exidx.text._ZNSt3__14stofERKNS_12basic_stringIcNS_11char_traitsIcEENS_9allocatorIcEEEEPj) refers (Special) to _printf_f.o(.ARM.Collect$$_printf_percent$$00000003) for _printf_f
    string.cpp.o(.ARM.exidx.text._ZNSt3__14stofERKNS_12basic_stringIcNS_11char_traitsIcEENS_9allocatorIcEEEEPj) refers (Special) to printf1.o(x$fpl$printf1) for _printf_fp_dec
    string.cpp.o(.ARM.exidx.text._ZNSt3__14stofERKNS_12basic_stringIcNS_11char_traitsIcEENS_9allocatorIcEEEEPj) refers (Special) to _printf_dec.o(.text) for _printf_int_dec
    string.cpp.o(.ARM.exidx.text._ZNSt3__14stofERKNS_12basic_stringIcNS_11char_traitsIcEENS_9allocatorIcEEEEPj) refers (Special) to _printf_lld.o(.ARM.Collect$$_printf_percent$$0000000E) for _printf_lld
    string.cpp.o(.ARM.exidx.text._ZNSt3__14stofERKNS_12basic_stringIcNS_11char_traitsIcEENS_9allocatorIcEEEEPj) refers (Special) to _printf_llu.o(.ARM.Collect$$_printf_percent$$0000000F) for _printf_llu
    string.cpp.o(.ARM.exidx.text._ZNSt3__14stofERKNS_12basic_stringIcNS_11char_traitsIcEENS_9allocatorIcEEEEPj) refers (Special) to _printf_longlong_dec.o(.text) for _printf_longlong_dec
    string.cpp.o(.ARM.exidx.text._ZNSt3__14stofERKNS_12basic_stringIcNS_11char_traitsIcEENS_9allocatorIcEEEEPj) refers (Special) to _printf_percent.o(.ARM.Collect$$_printf_percent$$00000000) for _printf_percent
    string.cpp.o(.ARM.exidx.text._ZNSt3__14stofERKNS_12basic_stringIcNS_11char_traitsIcEENS_9allocatorIcEEEEPj) refers (Special) to _printf_s.o(.ARM.Collect$$_printf_percent$$00000014) for _printf_s
    string.cpp.o(.ARM.exidx.text._ZNSt3__14stofERKNS_12basic_stringIcNS_11char_traitsIcEENS_9allocatorIcEEEEPj) refers (Special) to _printf_str.o(.text) for _printf_str
    string.cpp.o(.ARM.exidx.text._ZNSt3__14stofERKNS_12basic_stringIcNS_11char_traitsIcEENS_9allocatorIcEEEEPj) refers (Special) to _printf_u.o(.ARM.Collect$$_printf_percent$$0000000A) for _printf_u
    string.cpp.o(.ARM.exidx.text._ZNSt3__14stofERKNS_12basic_stringIcNS_11char_traitsIcEENS_9allocatorIcEEEEPj) refers to string.cpp.o(.text._ZNSt3__14stofERKNS_12basic_stringIcNS_11char_traitsIcEENS_9allocatorIcEEEEPj) for [Anonymous Symbol]
    string.cpp.o(.text._ZNSt3__14stofERKNS_12basic_stringIwNS_11char_traitsIwEENS_9allocatorIwEEEEPj) refers (Special) to _printf_d.o(.ARM.Collect$$_printf_percent$$00000009) for _printf_d
    string.cpp.o(.text._ZNSt3__14stofERKNS_12basic_stringIwNS_11char_traitsIwEENS_9allocatorIwEEEEPj) refers (Special) to _printf_f.o(.ARM.Collect$$_printf_percent$$00000003) for _printf_f
    string.cpp.o(.text._ZNSt3__14stofERKNS_12basic_stringIwNS_11char_traitsIwEENS_9allocatorIwEEEEPj) refers (Special) to printf1.o(x$fpl$printf1) for _printf_fp_dec
    string.cpp.o(.text._ZNSt3__14stofERKNS_12basic_stringIwNS_11char_traitsIwEENS_9allocatorIwEEEEPj) refers (Special) to _printf_dec.o(.text) for _printf_int_dec
    string.cpp.o(.text._ZNSt3__14stofERKNS_12basic_stringIwNS_11char_traitsIwEENS_9allocatorIwEEEEPj) refers (Special) to _printf_lld.o(.ARM.Collect$$_printf_percent$$0000000E) for _printf_lld
    string.cpp.o(.text._ZNSt3__14stofERKNS_12basic_stringIwNS_11char_traitsIwEENS_9allocatorIwEEEEPj) refers (Special) to _printf_llu.o(.ARM.Collect$$_printf_percent$$0000000F) for _printf_llu
    string.cpp.o(.text._ZNSt3__14stofERKNS_12basic_stringIwNS_11char_traitsIwEENS_9allocatorIwEEEEPj) refers (Special) to _printf_longlong_dec.o(.text) for _printf_longlong_dec
    string.cpp.o(.text._ZNSt3__14stofERKNS_12basic_stringIwNS_11char_traitsIwEENS_9allocatorIwEEEEPj) refers (Special) to _printf_percent.o(.ARM.Collect$$_printf_percent$$00000000) for _printf_percent
    string.cpp.o(.text._ZNSt3__14stofERKNS_12basic_stringIwNS_11char_traitsIwEENS_9allocatorIwEEEEPj) refers (Special) to _printf_s.o(.ARM.Collect$$_printf_percent$$00000014) for _printf_s
    string.cpp.o(.text._ZNSt3__14stofERKNS_12basic_stringIwNS_11char_traitsIwEENS_9allocatorIwEEEEPj) refers (Special) to _printf_str.o(.text) for _printf_str
    string.cpp.o(.text._ZNSt3__14stofERKNS_12basic_stringIwNS_11char_traitsIwEENS_9allocatorIwEEEEPj) refers (Special) to _printf_u.o(.ARM.Collect$$_printf_percent$$0000000A) for _printf_u
    string.cpp.o(.text._ZNSt3__14stofERKNS_12basic_stringIwNS_11char_traitsIwEENS_9allocatorIwEEEEPj) refers to rt_errno_addr_intlibspace.o(.text) for __aeabi_errno_addr
    string.cpp.o(.text._ZNSt3__14stofERKNS_12basic_stringIwNS_11char_traitsIwEENS_9allocatorIwEEEEPj) refers to wcstof.o(i.wcstof) for wcstof
    string.cpp.o(.text._ZNSt3__14stofERKNS_12basic_stringIwNS_11char_traitsIwEENS_9allocatorIwEEEEPj) refers to string.cpp.o(.text._ZNSt3__112_GLOBAL__N_130throw_from_string_out_of_rangeERKNS_12basic_stringIcNS_11char_traitsIcEENS_9allocatorIcEEEE) for std::__1::<unnamed namespace 1>::throw_from_string_out_of_range(const std::__1::basic_string<char, std::__1::char_traits<char>, std::__1::allocator<char>>&)
    string.cpp.o(.text._ZNSt3__14stofERKNS_12basic_stringIwNS_11char_traitsIwEENS_9allocatorIwEEEEPj) refers to string.cpp.o(.text._ZNSt3__112_GLOBAL__N_129throw_from_string_invalid_argERKNS_12basic_stringIcNS_11char_traitsIcEENS_9allocatorIcEEEE) for std::__1::<unnamed namespace 1>::throw_from_string_invalid_arg(const std::__1::basic_string<char, std::__1::char_traits<char>, std::__1::allocator<char>>&)
    string.cpp.o(.ARM.exidx.text._ZNSt3__14stofERKNS_12basic_stringIwNS_11char_traitsIwEENS_9allocatorIwEEEEPj) refers (Special) to _printf_d.o(.ARM.Collect$$_printf_percent$$00000009) for _printf_d
    string.cpp.o(.ARM.exidx.text._ZNSt3__14stofERKNS_12basic_stringIwNS_11char_traitsIwEENS_9allocatorIwEEEEPj) refers (Special) to _printf_f.o(.ARM.Collect$$_printf_percent$$00000003) for _printf_f
    string.cpp.o(.ARM.exidx.text._ZNSt3__14stofERKNS_12basic_stringIwNS_11char_traitsIwEENS_9allocatorIwEEEEPj) refers (Special) to printf1.o(x$fpl$printf1) for _printf_fp_dec
    string.cpp.o(.ARM.exidx.text._ZNSt3__14stofERKNS_12basic_stringIwNS_11char_traitsIwEENS_9allocatorIwEEEEPj) refers (Special) to _printf_dec.o(.text) for _printf_int_dec
    string.cpp.o(.ARM.exidx.text._ZNSt3__14stofERKNS_12basic_stringIwNS_11char_traitsIwEENS_9allocatorIwEEEEPj) refers (Special) to _printf_lld.o(.ARM.Collect$$_printf_percent$$0000000E) for _printf_lld
    string.cpp.o(.ARM.exidx.text._ZNSt3__14stofERKNS_12basic_stringIwNS_11char_traitsIwEENS_9allocatorIwEEEEPj) refers (Special) to _printf_llu.o(.ARM.Collect$$_printf_percent$$0000000F) for _printf_llu
    string.cpp.o(.ARM.exidx.text._ZNSt3__14stofERKNS_12basic_stringIwNS_11char_traitsIwEENS_9allocatorIwEEEEPj) refers (Special) to _printf_longlong_dec.o(.text) for _printf_longlong_dec
    string.cpp.o(.ARM.exidx.text._ZNSt3__14stofERKNS_12basic_stringIwNS_11char_traitsIwEENS_9allocatorIwEEEEPj) refers (Special) to _printf_percent.o(.ARM.Collect$$_printf_percent$$00000000) for _printf_percent
    string.cpp.o(.ARM.exidx.text._ZNSt3__14stofERKNS_12basic_stringIwNS_11char_traitsIwEENS_9allocatorIwEEEEPj) refers (Special) to _printf_s.o(.ARM.Collect$$_printf_percent$$00000014) for _printf_s
    string.cpp.o(.ARM.exidx.text._ZNSt3__14stofERKNS_12basic_stringIwNS_11char_traitsIwEENS_9allocatorIwEEEEPj) refers (Special) to _printf_str.o(.text) for _printf_str
    string.cpp.o(.ARM.exidx.text._ZNSt3__14stofERKNS_12basic_stringIwNS_11char_traitsIwEENS_9allocatorIwEEEEPj) refers (Special) to _printf_u.o(.ARM.Collect$$_printf_percent$$0000000A) for _printf_u
    string.cpp.o(.ARM.exidx.text._ZNSt3__14stofERKNS_12basic_stringIwNS_11char_traitsIwEENS_9allocatorIwEEEEPj) refers to string.cpp.o(.text._ZNSt3__14stofERKNS_12basic_stringIwNS_11char_traitsIwEENS_9allocatorIwEEEEPj) for [Anonymous Symbol]
    string.cpp.o(.text._ZNSt3__14stodERKNS_12basic_stringIcNS_11char_traitsIcEENS_9allocatorIcEEEEPj) refers (Special) to _printf_d.o(.ARM.Collect$$_printf_percent$$00000009) for _printf_d
    string.cpp.o(.text._ZNSt3__14stodERKNS_12basic_stringIcNS_11char_traitsIcEENS_9allocatorIcEEEEPj) refers (Special) to _printf_f.o(.ARM.Collect$$_printf_percent$$00000003) for _printf_f
    string.cpp.o(.text._ZNSt3__14stodERKNS_12basic_stringIcNS_11char_traitsIcEENS_9allocatorIcEEEEPj) refers (Special) to printf1.o(x$fpl$printf1) for _printf_fp_dec
    string.cpp.o(.text._ZNSt3__14stodERKNS_12basic_stringIcNS_11char_traitsIcEENS_9allocatorIcEEEEPj) refers (Special) to _printf_dec.o(.text) for _printf_int_dec
    string.cpp.o(.text._ZNSt3__14stodERKNS_12basic_stringIcNS_11char_traitsIcEENS_9allocatorIcEEEEPj) refers (Special) to _printf_lld.o(.ARM.Collect$$_printf_percent$$0000000E) for _printf_lld
    string.cpp.o(.text._ZNSt3__14stodERKNS_12basic_stringIcNS_11char_traitsIcEENS_9allocatorIcEEEEPj) refers (Special) to _printf_llu.o(.ARM.Collect$$_printf_percent$$0000000F) for _printf_llu
    string.cpp.o(.text._ZNSt3__14stodERKNS_12basic_stringIcNS_11char_traitsIcEENS_9allocatorIcEEEEPj) refers (Special) to _printf_longlong_dec.o(.text) for _printf_longlong_dec
    string.cpp.o(.text._ZNSt3__14stodERKNS_12basic_stringIcNS_11char_traitsIcEENS_9allocatorIcEEEEPj) refers (Special) to _printf_percent.o(.ARM.Collect$$_printf_percent$$00000000) for _printf_percent
    string.cpp.o(.text._ZNSt3__14stodERKNS_12basic_stringIcNS_11char_traitsIcEENS_9allocatorIcEEEEPj) refers (Special) to _printf_s.o(.ARM.Collect$$_printf_percent$$00000014) for _printf_s
    string.cpp.o(.text._ZNSt3__14stodERKNS_12basic_stringIcNS_11char_traitsIcEENS_9allocatorIcEEEEPj) refers (Special) to _printf_str.o(.text) for _printf_str
    string.cpp.o(.text._ZNSt3__14stodERKNS_12basic_stringIcNS_11char_traitsIcEENS_9allocatorIcEEEEPj) refers (Special) to _printf_u.o(.ARM.Collect$$_printf_percent$$0000000A) for _printf_u
    string.cpp.o(.text._ZNSt3__14stodERKNS_12basic_stringIcNS_11char_traitsIcEENS_9allocatorIcEEEEPj) refers to rt_errno_addr_intlibspace.o(.text) for __aeabi_errno_addr
    string.cpp.o(.text._ZNSt3__14stodERKNS_12basic_stringIcNS_11char_traitsIcEENS_9allocatorIcEEEEPj) refers to strtod.o(i.strtod) for strtod
    string.cpp.o(.text._ZNSt3__14stodERKNS_12basic_stringIcNS_11char_traitsIcEENS_9allocatorIcEEEEPj) refers to string.cpp.o(.text._ZNSt3__112_GLOBAL__N_130throw_from_string_out_of_rangeERKNS_12basic_stringIcNS_11char_traitsIcEENS_9allocatorIcEEEE) for std::__1::<unnamed namespace 1>::throw_from_string_out_of_range(const std::__1::basic_string<char, std::__1::char_traits<char>, std::__1::allocator<char>>&)
    string.cpp.o(.text._ZNSt3__14stodERKNS_12basic_stringIcNS_11char_traitsIcEENS_9allocatorIcEEEEPj) refers to string.cpp.o(.text._ZNSt3__112_GLOBAL__N_129throw_from_string_invalid_argERKNS_12basic_stringIcNS_11char_traitsIcEENS_9allocatorIcEEEE) for std::__1::<unnamed namespace 1>::throw_from_string_invalid_arg(const std::__1::basic_string<char, std::__1::char_traits<char>, std::__1::allocator<char>>&)
    string.cpp.o(.ARM.exidx.text._ZNSt3__14stodERKNS_12basic_stringIcNS_11char_traitsIcEENS_9allocatorIcEEEEPj) refers (Special) to _printf_d.o(.ARM.Collect$$_printf_percent$$00000009) for _printf_d
    string.cpp.o(.ARM.exidx.text._ZNSt3__14stodERKNS_12basic_stringIcNS_11char_traitsIcEENS_9allocatorIcEEEEPj) refers (Special) to _printf_f.o(.ARM.Collect$$_printf_percent$$00000003) for _printf_f
    string.cpp.o(.ARM.exidx.text._ZNSt3__14stodERKNS_12basic_stringIcNS_11char_traitsIcEENS_9allocatorIcEEEEPj) refers (Special) to printf1.o(x$fpl$printf1) for _printf_fp_dec
    string.cpp.o(.ARM.exidx.text._ZNSt3__14stodERKNS_12basic_stringIcNS_11char_traitsIcEENS_9allocatorIcEEEEPj) refers (Special) to _printf_dec.o(.text) for _printf_int_dec
    string.cpp.o(.ARM.exidx.text._ZNSt3__14stodERKNS_12basic_stringIcNS_11char_traitsIcEENS_9allocatorIcEEEEPj) refers (Special) to _printf_lld.o(.ARM.Collect$$_printf_percent$$0000000E) for _printf_lld
    string.cpp.o(.ARM.exidx.text._ZNSt3__14stodERKNS_12basic_stringIcNS_11char_traitsIcEENS_9allocatorIcEEEEPj) refers (Special) to _printf_llu.o(.ARM.Collect$$_printf_percent$$0000000F) for _printf_llu
    string.cpp.o(.ARM.exidx.text._ZNSt3__14stodERKNS_12basic_stringIcNS_11char_traitsIcEENS_9allocatorIcEEEEPj) refers (Special) to _printf_longlong_dec.o(.text) for _printf_longlong_dec
    string.cpp.o(.ARM.exidx.text._ZNSt3__14stodERKNS_12basic_stringIcNS_11char_traitsIcEENS_9allocatorIcEEEEPj) refers (Special) to _printf_percent.o(.ARM.Collect$$_printf_percent$$00000000) for _printf_percent
    string.cpp.o(.ARM.exidx.text._ZNSt3__14stodERKNS_12basic_stringIcNS_11char_traitsIcEENS_9allocatorIcEEEEPj) refers (Special) to _printf_s.o(.ARM.Collect$$_printf_percent$$00000014) for _printf_s
    string.cpp.o(.ARM.exidx.text._ZNSt3__14stodERKNS_12basic_stringIcNS_11char_traitsIcEENS_9allocatorIcEEEEPj) refers (Special) to _printf_str.o(.text) for _printf_str
    string.cpp.o(.ARM.exidx.text._ZNSt3__14stodERKNS_12basic_stringIcNS_11char_traitsIcEENS_9allocatorIcEEEEPj) refers (Special) to _printf_u.o(.ARM.Collect$$_printf_percent$$0000000A) for _printf_u
    string.cpp.o(.ARM.exidx.text._ZNSt3__14stodERKNS_12basic_stringIcNS_11char_traitsIcEENS_9allocatorIcEEEEPj) refers to string.cpp.o(.text._ZNSt3__14stodERKNS_12basic_stringIcNS_11char_traitsIcEENS_9allocatorIcEEEEPj) for [Anonymous Symbol]
    string.cpp.o(.text._ZNSt3__14stodERKNS_12basic_stringIwNS_11char_traitsIwEENS_9allocatorIwEEEEPj) refers (Special) to _printf_d.o(.ARM.Collect$$_printf_percent$$00000009) for _printf_d
    string.cpp.o(.text._ZNSt3__14stodERKNS_12basic_stringIwNS_11char_traitsIwEENS_9allocatorIwEEEEPj) refers (Special) to _printf_f.o(.ARM.Collect$$_printf_percent$$00000003) for _printf_f
    string.cpp.o(.text._ZNSt3__14stodERKNS_12basic_stringIwNS_11char_traitsIwEENS_9allocatorIwEEEEPj) refers (Special) to printf1.o(x$fpl$printf1) for _printf_fp_dec
    string.cpp.o(.text._ZNSt3__14stodERKNS_12basic_stringIwNS_11char_traitsIwEENS_9allocatorIwEEEEPj) refers (Special) to _printf_dec.o(.text) for _printf_int_dec
    string.cpp.o(.text._ZNSt3__14stodERKNS_12basic_stringIwNS_11char_traitsIwEENS_9allocatorIwEEEEPj) refers (Special) to _printf_lld.o(.ARM.Collect$$_printf_percent$$0000000E) for _printf_lld
    string.cpp.o(.text._ZNSt3__14stodERKNS_12basic_stringIwNS_11char_traitsIwEENS_9allocatorIwEEEEPj) refers (Special) to _printf_llu.o(.ARM.Collect$$_printf_percent$$0000000F) for _printf_llu
    string.cpp.o(.text._ZNSt3__14stodERKNS_12basic_stringIwNS_11char_traitsIwEENS_9allocatorIwEEEEPj) refers (Special) to _printf_longlong_dec.o(.text) for _printf_longlong_dec
    string.cpp.o(.text._ZNSt3__14stodERKNS_12basic_stringIwNS_11char_traitsIwEENS_9allocatorIwEEEEPj) refers (Special) to _printf_percent.o(.ARM.Collect$$_printf_percent$$00000000) for _printf_percent
    string.cpp.o(.text._ZNSt3__14stodERKNS_12basic_stringIwNS_11char_traitsIwEENS_9allocatorIwEEEEPj) refers (Special) to _printf_s.o(.ARM.Collect$$_printf_percent$$00000014) for _printf_s
    string.cpp.o(.text._ZNSt3__14stodERKNS_12basic_stringIwNS_11char_traitsIwEENS_9allocatorIwEEEEPj) refers (Special) to _printf_str.o(.text) for _printf_str
    string.cpp.o(.text._ZNSt3__14stodERKNS_12basic_stringIwNS_11char_traitsIwEENS_9allocatorIwEEEEPj) refers (Special) to _printf_u.o(.ARM.Collect$$_printf_percent$$0000000A) for _printf_u
    string.cpp.o(.text._ZNSt3__14stodERKNS_12basic_stringIwNS_11char_traitsIwEENS_9allocatorIwEEEEPj) refers to rt_errno_addr_intlibspace.o(.text) for __aeabi_errno_addr
    string.cpp.o(.text._ZNSt3__14stodERKNS_12basic_stringIwNS_11char_traitsIwEENS_9allocatorIwEEEEPj) refers to wcstod.o(i.wcstod) for wcstod
    string.cpp.o(.text._ZNSt3__14stodERKNS_12basic_stringIwNS_11char_traitsIwEENS_9allocatorIwEEEEPj) refers to string.cpp.o(.text._ZNSt3__112_GLOBAL__N_130throw_from_string_out_of_rangeERKNS_12basic_stringIcNS_11char_traitsIcEENS_9allocatorIcEEEE) for std::__1::<unnamed namespace 1>::throw_from_string_out_of_range(const std::__1::basic_string<char, std::__1::char_traits<char>, std::__1::allocator<char>>&)
    string.cpp.o(.text._ZNSt3__14stodERKNS_12basic_stringIwNS_11char_traitsIwEENS_9allocatorIwEEEEPj) refers to string.cpp.o(.text._ZNSt3__112_GLOBAL__N_129throw_from_string_invalid_argERKNS_12basic_stringIcNS_11char_traitsIcEENS_9allocatorIcEEEE) for std::__1::<unnamed namespace 1>::throw_from_string_invalid_arg(const std::__1::basic_string<char, std::__1::char_traits<char>, std::__1::allocator<char>>&)
    string.cpp.o(.ARM.exidx.text._ZNSt3__14stodERKNS_12basic_stringIwNS_11char_traitsIwEENS_9allocatorIwEEEEPj) refers (Special) to _printf_d.o(.ARM.Collect$$_printf_percent$$00000009) for _printf_d
    string.cpp.o(.ARM.exidx.text._ZNSt3__14stodERKNS_12basic_stringIwNS_11char_traitsIwEENS_9allocatorIwEEEEPj) refers (Special) to _printf_f.o(.ARM.Collect$$_printf_percent$$00000003) for _printf_f
    string.cpp.o(.ARM.exidx.text._ZNSt3__14stodERKNS_12basic_stringIwNS_11char_traitsIwEENS_9allocatorIwEEEEPj) refers (Special) to printf1.o(x$fpl$printf1) for _printf_fp_dec
    string.cpp.o(.ARM.exidx.text._ZNSt3__14stodERKNS_12basic_stringIwNS_11char_traitsIwEENS_9allocatorIwEEEEPj) refers (Special) to _printf_dec.o(.text) for _printf_int_dec
    string.cpp.o(.ARM.exidx.text._ZNSt3__14stodERKNS_12basic_stringIwNS_11char_traitsIwEENS_9allocatorIwEEEEPj) refers (Special) to _printf_lld.o(.ARM.Collect$$_printf_percent$$0000000E) for _printf_lld
    string.cpp.o(.ARM.exidx.text._ZNSt3__14stodERKNS_12basic_stringIwNS_11char_traitsIwEENS_9allocatorIwEEEEPj) refers (Special) to _printf_llu.o(.ARM.Collect$$_printf_percent$$0000000F) for _printf_llu
    string.cpp.o(.ARM.exidx.text._ZNSt3__14stodERKNS_12basic_stringIwNS_11char_traitsIwEENS_9allocatorIwEEEEPj) refers (Special) to _printf_longlong_dec.o(.text) for _printf_longlong_dec
    string.cpp.o(.ARM.exidx.text._ZNSt3__14stodERKNS_12basic_stringIwNS_11char_traitsIwEENS_9allocatorIwEEEEPj) refers (Special) to _printf_percent.o(.ARM.Collect$$_printf_percent$$00000000) for _printf_percent
    string.cpp.o(.ARM.exidx.text._ZNSt3__14stodERKNS_12basic_stringIwNS_11char_traitsIwEENS_9allocatorIwEEEEPj) refers (Special) to _printf_s.o(.ARM.Collect$$_printf_percent$$00000014) for _printf_s
    string.cpp.o(.ARM.exidx.text._ZNSt3__14stodERKNS_12basic_stringIwNS_11char_traitsIwEENS_9allocatorIwEEEEPj) refers (Special) to _printf_str.o(.text) for _printf_str
    string.cpp.o(.ARM.exidx.text._ZNSt3__14stodERKNS_12basic_stringIwNS_11char_traitsIwEENS_9allocatorIwEEEEPj) refers (Special) to _printf_u.o(.ARM.Collect$$_printf_percent$$0000000A) for _printf_u
    string.cpp.o(.ARM.exidx.text._ZNSt3__14stodERKNS_12basic_stringIwNS_11char_traitsIwEENS_9allocatorIwEEEEPj) refers to string.cpp.o(.text._ZNSt3__14stodERKNS_12basic_stringIwNS_11char_traitsIwEENS_9allocatorIwEEEEPj) for [Anonymous Symbol]
    string.cpp.o(.text._ZNSt3__15stoldERKNS_12basic_stringIcNS_11char_traitsIcEENS_9allocatorIcEEEEPj) refers (Special) to _printf_d.o(.ARM.Collect$$_printf_percent$$00000009) for _printf_d
    string.cpp.o(.text._ZNSt3__15stoldERKNS_12basic_stringIcNS_11char_traitsIcEENS_9allocatorIcEEEEPj) refers (Special) to _printf_f.o(.ARM.Collect$$_printf_percent$$00000003) for _printf_f
    string.cpp.o(.text._ZNSt3__15stoldERKNS_12basic_stringIcNS_11char_traitsIcEENS_9allocatorIcEEEEPj) refers (Special) to printf1.o(x$fpl$printf1) for _printf_fp_dec
    string.cpp.o(.text._ZNSt3__15stoldERKNS_12basic_stringIcNS_11char_traitsIcEENS_9allocatorIcEEEEPj) refers (Special) to _printf_dec.o(.text) for _printf_int_dec
    string.cpp.o(.text._ZNSt3__15stoldERKNS_12basic_stringIcNS_11char_traitsIcEENS_9allocatorIcEEEEPj) refers (Special) to _printf_lld.o(.ARM.Collect$$_printf_percent$$0000000E) for _printf_lld
    string.cpp.o(.text._ZNSt3__15stoldERKNS_12basic_stringIcNS_11char_traitsIcEENS_9allocatorIcEEEEPj) refers (Special) to _printf_llu.o(.ARM.Collect$$_printf_percent$$0000000F) for _printf_llu
    string.cpp.o(.text._ZNSt3__15stoldERKNS_12basic_stringIcNS_11char_traitsIcEENS_9allocatorIcEEEEPj) refers (Special) to _printf_longlong_dec.o(.text) for _printf_longlong_dec
    string.cpp.o(.text._ZNSt3__15stoldERKNS_12basic_stringIcNS_11char_traitsIcEENS_9allocatorIcEEEEPj) refers (Special) to _printf_percent.o(.ARM.Collect$$_printf_percent$$00000000) for _printf_percent
    string.cpp.o(.text._ZNSt3__15stoldERKNS_12basic_stringIcNS_11char_traitsIcEENS_9allocatorIcEEEEPj) refers (Special) to _printf_s.o(.ARM.Collect$$_printf_percent$$00000014) for _printf_s
    string.cpp.o(.text._ZNSt3__15stoldERKNS_12basic_stringIcNS_11char_traitsIcEENS_9allocatorIcEEEEPj) refers (Special) to _printf_str.o(.text) for _printf_str
    string.cpp.o(.text._ZNSt3__15stoldERKNS_12basic_stringIcNS_11char_traitsIcEENS_9allocatorIcEEEEPj) refers (Special) to _printf_u.o(.ARM.Collect$$_printf_percent$$0000000A) for _printf_u
    string.cpp.o(.text._ZNSt3__15stoldERKNS_12basic_stringIcNS_11char_traitsIcEENS_9allocatorIcEEEEPj) refers to string.cpp.o(.rodata.str1.1) for .L.str.8
    string.cpp.o(.text._ZNSt3__15stoldERKNS_12basic_stringIcNS_11char_traitsIcEENS_9allocatorIcEEEEPj) refers to rt_memcpy_v6.o(.text) for __aeabi_memcpy
    string.cpp.o(.text._ZNSt3__15stoldERKNS_12basic_stringIcNS_11char_traitsIcEENS_9allocatorIcEEEEPj) refers to rt_errno_addr_intlibspace.o(.text) for __aeabi_errno_addr
    string.cpp.o(.text._ZNSt3__15stoldERKNS_12basic_stringIcNS_11char_traitsIcEENS_9allocatorIcEEEEPj) refers to strtold.o(i.strtold) for strtold
    string.cpp.o(.text._ZNSt3__15stoldERKNS_12basic_stringIcNS_11char_traitsIcEENS_9allocatorIcEEEEPj) refers to string.cpp.o(.text._ZNSt3__112_GLOBAL__N_130throw_from_string_out_of_rangeERKNS_12basic_stringIcNS_11char_traitsIcEENS_9allocatorIcEEEE) for std::__1::<unnamed namespace 1>::throw_from_string_out_of_range(const std::__1::basic_string<char, std::__1::char_traits<char>, std::__1::allocator<char>>&)
    string.cpp.o(.text._ZNSt3__15stoldERKNS_12basic_stringIcNS_11char_traitsIcEENS_9allocatorIcEEEEPj) refers to string.cpp.o(.text._ZNSt3__112_GLOBAL__N_129throw_from_string_invalid_argERKNS_12basic_stringIcNS_11char_traitsIcEENS_9allocatorIcEEEE) for std::__1::<unnamed namespace 1>::throw_from_string_invalid_arg(const std::__1::basic_string<char, std::__1::char_traits<char>, std::__1::allocator<char>>&)
    string.cpp.o(.ARM.exidx.text._ZNSt3__15stoldERKNS_12basic_stringIcNS_11char_traitsIcEENS_9allocatorIcEEEEPj) refers (Special) to _printf_d.o(.ARM.Collect$$_printf_percent$$00000009) for _printf_d
    string.cpp.o(.ARM.exidx.text._ZNSt3__15stoldERKNS_12basic_stringIcNS_11char_traitsIcEENS_9allocatorIcEEEEPj) refers (Special) to _printf_f.o(.ARM.Collect$$_printf_percent$$00000003) for _printf_f
    string.cpp.o(.ARM.exidx.text._ZNSt3__15stoldERKNS_12basic_stringIcNS_11char_traitsIcEENS_9allocatorIcEEEEPj) refers (Special) to printf1.o(x$fpl$printf1) for _printf_fp_dec
    string.cpp.o(.ARM.exidx.text._ZNSt3__15stoldERKNS_12basic_stringIcNS_11char_traitsIcEENS_9allocatorIcEEEEPj) refers (Special) to _printf_dec.o(.text) for _printf_int_dec
    string.cpp.o(.ARM.exidx.text._ZNSt3__15stoldERKNS_12basic_stringIcNS_11char_traitsIcEENS_9allocatorIcEEEEPj) refers (Special) to _printf_lld.o(.ARM.Collect$$_printf_percent$$0000000E) for _printf_lld
    string.cpp.o(.ARM.exidx.text._ZNSt3__15stoldERKNS_12basic_stringIcNS_11char_traitsIcEENS_9allocatorIcEEEEPj) refers (Special) to _printf_llu.o(.ARM.Collect$$_printf_percent$$0000000F) for _printf_llu
    string.cpp.o(.ARM.exidx.text._ZNSt3__15stoldERKNS_12basic_stringIcNS_11char_traitsIcEENS_9allocatorIcEEEEPj) refers (Special) to _printf_longlong_dec.o(.text) for _printf_longlong_dec
    string.cpp.o(.ARM.exidx.text._ZNSt3__15stoldERKNS_12basic_stringIcNS_11char_traitsIcEENS_9allocatorIcEEEEPj) refers (Special) to _printf_percent.o(.ARM.Collect$$_printf_percent$$00000000) for _printf_percent
    string.cpp.o(.ARM.exidx.text._ZNSt3__15stoldERKNS_12basic_stringIcNS_11char_traitsIcEENS_9allocatorIcEEEEPj) refers (Special) to _printf_s.o(.ARM.Collect$$_printf_percent$$00000014) for _printf_s
    string.cpp.o(.ARM.exidx.text._ZNSt3__15stoldERKNS_12basic_stringIcNS_11char_traitsIcEENS_9allocatorIcEEEEPj) refers (Special) to _printf_str.o(.text) for _printf_str
    string.cpp.o(.ARM.exidx.text._ZNSt3__15stoldERKNS_12basic_stringIcNS_11char_traitsIcEENS_9allocatorIcEEEEPj) refers (Special) to _printf_u.o(.ARM.Collect$$_printf_percent$$0000000A) for _printf_u
    string.cpp.o(.ARM.exidx.text._ZNSt3__15stoldERKNS_12basic_stringIcNS_11char_traitsIcEENS_9allocatorIcEEEEPj) refers to string.cpp.o(.text._ZNSt3__15stoldERKNS_12basic_stringIcNS_11char_traitsIcEENS_9allocatorIcEEEEPj) for [Anonymous Symbol]
    string.cpp.o(.text._ZNSt3__15stoldERKNS_12basic_stringIwNS_11char_traitsIwEENS_9allocatorIwEEEEPj) refers (Special) to _printf_d.o(.ARM.Collect$$_printf_percent$$00000009) for _printf_d
    string.cpp.o(.text._ZNSt3__15stoldERKNS_12basic_stringIwNS_11char_traitsIwEENS_9allocatorIwEEEEPj) refers (Special) to _printf_f.o(.ARM.Collect$$_printf_percent$$00000003) for _printf_f
    string.cpp.o(.text._ZNSt3__15stoldERKNS_12basic_stringIwNS_11char_traitsIwEENS_9allocatorIwEEEEPj) refers (Special) to printf1.o(x$fpl$printf1) for _printf_fp_dec
    string.cpp.o(.text._ZNSt3__15stoldERKNS_12basic_stringIwNS_11char_traitsIwEENS_9allocatorIwEEEEPj) refers (Special) to _printf_dec.o(.text) for _printf_int_dec
    string.cpp.o(.text._ZNSt3__15stoldERKNS_12basic_stringIwNS_11char_traitsIwEENS_9allocatorIwEEEEPj) refers (Special) to _printf_lld.o(.ARM.Collect$$_printf_percent$$0000000E) for _printf_lld
    string.cpp.o(.text._ZNSt3__15stoldERKNS_12basic_stringIwNS_11char_traitsIwEENS_9allocatorIwEEEEPj) refers (Special) to _printf_llu.o(.ARM.Collect$$_printf_percent$$0000000F) for _printf_llu
    string.cpp.o(.text._ZNSt3__15stoldERKNS_12basic_stringIwNS_11char_traitsIwEENS_9allocatorIwEEEEPj) refers (Special) to _printf_longlong_dec.o(.text) for _printf_longlong_dec
    string.cpp.o(.text._ZNSt3__15stoldERKNS_12basic_stringIwNS_11char_traitsIwEENS_9allocatorIwEEEEPj) refers (Special) to _printf_percent.o(.ARM.Collect$$_printf_percent$$00000000) for _printf_percent
    string.cpp.o(.text._ZNSt3__15stoldERKNS_12basic_stringIwNS_11char_traitsIwEENS_9allocatorIwEEEEPj) refers (Special) to _printf_s.o(.ARM.Collect$$_printf_percent$$00000014) for _printf_s
    string.cpp.o(.text._ZNSt3__15stoldERKNS_12basic_stringIwNS_11char_traitsIwEENS_9allocatorIwEEEEPj) refers (Special) to _printf_str.o(.text) for _printf_str
    string.cpp.o(.text._ZNSt3__15stoldERKNS_12basic_stringIwNS_11char_traitsIwEENS_9allocatorIwEEEEPj) refers (Special) to _printf_u.o(.ARM.Collect$$_printf_percent$$0000000A) for _printf_u
    string.cpp.o(.text._ZNSt3__15stoldERKNS_12basic_stringIwNS_11char_traitsIwEENS_9allocatorIwEEEEPj) refers to string.cpp.o(.rodata.str1.1) for .L.str.8
    string.cpp.o(.text._ZNSt3__15stoldERKNS_12basic_stringIwNS_11char_traitsIwEENS_9allocatorIwEEEEPj) refers to rt_memcpy_v6.o(.text) for __aeabi_memcpy
    string.cpp.o(.text._ZNSt3__15stoldERKNS_12basic_stringIwNS_11char_traitsIwEENS_9allocatorIwEEEEPj) refers to rt_errno_addr_intlibspace.o(.text) for __aeabi_errno_addr
    string.cpp.o(.text._ZNSt3__15stoldERKNS_12basic_stringIwNS_11char_traitsIwEENS_9allocatorIwEEEEPj) refers to wcstold.o(i.wcstold) for wcstold
    string.cpp.o(.text._ZNSt3__15stoldERKNS_12basic_stringIwNS_11char_traitsIwEENS_9allocatorIwEEEEPj) refers to string.cpp.o(.text._ZNSt3__112_GLOBAL__N_130throw_from_string_out_of_rangeERKNS_12basic_stringIcNS_11char_traitsIcEENS_9allocatorIcEEEE) for std::__1::<unnamed namespace 1>::throw_from_string_out_of_range(const std::__1::basic_string<char, std::__1::char_traits<char>, std::__1::allocator<char>>&)
    string.cpp.o(.text._ZNSt3__15stoldERKNS_12basic_stringIwNS_11char_traitsIwEENS_9allocatorIwEEEEPj) refers to string.cpp.o(.text._ZNSt3__112_GLOBAL__N_129throw_from_string_invalid_argERKNS_12basic_stringIcNS_11char_traitsIcEENS_9allocatorIcEEEE) for std::__1::<unnamed namespace 1>::throw_from_string_invalid_arg(const std::__1::basic_string<char, std::__1::char_traits<char>, std::__1::allocator<char>>&)
    string.cpp.o(.ARM.exidx.text._ZNSt3__15stoldERKNS_12basic_stringIwNS_11char_traitsIwEENS_9allocatorIwEEEEPj) refers (Special) to _printf_d.o(.ARM.Collect$$_printf_percent$$00000009) for _printf_d
    string.cpp.o(.ARM.exidx.text._ZNSt3__15stoldERKNS_12basic_stringIwNS_11char_traitsIwEENS_9allocatorIwEEEEPj) refers (Special) to _printf_f.o(.ARM.Collect$$_printf_percent$$00000003) for _printf_f
    string.cpp.o(.ARM.exidx.text._ZNSt3__15stoldERKNS_12basic_stringIwNS_11char_traitsIwEENS_9allocatorIwEEEEPj) refers (Special) to printf1.o(x$fpl$printf1) for _printf_fp_dec
    string.cpp.o(.ARM.exidx.text._ZNSt3__15stoldERKNS_12basic_stringIwNS_11char_traitsIwEENS_9allocatorIwEEEEPj) refers (Special) to _printf_dec.o(.text) for _printf_int_dec
    string.cpp.o(.ARM.exidx.text._ZNSt3__15stoldERKNS_12basic_stringIwNS_11char_traitsIwEENS_9allocatorIwEEEEPj) refers (Special) to _printf_lld.o(.ARM.Collect$$_printf_percent$$0000000E) for _printf_lld
    string.cpp.o(.ARM.exidx.text._ZNSt3__15stoldERKNS_12basic_stringIwNS_11char_traitsIwEENS_9allocatorIwEEEEPj) refers (Special) to _printf_llu.o(.ARM.Collect$$_printf_percent$$0000000F) for _printf_llu
    string.cpp.o(.ARM.exidx.text._ZNSt3__15stoldERKNS_12basic_stringIwNS_11char_traitsIwEENS_9allocatorIwEEEEPj) refers (Special) to _printf_longlong_dec.o(.text) for _printf_longlong_dec
    string.cpp.o(.ARM.exidx.text._ZNSt3__15stoldERKNS_12basic_stringIwNS_11char_traitsIwEENS_9allocatorIwEEEEPj) refers (Special) to _printf_percent.o(.ARM.Collect$$_printf_percent$$00000000) for _printf_percent
    string.cpp.o(.ARM.exidx.text._ZNSt3__15stoldERKNS_12basic_stringIwNS_11char_traitsIwEENS_9allocatorIwEEEEPj) refers (Special) to _printf_s.o(.ARM.Collect$$_printf_percent$$00000014) for _printf_s
    string.cpp.o(.ARM.exidx.text._ZNSt3__15stoldERKNS_12basic_stringIwNS_11char_traitsIwEENS_9allocatorIwEEEEPj) refers (Special) to _printf_str.o(.text) for _printf_str
    string.cpp.o(.ARM.exidx.text._ZNSt3__15stoldERKNS_12basic_stringIwNS_11char_traitsIwEENS_9allocatorIwEEEEPj) refers (Special) to _printf_u.o(.ARM.Collect$$_printf_percent$$0000000A) for _printf_u
    string.cpp.o(.ARM.exidx.text._ZNSt3__15stoldERKNS_12basic_stringIwNS_11char_traitsIwEENS_9allocatorIwEEEEPj) refers to string.cpp.o(.text._ZNSt3__15stoldERKNS_12basic_stringIwNS_11char_traitsIwEENS_9allocatorIwEEEEPj) for [Anonymous Symbol]
    string.cpp.o(.text._ZNSt3__19to_stringEi) refers (Special) to _printf_d.o(.ARM.Collect$$_printf_percent$$00000009) for _printf_d
    string.cpp.o(.text._ZNSt3__19to_stringEi) refers (Special) to _printf_f.o(.ARM.Collect$$_printf_percent$$00000003) for _printf_f
    string.cpp.o(.text._ZNSt3__19to_stringEi) refers (Special) to printf1.o(x$fpl$printf1) for _printf_fp_dec
    string.cpp.o(.text._ZNSt3__19to_stringEi) refers (Special) to _printf_dec.o(.text) for _printf_int_dec
    string.cpp.o(.text._ZNSt3__19to_stringEi) refers (Special) to _printf_lld.o(.ARM.Collect$$_printf_percent$$0000000E) for _printf_lld
    string.cpp.o(.text._ZNSt3__19to_stringEi) refers (Special) to _printf_llu.o(.ARM.Collect$$_printf_percent$$0000000F) for _printf_llu
    string.cpp.o(.text._ZNSt3__19to_stringEi) refers (Special) to _printf_longlong_dec.o(.text) for _printf_longlong_dec
    string.cpp.o(.text._ZNSt3__19to_stringEi) refers (Special) to _printf_percent.o(.ARM.Collect$$_printf_percent$$00000000) for _printf_percent
    string.cpp.o(.text._ZNSt3__19to_stringEi) refers (Special) to _printf_s.o(.ARM.Collect$$_printf_percent$$00000014) for _printf_s
    string.cpp.o(.text._ZNSt3__19to_stringEi) refers (Special) to _printf_str.o(.text) for _printf_str
    string.cpp.o(.text._ZNSt3__19to_stringEi) refers (Special) to _printf_u.o(.ARM.Collect$$_printf_percent$$0000000A) for _printf_u
    string.cpp.o(.text._ZNSt3__19to_stringEi) refers to string.cpp.o(.text._ZNSt3__112basic_stringIcNS_11char_traitsIcEENS_9allocatorIcEEE6resizeEjc) for std::__1::basic_string<char, std::__1::char_traits<char>, std::__1::allocator<char>>::resize(unsigned, char)
    string.cpp.o(.text._ZNSt3__19to_stringEi) refers to __2snprintf.o(.text) for __2snprintf
    string.cpp.o(.ARM.exidx.text._ZNSt3__19to_stringEi) refers (Special) to _printf_d.o(.ARM.Collect$$_printf_percent$$00000009) for _printf_d
    string.cpp.o(.ARM.exidx.text._ZNSt3__19to_stringEi) refers (Special) to _printf_f.o(.ARM.Collect$$_printf_percent$$00000003) for _printf_f
    string.cpp.o(.ARM.exidx.text._ZNSt3__19to_stringEi) refers (Special) to printf1.o(x$fpl$printf1) for _printf_fp_dec
    string.cpp.o(.ARM.exidx.text._ZNSt3__19to_stringEi) refers (Special) to _printf_dec.o(.text) for _printf_int_dec
    string.cpp.o(.ARM.exidx.text._ZNSt3__19to_stringEi) refers (Special) to _printf_lld.o(.ARM.Collect$$_printf_percent$$0000000E) for _printf_lld
    string.cpp.o(.ARM.exidx.text._ZNSt3__19to_stringEi) refers (Special) to _printf_llu.o(.ARM.Collect$$_printf_percent$$0000000F) for _printf_llu
    string.cpp.o(.ARM.exidx.text._ZNSt3__19to_stringEi) refers (Special) to _printf_longlong_dec.o(.text) for _printf_longlong_dec
    string.cpp.o(.ARM.exidx.text._ZNSt3__19to_stringEi) refers (Special) to _printf_percent.o(.ARM.Collect$$_printf_percent$$00000000) for _printf_percent
    string.cpp.o(.ARM.exidx.text._ZNSt3__19to_stringEi) refers (Special) to _printf_s.o(.ARM.Collect$$_printf_percent$$00000014) for _printf_s
    string.cpp.o(.ARM.exidx.text._ZNSt3__19to_stringEi) refers (Special) to _printf_str.o(.text) for _printf_str
    string.cpp.o(.ARM.exidx.text._ZNSt3__19to_stringEi) refers (Special) to _printf_u.o(.ARM.Collect$$_printf_percent$$0000000A) for _printf_u
    string.cpp.o(.ARM.exidx.text._ZNSt3__19to_stringEi) refers to string.cpp.o(.text._ZNSt3__19to_stringEi) for [Anonymous Symbol]
    string.cpp.o(.text._ZNSt3__19to_stringEj) refers (Special) to _printf_d.o(.ARM.Collect$$_printf_percent$$00000009) for _printf_d
    string.cpp.o(.text._ZNSt3__19to_stringEj) refers (Special) to _printf_f.o(.ARM.Collect$$_printf_percent$$00000003) for _printf_f
    string.cpp.o(.text._ZNSt3__19to_stringEj) refers (Special) to printf1.o(x$fpl$printf1) for _printf_fp_dec
    string.cpp.o(.text._ZNSt3__19to_stringEj) refers (Special) to _printf_dec.o(.text) for _printf_int_dec
    string.cpp.o(.text._ZNSt3__19to_stringEj) refers (Special) to _printf_lld.o(.ARM.Collect$$_printf_percent$$0000000E) for _printf_lld
    string.cpp.o(.text._ZNSt3__19to_stringEj) refers (Special) to _printf_llu.o(.ARM.Collect$$_printf_percent$$0000000F) for _printf_llu
    string.cpp.o(.text._ZNSt3__19to_stringEj) refers (Special) to _printf_longlong_dec.o(.text) for _printf_longlong_dec
    string.cpp.o(.text._ZNSt3__19to_stringEj) refers (Special) to _printf_percent.o(.ARM.Collect$$_printf_percent$$00000000) for _printf_percent
    string.cpp.o(.text._ZNSt3__19to_stringEj) refers (Special) to _printf_s.o(.ARM.Collect$$_printf_percent$$00000014) for _printf_s
    string.cpp.o(.text._ZNSt3__19to_stringEj) refers (Special) to _printf_str.o(.text) for _printf_str
    string.cpp.o(.text._ZNSt3__19to_stringEj) refers (Special) to _printf_u.o(.ARM.Collect$$_printf_percent$$0000000A) for _printf_u
    string.cpp.o(.text._ZNSt3__19to_stringEj) refers to string.cpp.o(.text._ZNSt3__112basic_stringIcNS_11char_traitsIcEENS_9allocatorIcEEE6resizeEjc) for std::__1::basic_string<char, std::__1::char_traits<char>, std::__1::allocator<char>>::resize(unsigned, char)
    string.cpp.o(.text._ZNSt3__19to_stringEj) refers to __2snprintf.o(.text) for __2snprintf
    string.cpp.o(.ARM.exidx.text._ZNSt3__19to_stringEj) refers (Special) to _printf_d.o(.ARM.Collect$$_printf_percent$$00000009) for _printf_d
    string.cpp.o(.ARM.exidx.text._ZNSt3__19to_stringEj) refers (Special) to _printf_f.o(.ARM.Collect$$_printf_percent$$00000003) for _printf_f
    string.cpp.o(.ARM.exidx.text._ZNSt3__19to_stringEj) refers (Special) to printf1.o(x$fpl$printf1) for _printf_fp_dec
    string.cpp.o(.ARM.exidx.text._ZNSt3__19to_stringEj) refers (Special) to _printf_dec.o(.text) for _printf_int_dec
    string.cpp.o(.ARM.exidx.text._ZNSt3__19to_stringEj) refers (Special) to _printf_lld.o(.ARM.Collect$$_printf_percent$$0000000E) for _printf_lld
    string.cpp.o(.ARM.exidx.text._ZNSt3__19to_stringEj) refers (Special) to _printf_llu.o(.ARM.Collect$$_printf_percent$$0000000F) for _printf_llu
    string.cpp.o(.ARM.exidx.text._ZNSt3__19to_stringEj) refers (Special) to _printf_longlong_dec.o(.text) for _printf_longlong_dec
    string.cpp.o(.ARM.exidx.text._ZNSt3__19to_stringEj) refers (Special) to _printf_percent.o(.ARM.Collect$$_printf_percent$$00000000) for _printf_percent
    string.cpp.o(.ARM.exidx.text._ZNSt3__19to_stringEj) refers (Special) to _printf_s.o(.ARM.Collect$$_printf_percent$$00000014) for _printf_s
    string.cpp.o(.ARM.exidx.text._ZNSt3__19to_stringEj) refers (Special) to _printf_str.o(.text) for _printf_str
    string.cpp.o(.ARM.exidx.text._ZNSt3__19to_stringEj) refers (Special) to _printf_u.o(.ARM.Collect$$_printf_percent$$0000000A) for _printf_u
    string.cpp.o(.ARM.exidx.text._ZNSt3__19to_stringEj) refers to string.cpp.o(.text._ZNSt3__19to_stringEj) for [Anonymous Symbol]
    string.cpp.o(.text._ZNSt3__19to_stringEl) refers (Special) to _printf_d.o(.ARM.Collect$$_printf_percent$$00000009) for _printf_d
    string.cpp.o(.text._ZNSt3__19to_stringEl) refers (Special) to _printf_f.o(.ARM.Collect$$_printf_percent$$00000003) for _printf_f
    string.cpp.o(.text._ZNSt3__19to_stringEl) refers (Special) to printf1.o(x$fpl$printf1) for _printf_fp_dec
    string.cpp.o(.text._ZNSt3__19to_stringEl) refers (Special) to _printf_dec.o(.text) for _printf_int_dec
    string.cpp.o(.text._ZNSt3__19to_stringEl) refers (Special) to _printf_lld.o(.ARM.Collect$$_printf_percent$$0000000E) for _printf_lld
    string.cpp.o(.text._ZNSt3__19to_stringEl) refers (Special) to _printf_llu.o(.ARM.Collect$$_printf_percent$$0000000F) for _printf_llu
    string.cpp.o(.text._ZNSt3__19to_stringEl) refers (Special) to _printf_longlong_dec.o(.text) for _printf_longlong_dec
    string.cpp.o(.text._ZNSt3__19to_stringEl) refers (Special) to _printf_percent.o(.ARM.Collect$$_printf_percent$$00000000) for _printf_percent
    string.cpp.o(.text._ZNSt3__19to_stringEl) refers (Special) to _printf_s.o(.ARM.Collect$$_printf_percent$$00000014) for _printf_s
    string.cpp.o(.text._ZNSt3__19to_stringEl) refers (Special) to _printf_str.o(.text) for _printf_str
    string.cpp.o(.text._ZNSt3__19to_stringEl) refers (Special) to _printf_u.o(.ARM.Collect$$_printf_percent$$0000000A) for _printf_u
    string.cpp.o(.text._ZNSt3__19to_stringEl) refers to string.cpp.o(.text._ZNSt3__112basic_stringIcNS_11char_traitsIcEENS_9allocatorIcEEE6resizeEjc) for std::__1::basic_string<char, std::__1::char_traits<char>, std::__1::allocator<char>>::resize(unsigned, char)
    string.cpp.o(.text._ZNSt3__19to_stringEl) refers to __2snprintf.o(.text) for __2snprintf
    string.cpp.o(.ARM.exidx.text._ZNSt3__19to_stringEl) refers (Special) to _printf_d.o(.ARM.Collect$$_printf_percent$$00000009) for _printf_d
    string.cpp.o(.ARM.exidx.text._ZNSt3__19to_stringEl) refers (Special) to _printf_f.o(.ARM.Collect$$_printf_percent$$00000003) for _printf_f
    string.cpp.o(.ARM.exidx.text._ZNSt3__19to_stringEl) refers (Special) to printf1.o(x$fpl$printf1) for _printf_fp_dec
    string.cpp.o(.ARM.exidx.text._ZNSt3__19to_stringEl) refers (Special) to _printf_dec.o(.text) for _printf_int_dec
    string.cpp.o(.ARM.exidx.text._ZNSt3__19to_stringEl) refers (Special) to _printf_lld.o(.ARM.Collect$$_printf_percent$$0000000E) for _printf_lld
    string.cpp.o(.ARM.exidx.text._ZNSt3__19to_stringEl) refers (Special) to _printf_llu.o(.ARM.Collect$$_printf_percent$$0000000F) for _printf_llu
    string.cpp.o(.ARM.exidx.text._ZNSt3__19to_stringEl) refers (Special) to _printf_longlong_dec.o(.text) for _printf_longlong_dec
    string.cpp.o(.ARM.exidx.text._ZNSt3__19to_stringEl) refers (Special) to _printf_percent.o(.ARM.Collect$$_printf_percent$$00000000) for _printf_percent
    string.cpp.o(.ARM.exidx.text._ZNSt3__19to_stringEl) refers (Special) to _printf_s.o(.ARM.Collect$$_printf_percent$$00000014) for _printf_s
    string.cpp.o(.ARM.exidx.text._ZNSt3__19to_stringEl) refers (Special) to _printf_str.o(.text) for _printf_str
    string.cpp.o(.ARM.exidx.text._ZNSt3__19to_stringEl) refers (Special) to _printf_u.o(.ARM.Collect$$_printf_percent$$0000000A) for _printf_u
    string.cpp.o(.ARM.exidx.text._ZNSt3__19to_stringEl) refers to string.cpp.o(.text._ZNSt3__19to_stringEl) for [Anonymous Symbol]
    string.cpp.o(.text._ZNSt3__19to_stringEm) refers (Special) to _printf_d.o(.ARM.Collect$$_printf_percent$$00000009) for _printf_d
    string.cpp.o(.text._ZNSt3__19to_stringEm) refers (Special) to _printf_f.o(.ARM.Collect$$_printf_percent$$00000003) for _printf_f
    string.cpp.o(.text._ZNSt3__19to_stringEm) refers (Special) to printf1.o(x$fpl$printf1) for _printf_fp_dec
    string.cpp.o(.text._ZNSt3__19to_stringEm) refers (Special) to _printf_dec.o(.text) for _printf_int_dec
    string.cpp.o(.text._ZNSt3__19to_stringEm) refers (Special) to _printf_lld.o(.ARM.Collect$$_printf_percent$$0000000E) for _printf_lld
    string.cpp.o(.text._ZNSt3__19to_stringEm) refers (Special) to _printf_llu.o(.ARM.Collect$$_printf_percent$$0000000F) for _printf_llu
    string.cpp.o(.text._ZNSt3__19to_stringEm) refers (Special) to _printf_longlong_dec.o(.text) for _printf_longlong_dec
    string.cpp.o(.text._ZNSt3__19to_stringEm) refers (Special) to _printf_percent.o(.ARM.Collect$$_printf_percent$$00000000) for _printf_percent
    string.cpp.o(.text._ZNSt3__19to_stringEm) refers (Special) to _printf_s.o(.ARM.Collect$$_printf_percent$$00000014) for _printf_s
    string.cpp.o(.text._ZNSt3__19to_stringEm) refers (Special) to _printf_str.o(.text) for _printf_str
    string.cpp.o(.text._ZNSt3__19to_stringEm) refers (Special) to _printf_u.o(.ARM.Collect$$_printf_percent$$0000000A) for _printf_u
    string.cpp.o(.text._ZNSt3__19to_stringEm) refers to string.cpp.o(.text._ZNSt3__112basic_stringIcNS_11char_traitsIcEENS_9allocatorIcEEE6resizeEjc) for std::__1::basic_string<char, std::__1::char_traits<char>, std::__1::allocator<char>>::resize(unsigned, char)
    string.cpp.o(.text._ZNSt3__19to_stringEm) refers to __2snprintf.o(.text) for __2snprintf
    string.cpp.o(.ARM.exidx.text._ZNSt3__19to_stringEm) refers (Special) to _printf_d.o(.ARM.Collect$$_printf_percent$$00000009) for _printf_d
    string.cpp.o(.ARM.exidx.text._ZNSt3__19to_stringEm) refers (Special) to _printf_f.o(.ARM.Collect$$_printf_percent$$00000003) for _printf_f
    string.cpp.o(.ARM.exidx.text._ZNSt3__19to_stringEm) refers (Special) to printf1.o(x$fpl$printf1) for _printf_fp_dec
    string.cpp.o(.ARM.exidx.text._ZNSt3__19to_stringEm) refers (Special) to _printf_dec.o(.text) for _printf_int_dec
    string.cpp.o(.ARM.exidx.text._ZNSt3__19to_stringEm) refers (Special) to _printf_lld.o(.ARM.Collect$$_printf_percent$$0000000E) for _printf_lld
    string.cpp.o(.ARM.exidx.text._ZNSt3__19to_stringEm) refers (Special) to _printf_llu.o(.ARM.Collect$$_printf_percent$$0000000F) for _printf_llu
    string.cpp.o(.ARM.exidx.text._ZNSt3__19to_stringEm) refers (Special) to _printf_longlong_dec.o(.text) for _printf_longlong_dec
    string.cpp.o(.ARM.exidx.text._ZNSt3__19to_stringEm) refers (Special) to _printf_percent.o(.ARM.Collect$$_printf_percent$$00000000) for _printf_percent
    string.cpp.o(.ARM.exidx.text._ZNSt3__19to_stringEm) refers (Special) to _printf_s.o(.ARM.Collect$$_printf_percent$$00000014) for _printf_s
    string.cpp.o(.ARM.exidx.text._ZNSt3__19to_stringEm) refers (Special) to _printf_str.o(.text) for _printf_str
    string.cpp.o(.ARM.exidx.text._ZNSt3__19to_stringEm) refers (Special) to _printf_u.o(.ARM.Collect$$_printf_percent$$0000000A) for _printf_u
    string.cpp.o(.ARM.exidx.text._ZNSt3__19to_stringEm) refers to string.cpp.o(.text._ZNSt3__19to_stringEm) for [Anonymous Symbol]
    string.cpp.o(.text._ZNSt3__19to_stringEx) refers (Special) to _printf_d.o(.ARM.Collect$$_printf_percent$$00000009) for _printf_d
    string.cpp.o(.text._ZNSt3__19to_stringEx) refers (Special) to _printf_f.o(.ARM.Collect$$_printf_percent$$00000003) for _printf_f
    string.cpp.o(.text._ZNSt3__19to_stringEx) refers (Special) to printf1.o(x$fpl$printf1) for _printf_fp_dec
    string.cpp.o(.text._ZNSt3__19to_stringEx) refers (Special) to _printf_dec.o(.text) for _printf_int_dec
    string.cpp.o(.text._ZNSt3__19to_stringEx) refers (Special) to _printf_lld.o(.ARM.Collect$$_printf_percent$$0000000E) for _printf_lld
    string.cpp.o(.text._ZNSt3__19to_stringEx) refers (Special) to _printf_llu.o(.ARM.Collect$$_printf_percent$$0000000F) for _printf_llu
    string.cpp.o(.text._ZNSt3__19to_stringEx) refers (Special) to _printf_longlong_dec.o(.text) for _printf_longlong_dec
    string.cpp.o(.text._ZNSt3__19to_stringEx) refers (Special) to _printf_percent.o(.ARM.Collect$$_printf_percent$$00000000) for _printf_percent
    string.cpp.o(.text._ZNSt3__19to_stringEx) refers (Special) to _printf_s.o(.ARM.Collect$$_printf_percent$$00000014) for _printf_s
    string.cpp.o(.text._ZNSt3__19to_stringEx) refers (Special) to _printf_str.o(.text) for _printf_str
    string.cpp.o(.text._ZNSt3__19to_stringEx) refers (Special) to _printf_u.o(.ARM.Collect$$_printf_percent$$0000000A) for _printf_u
    string.cpp.o(.text._ZNSt3__19to_stringEx) refers to string.cpp.o(.text._ZNSt3__112basic_stringIcNS_11char_traitsIcEENS_9allocatorIcEEE6resizeEjc) for std::__1::basic_string<char, std::__1::char_traits<char>, std::__1::allocator<char>>::resize(unsigned, char)
    string.cpp.o(.text._ZNSt3__19to_stringEx) refers to __2snprintf.o(.text) for __2snprintf
    string.cpp.o(.ARM.exidx.text._ZNSt3__19to_stringEx) refers (Special) to _printf_d.o(.ARM.Collect$$_printf_percent$$00000009) for _printf_d
    string.cpp.o(.ARM.exidx.text._ZNSt3__19to_stringEx) refers (Special) to _printf_f.o(.ARM.Collect$$_printf_percent$$00000003) for _printf_f
    string.cpp.o(.ARM.exidx.text._ZNSt3__19to_stringEx) refers (Special) to printf1.o(x$fpl$printf1) for _printf_fp_dec
    string.cpp.o(.ARM.exidx.text._ZNSt3__19to_stringEx) refers (Special) to _printf_dec.o(.text) for _printf_int_dec
    string.cpp.o(.ARM.exidx.text._ZNSt3__19to_stringEx) refers (Special) to _printf_lld.o(.ARM.Collect$$_printf_percent$$0000000E) for _printf_lld
    string.cpp.o(.ARM.exidx.text._ZNSt3__19to_stringEx) refers (Special) to _printf_llu.o(.ARM.Collect$$_printf_percent$$0000000F) for _printf_llu
    string.cpp.o(.ARM.exidx.text._ZNSt3__19to_stringEx) refers (Special) to _printf_longlong_dec.o(.text) for _printf_longlong_dec
    string.cpp.o(.ARM.exidx.text._ZNSt3__19to_stringEx) refers (Special) to _printf_percent.o(.ARM.Collect$$_printf_percent$$00000000) for _printf_percent
    string.cpp.o(.ARM.exidx.text._ZNSt3__19to_stringEx) refers (Special) to _printf_s.o(.ARM.Collect$$_printf_percent$$00000014) for _printf_s
    string.cpp.o(.ARM.exidx.text._ZNSt3__19to_stringEx) refers (Special) to _printf_str.o(.text) for _printf_str
    string.cpp.o(.ARM.exidx.text._ZNSt3__19to_stringEx) refers (Special) to _printf_u.o(.ARM.Collect$$_printf_percent$$0000000A) for _printf_u
    string.cpp.o(.ARM.exidx.text._ZNSt3__19to_stringEx) refers to string.cpp.o(.text._ZNSt3__19to_stringEx) for [Anonymous Symbol]
    string.cpp.o(.text._ZNSt3__19to_stringEy) refers (Special) to _printf_d.o(.ARM.Collect$$_printf_percent$$00000009) for _printf_d
    string.cpp.o(.text._ZNSt3__19to_stringEy) refers (Special) to _printf_f.o(.ARM.Collect$$_printf_percent$$00000003) for _printf_f
    string.cpp.o(.text._ZNSt3__19to_stringEy) refers (Special) to printf1.o(x$fpl$printf1) for _printf_fp_dec
    string.cpp.o(.text._ZNSt3__19to_stringEy) refers (Special) to _printf_dec.o(.text) for _printf_int_dec
    string.cpp.o(.text._ZNSt3__19to_stringEy) refers (Special) to _printf_lld.o(.ARM.Collect$$_printf_percent$$0000000E) for _printf_lld
    string.cpp.o(.text._ZNSt3__19to_stringEy) refers (Special) to _printf_llu.o(.ARM.Collect$$_printf_percent$$0000000F) for _printf_llu
    string.cpp.o(.text._ZNSt3__19to_stringEy) refers (Special) to _printf_longlong_dec.o(.text) for _printf_longlong_dec
    string.cpp.o(.text._ZNSt3__19to_stringEy) refers (Special) to _printf_percent.o(.ARM.Collect$$_printf_percent$$00000000) for _printf_percent
    string.cpp.o(.text._ZNSt3__19to_stringEy) refers (Special) to _printf_s.o(.ARM.Collect$$_printf_percent$$00000014) for _printf_s
    string.cpp.o(.text._ZNSt3__19to_stringEy) refers (Special) to _printf_str.o(.text) for _printf_str
    string.cpp.o(.text._ZNSt3__19to_stringEy) refers (Special) to _printf_u.o(.ARM.Collect$$_printf_percent$$0000000A) for _printf_u
    string.cpp.o(.text._ZNSt3__19to_stringEy) refers to string.cpp.o(.text._ZNSt3__112basic_stringIcNS_11char_traitsIcEENS_9allocatorIcEEE6resizeEjc) for std::__1::basic_string<char, std::__1::char_traits<char>, std::__1::allocator<char>>::resize(unsigned, char)
    string.cpp.o(.text._ZNSt3__19to_stringEy) refers to __2snprintf.o(.text) for __2snprintf
    string.cpp.o(.ARM.exidx.text._ZNSt3__19to_stringEy) refers (Special) to _printf_d.o(.ARM.Collect$$_printf_percent$$00000009) for _printf_d
    string.cpp.o(.ARM.exidx.text._ZNSt3__19to_stringEy) refers (Special) to _printf_f.o(.ARM.Collect$$_printf_percent$$00000003) for _printf_f
    string.cpp.o(.ARM.exidx.text._ZNSt3__19to_stringEy) refers (Special) to printf1.o(x$fpl$printf1) for _printf_fp_dec
    string.cpp.o(.ARM.exidx.text._ZNSt3__19to_stringEy) refers (Special) to _printf_dec.o(.text) for _printf_int_dec
    string.cpp.o(.ARM.exidx.text._ZNSt3__19to_stringEy) refers (Special) to _printf_lld.o(.ARM.Collect$$_printf_percent$$0000000E) for _printf_lld
    string.cpp.o(.ARM.exidx.text._ZNSt3__19to_stringEy) refers (Special) to _printf_llu.o(.ARM.Collect$$_printf_percent$$0000000F) for _printf_llu
    string.cpp.o(.ARM.exidx.text._ZNSt3__19to_stringEy) refers (Special) to _printf_longlong_dec.o(.text) for _printf_longlong_dec
    string.cpp.o(.ARM.exidx.text._ZNSt3__19to_stringEy) refers (Special) to _printf_percent.o(.ARM.Collect$$_printf_percent$$00000000) for _printf_percent
    string.cpp.o(.ARM.exidx.text._ZNSt3__19to_stringEy) refers (Special) to _printf_s.o(.ARM.Collect$$_printf_percent$$00000014) for _printf_s
    string.cpp.o(.ARM.exidx.text._ZNSt3__19to_stringEy) refers (Special) to _printf_str.o(.text) for _printf_str
    string.cpp.o(.ARM.exidx.text._ZNSt3__19to_stringEy) refers (Special) to _printf_u.o(.ARM.Collect$$_printf_percent$$0000000A) for _printf_u
    string.cpp.o(.ARM.exidx.text._ZNSt3__19to_stringEy) refers to string.cpp.o(.text._ZNSt3__19to_stringEy) for [Anonymous Symbol]
    string.cpp.o(.text._ZNSt3__19to_stringEf) refers (Special) to _printf_d.o(.ARM.Collect$$_printf_percent$$00000009) for _printf_d
    string.cpp.o(.text._ZNSt3__19to_stringEf) refers (Special) to _printf_f.o(.ARM.Collect$$_printf_percent$$00000003) for _printf_f
    string.cpp.o(.text._ZNSt3__19to_stringEf) refers (Special) to printf1.o(x$fpl$printf1) for _printf_fp_dec
    string.cpp.o(.text._ZNSt3__19to_stringEf) refers (Special) to _printf_dec.o(.text) for _printf_int_dec
    string.cpp.o(.text._ZNSt3__19to_stringEf) refers (Special) to _printf_lld.o(.ARM.Collect$$_printf_percent$$0000000E) for _printf_lld
    string.cpp.o(.text._ZNSt3__19to_stringEf) refers (Special) to _printf_llu.o(.ARM.Collect$$_printf_percent$$0000000F) for _printf_llu
    string.cpp.o(.text._ZNSt3__19to_stringEf) refers (Special) to _printf_longlong_dec.o(.text) for _printf_longlong_dec
    string.cpp.o(.text._ZNSt3__19to_stringEf) refers (Special) to _printf_percent.o(.ARM.Collect$$_printf_percent$$00000000) for _printf_percent
    string.cpp.o(.text._ZNSt3__19to_stringEf) refers (Special) to _printf_s.o(.ARM.Collect$$_printf_percent$$00000014) for _printf_s
    string.cpp.o(.text._ZNSt3__19to_stringEf) refers (Special) to _printf_str.o(.text) for _printf_str
    string.cpp.o(.text._ZNSt3__19to_stringEf) refers (Special) to _printf_u.o(.ARM.Collect$$_printf_percent$$0000000A) for _printf_u
    string.cpp.o(.text._ZNSt3__19to_stringEf) refers to string.cpp.o(.text._ZNSt3__112basic_stringIcNS_11char_traitsIcEENS_9allocatorIcEEE6resizeEjc) for std::__1::basic_string<char, std::__1::char_traits<char>, std::__1::allocator<char>>::resize(unsigned, char)
    string.cpp.o(.text._ZNSt3__19to_stringEf) refers to f2d.o(x$fpl$f2d) for __aeabi_f2d
    string.cpp.o(.text._ZNSt3__19to_stringEf) refers to string.cpp.o(.rodata.str1.1) for .L.str.15
    string.cpp.o(.text._ZNSt3__19to_stringEf) refers to __2snprintf.o(.text) for __2snprintf
    string.cpp.o(.ARM.exidx.text._ZNSt3__19to_stringEf) refers (Special) to _printf_d.o(.ARM.Collect$$_printf_percent$$00000009) for _printf_d
    string.cpp.o(.ARM.exidx.text._ZNSt3__19to_stringEf) refers (Special) to _printf_f.o(.ARM.Collect$$_printf_percent$$00000003) for _printf_f
    string.cpp.o(.ARM.exidx.text._ZNSt3__19to_stringEf) refers (Special) to printf1.o(x$fpl$printf1) for _printf_fp_dec
    string.cpp.o(.ARM.exidx.text._ZNSt3__19to_stringEf) refers (Special) to _printf_dec.o(.text) for _printf_int_dec
    string.cpp.o(.ARM.exidx.text._ZNSt3__19to_stringEf) refers (Special) to _printf_lld.o(.ARM.Collect$$_printf_percent$$0000000E) for _printf_lld
    string.cpp.o(.ARM.exidx.text._ZNSt3__19to_stringEf) refers (Special) to _printf_llu.o(.ARM.Collect$$_printf_percent$$0000000F) for _printf_llu
    string.cpp.o(.ARM.exidx.text._ZNSt3__19to_stringEf) refers (Special) to _printf_longlong_dec.o(.text) for _printf_longlong_dec
    string.cpp.o(.ARM.exidx.text._ZNSt3__19to_stringEf) refers (Special) to _printf_percent.o(.ARM.Collect$$_printf_percent$$00000000) for _printf_percent
    string.cpp.o(.ARM.exidx.text._ZNSt3__19to_stringEf) refers (Special) to _printf_s.o(.ARM.Collect$$_printf_percent$$00000014) for _printf_s
    string.cpp.o(.ARM.exidx.text._ZNSt3__19to_stringEf) refers (Special) to _printf_str.o(.text) for _printf_str
    string.cpp.o(.ARM.exidx.text._ZNSt3__19to_stringEf) refers (Special) to _printf_u.o(.ARM.Collect$$_printf_percent$$0000000A) for _printf_u
    string.cpp.o(.ARM.exidx.text._ZNSt3__19to_stringEf) refers to string.cpp.o(.text._ZNSt3__19to_stringEf) for [Anonymous Symbol]
    string.cpp.o(.text._ZNSt3__19to_stringEd) refers (Special) to _printf_d.o(.ARM.Collect$$_printf_percent$$00000009) for _printf_d
    string.cpp.o(.text._ZNSt3__19to_stringEd) refers (Special) to _printf_f.o(.ARM.Collect$$_printf_percent$$00000003) for _printf_f
    string.cpp.o(.text._ZNSt3__19to_stringEd) refers (Special) to printf1.o(x$fpl$printf1) for _printf_fp_dec
    string.cpp.o(.text._ZNSt3__19to_stringEd) refers (Special) to _printf_dec.o(.text) for _printf_int_dec
    string.cpp.o(.text._ZNSt3__19to_stringEd) refers (Special) to _printf_lld.o(.ARM.Collect$$_printf_percent$$0000000E) for _printf_lld
    string.cpp.o(.text._ZNSt3__19to_stringEd) refers (Special) to _printf_llu.o(.ARM.Collect$$_printf_percent$$0000000F) for _printf_llu
    string.cpp.o(.text._ZNSt3__19to_stringEd) refers (Special) to _printf_longlong_dec.o(.text) for _printf_longlong_dec
    string.cpp.o(.text._ZNSt3__19to_stringEd) refers (Special) to _printf_percent.o(.ARM.Collect$$_printf_percent$$00000000) for _printf_percent
    string.cpp.o(.text._ZNSt3__19to_stringEd) refers (Special) to _printf_s.o(.ARM.Collect$$_printf_percent$$00000014) for _printf_s
    string.cpp.o(.text._ZNSt3__19to_stringEd) refers (Special) to _printf_str.o(.text) for _printf_str
    string.cpp.o(.text._ZNSt3__19to_stringEd) refers (Special) to _printf_u.o(.ARM.Collect$$_printf_percent$$0000000A) for _printf_u
    string.cpp.o(.text._ZNSt3__19to_stringEd) refers to string.cpp.o(.text._ZNSt3__112basic_stringIcNS_11char_traitsIcEENS_9allocatorIcEEE6resizeEjc) for std::__1::basic_string<char, std::__1::char_traits<char>, std::__1::allocator<char>>::resize(unsigned, char)
    string.cpp.o(.text._ZNSt3__19to_stringEd) refers to string.cpp.o(.rodata.str1.1) for .L.str.15
    string.cpp.o(.text._ZNSt3__19to_stringEd) refers to __2snprintf.o(.text) for __2snprintf
    string.cpp.o(.ARM.exidx.text._ZNSt3__19to_stringEd) refers (Special) to _printf_d.o(.ARM.Collect$$_printf_percent$$00000009) for _printf_d
    string.cpp.o(.ARM.exidx.text._ZNSt3__19to_stringEd) refers (Special) to _printf_f.o(.ARM.Collect$$_printf_percent$$00000003) for _printf_f
    string.cpp.o(.ARM.exidx.text._ZNSt3__19to_stringEd) refers (Special) to printf1.o(x$fpl$printf1) for _printf_fp_dec
    string.cpp.o(.ARM.exidx.text._ZNSt3__19to_stringEd) refers (Special) to _printf_dec.o(.text) for _printf_int_dec
    string.cpp.o(.ARM.exidx.text._ZNSt3__19to_stringEd) refers (Special) to _printf_lld.o(.ARM.Collect$$_printf_percent$$0000000E) for _printf_lld
    string.cpp.o(.ARM.exidx.text._ZNSt3__19to_stringEd) refers (Special) to _printf_llu.o(.ARM.Collect$$_printf_percent$$0000000F) for _printf_llu
    string.cpp.o(.ARM.exidx.text._ZNSt3__19to_stringEd) refers (Special) to _printf_longlong_dec.o(.text) for _printf_longlong_dec
    string.cpp.o(.ARM.exidx.text._ZNSt3__19to_stringEd) refers (Special) to _printf_percent.o(.ARM.Collect$$_printf_percent$$00000000) for _printf_percent
    string.cpp.o(.ARM.exidx.text._ZNSt3__19to_stringEd) refers (Special) to _printf_s.o(.ARM.Collect$$_printf_percent$$00000014) for _printf_s
    string.cpp.o(.ARM.exidx.text._ZNSt3__19to_stringEd) refers (Special) to _printf_str.o(.text) for _printf_str
    string.cpp.o(.ARM.exidx.text._ZNSt3__19to_stringEd) refers (Special) to _printf_u.o(.ARM.Collect$$_printf_percent$$0000000A) for _printf_u
    string.cpp.o(.ARM.exidx.text._ZNSt3__19to_stringEd) refers to string.cpp.o(.text._ZNSt3__19to_stringEd) for [Anonymous Symbol]
    string.cpp.o(.text._ZNSt3__19to_stringEe) refers (Special) to _printf_d.o(.ARM.Collect$$_printf_percent$$00000009) for _printf_d
    string.cpp.o(.text._ZNSt3__19to_stringEe) refers (Special) to _printf_f.o(.ARM.Collect$$_printf_percent$$00000003) for _printf_f
    string.cpp.o(.text._ZNSt3__19to_stringEe) refers (Special) to printf1.o(x$fpl$printf1) for _printf_fp_dec
    string.cpp.o(.text._ZNSt3__19to_stringEe) refers (Special) to _printf_dec.o(.text) for _printf_int_dec
    string.cpp.o(.text._ZNSt3__19to_stringEe) refers (Special) to _printf_lld.o(.ARM.Collect$$_printf_percent$$0000000E) for _printf_lld
    string.cpp.o(.text._ZNSt3__19to_stringEe) refers (Special) to _printf_llu.o(.ARM.Collect$$_printf_percent$$0000000F) for _printf_llu
    string.cpp.o(.text._ZNSt3__19to_stringEe) refers (Special) to _printf_longlong_dec.o(.text) for _printf_longlong_dec
    string.cpp.o(.text._ZNSt3__19to_stringEe) refers (Special) to _printf_percent.o(.ARM.Collect$$_printf_percent$$00000000) for _printf_percent
    string.cpp.o(.text._ZNSt3__19to_stringEe) refers (Special) to _printf_s.o(.ARM.Collect$$_printf_percent$$00000014) for _printf_s
    string.cpp.o(.text._ZNSt3__19to_stringEe) refers (Special) to _printf_str.o(.text) for _printf_str
    string.cpp.o(.text._ZNSt3__19to_stringEe) refers (Special) to _printf_u.o(.ARM.Collect$$_printf_percent$$0000000A) for _printf_u
    string.cpp.o(.text._ZNSt3__19to_stringEe) refers to string.cpp.o(.text._ZNSt3__112basic_stringIcNS_11char_traitsIcEENS_9allocatorIcEEE6resizeEjc) for std::__1::basic_string<char, std::__1::char_traits<char>, std::__1::allocator<char>>::resize(unsigned, char)
    string.cpp.o(.text._ZNSt3__19to_stringEe) refers to __2snprintf.o(.text) for __2snprintf
    string.cpp.o(.ARM.exidx.text._ZNSt3__19to_stringEe) refers (Special) to _printf_d.o(.ARM.Collect$$_printf_percent$$00000009) for _printf_d
    string.cpp.o(.ARM.exidx.text._ZNSt3__19to_stringEe) refers (Special) to _printf_f.o(.ARM.Collect$$_printf_percent$$00000003) for _printf_f
    string.cpp.o(.ARM.exidx.text._ZNSt3__19to_stringEe) refers (Special) to printf1.o(x$fpl$printf1) for _printf_fp_dec
    string.cpp.o(.ARM.exidx.text._ZNSt3__19to_stringEe) refers (Special) to _printf_dec.o(.text) for _printf_int_dec
    string.cpp.o(.ARM.exidx.text._ZNSt3__19to_stringEe) refers (Special) to _printf_lld.o(.ARM.Collect$$_printf_percent$$0000000E) for _printf_lld
    string.cpp.o(.ARM.exidx.text._ZNSt3__19to_stringEe) refers (Special) to _printf_llu.o(.ARM.Collect$$_printf_percent$$0000000F) for _printf_llu
    string.cpp.o(.ARM.exidx.text._ZNSt3__19to_stringEe) refers (Special) to _printf_longlong_dec.o(.text) for _printf_longlong_dec
    string.cpp.o(.ARM.exidx.text._ZNSt3__19to_stringEe) refers (Special) to _printf_percent.o(.ARM.Collect$$_printf_percent$$00000000) for _printf_percent
    string.cpp.o(.ARM.exidx.text._ZNSt3__19to_stringEe) refers (Special) to _printf_s.o(.ARM.Collect$$_printf_percent$$00000014) for _printf_s
    string.cpp.o(.ARM.exidx.text._ZNSt3__19to_stringEe) refers (Special) to _printf_str.o(.text) for _printf_str
    string.cpp.o(.ARM.exidx.text._ZNSt3__19to_stringEe) refers (Special) to _printf_u.o(.ARM.Collect$$_printf_percent$$0000000A) for _printf_u
    string.cpp.o(.ARM.exidx.text._ZNSt3__19to_stringEe) refers to string.cpp.o(.text._ZNSt3__19to_stringEe) for [Anonymous Symbol]
    string.cpp.o(.text._ZNSt3__110to_wstringEi) refers (Special) to _printf_d.o(.ARM.Collect$$_printf_percent$$00000009) for _printf_d
    string.cpp.o(.text._ZNSt3__110to_wstringEi) refers (Special) to _printf_f.o(.ARM.Collect$$_printf_percent$$00000003) for _printf_f
    string.cpp.o(.text._ZNSt3__110to_wstringEi) refers (Special) to printf1.o(x$fpl$printf1) for _printf_fp_dec
    string.cpp.o(.text._ZNSt3__110to_wstringEi) refers (Special) to _printf_dec.o(.text) for _printf_int_dec
    string.cpp.o(.text._ZNSt3__110to_wstringEi) refers (Special) to _printf_lld.o(.ARM.Collect$$_printf_percent$$0000000E) for _printf_lld
    string.cpp.o(.text._ZNSt3__110to_wstringEi) refers (Special) to _printf_llu.o(.ARM.Collect$$_printf_percent$$0000000F) for _printf_llu
    string.cpp.o(.text._ZNSt3__110to_wstringEi) refers (Special) to _printf_longlong_dec.o(.text) for _printf_longlong_dec
    string.cpp.o(.text._ZNSt3__110to_wstringEi) refers (Special) to _printf_percent.o(.ARM.Collect$$_printf_percent$$00000000) for _printf_percent
    string.cpp.o(.text._ZNSt3__110to_wstringEi) refers (Special) to _printf_s.o(.ARM.Collect$$_printf_percent$$00000014) for _printf_s
    string.cpp.o(.text._ZNSt3__110to_wstringEi) refers (Special) to _printf_str.o(.text) for _printf_str
    string.cpp.o(.text._ZNSt3__110to_wstringEi) refers (Special) to _printf_u.o(.ARM.Collect$$_printf_percent$$0000000A) for _printf_u
    string.cpp.o(.text._ZNSt3__110to_wstringEi) refers to new.cpp.o(.text._Znwj) for operator new(unsigned)
    string.cpp.o(.text._ZNSt3__110to_wstringEi) refers to wmemset.o(.text) for wmemset
    string.cpp.o(.text._ZNSt3__110to_wstringEi) refers to string.cpp.o(.text._ZNSt3__112basic_stringIwNS_11char_traitsIwEENS_9allocatorIwEEE6resizeEjw) for std::__1::basic_string<wchar_t, std::__1::char_traits<wchar_t>, std::__1::allocator<wchar_t>>::resize(unsigned, wchar_t)
    string.cpp.o(.text._ZNSt3__110to_wstringEi) refers to __2swprintf.o(.text) for __2swprintf
    string.cpp.o(.ARM.exidx.text._ZNSt3__110to_wstringEi) refers (Special) to _printf_d.o(.ARM.Collect$$_printf_percent$$00000009) for _printf_d
    string.cpp.o(.ARM.exidx.text._ZNSt3__110to_wstringEi) refers (Special) to _printf_f.o(.ARM.Collect$$_printf_percent$$00000003) for _printf_f
    string.cpp.o(.ARM.exidx.text._ZNSt3__110to_wstringEi) refers (Special) to printf1.o(x$fpl$printf1) for _printf_fp_dec
    string.cpp.o(.ARM.exidx.text._ZNSt3__110to_wstringEi) refers (Special) to _printf_dec.o(.text) for _printf_int_dec
    string.cpp.o(.ARM.exidx.text._ZNSt3__110to_wstringEi) refers (Special) to _printf_lld.o(.ARM.Collect$$_printf_percent$$0000000E) for _printf_lld
    string.cpp.o(.ARM.exidx.text._ZNSt3__110to_wstringEi) refers (Special) to _printf_llu.o(.ARM.Collect$$_printf_percent$$0000000F) for _printf_llu
    string.cpp.o(.ARM.exidx.text._ZNSt3__110to_wstringEi) refers (Special) to _printf_longlong_dec.o(.text) for _printf_longlong_dec
    string.cpp.o(.ARM.exidx.text._ZNSt3__110to_wstringEi) refers (Special) to _printf_percent.o(.ARM.Collect$$_printf_percent$$00000000) for _printf_percent
    string.cpp.o(.ARM.exidx.text._ZNSt3__110to_wstringEi) refers (Special) to _printf_s.o(.ARM.Collect$$_printf_percent$$00000014) for _printf_s
    string.cpp.o(.ARM.exidx.text._ZNSt3__110to_wstringEi) refers (Special) to _printf_str.o(.text) for _printf_str
    string.cpp.o(.ARM.exidx.text._ZNSt3__110to_wstringEi) refers (Special) to _printf_u.o(.ARM.Collect$$_printf_percent$$0000000A) for _printf_u
    string.cpp.o(.ARM.exidx.text._ZNSt3__110to_wstringEi) refers to string.cpp.o(.text._ZNSt3__110to_wstringEi) for [Anonymous Symbol]
    string.cpp.o(.text._ZNSt3__110to_wstringEj) refers (Special) to _printf_d.o(.ARM.Collect$$_printf_percent$$00000009) for _printf_d
    string.cpp.o(.text._ZNSt3__110to_wstringEj) refers (Special) to _printf_f.o(.ARM.Collect$$_printf_percent$$00000003) for _printf_f
    string.cpp.o(.text._ZNSt3__110to_wstringEj) refers (Special) to printf1.o(x$fpl$printf1) for _printf_fp_dec
    string.cpp.o(.text._ZNSt3__110to_wstringEj) refers (Special) to _printf_dec.o(.text) for _printf_int_dec
    string.cpp.o(.text._ZNSt3__110to_wstringEj) refers (Special) to _printf_lld.o(.ARM.Collect$$_printf_percent$$0000000E) for _printf_lld
    string.cpp.o(.text._ZNSt3__110to_wstringEj) refers (Special) to _printf_llu.o(.ARM.Collect$$_printf_percent$$0000000F) for _printf_llu
    string.cpp.o(.text._ZNSt3__110to_wstringEj) refers (Special) to _printf_longlong_dec.o(.text) for _printf_longlong_dec
    string.cpp.o(.text._ZNSt3__110to_wstringEj) refers (Special) to _printf_percent.o(.ARM.Collect$$_printf_percent$$00000000) for _printf_percent
    string.cpp.o(.text._ZNSt3__110to_wstringEj) refers (Special) to _printf_s.o(.ARM.Collect$$_printf_percent$$00000014) for _printf_s
    string.cpp.o(.text._ZNSt3__110to_wstringEj) refers (Special) to _printf_str.o(.text) for _printf_str
    string.cpp.o(.text._ZNSt3__110to_wstringEj) refers (Special) to _printf_u.o(.ARM.Collect$$_printf_percent$$0000000A) for _printf_u
    string.cpp.o(.text._ZNSt3__110to_wstringEj) refers to new.cpp.o(.text._Znwj) for operator new(unsigned)
    string.cpp.o(.text._ZNSt3__110to_wstringEj) refers to wmemset.o(.text) for wmemset
    string.cpp.o(.text._ZNSt3__110to_wstringEj) refers to string.cpp.o(.text._ZNSt3__112basic_stringIwNS_11char_traitsIwEENS_9allocatorIwEEE6resizeEjw) for std::__1::basic_string<wchar_t, std::__1::char_traits<wchar_t>, std::__1::allocator<wchar_t>>::resize(unsigned, wchar_t)
    string.cpp.o(.text._ZNSt3__110to_wstringEj) refers to __2swprintf.o(.text) for __2swprintf
    string.cpp.o(.ARM.exidx.text._ZNSt3__110to_wstringEj) refers (Special) to _printf_d.o(.ARM.Collect$$_printf_percent$$00000009) for _printf_d
    string.cpp.o(.ARM.exidx.text._ZNSt3__110to_wstringEj) refers (Special) to _printf_f.o(.ARM.Collect$$_printf_percent$$00000003) for _printf_f
    string.cpp.o(.ARM.exidx.text._ZNSt3__110to_wstringEj) refers (Special) to printf1.o(x$fpl$printf1) for _printf_fp_dec
    string.cpp.o(.ARM.exidx.text._ZNSt3__110to_wstringEj) refers (Special) to _printf_dec.o(.text) for _printf_int_dec
    string.cpp.o(.ARM.exidx.text._ZNSt3__110to_wstringEj) refers (Special) to _printf_lld.o(.ARM.Collect$$_printf_percent$$0000000E) for _printf_lld
    string.cpp.o(.ARM.exidx.text._ZNSt3__110to_wstringEj) refers (Special) to _printf_llu.o(.ARM.Collect$$_printf_percent$$0000000F) for _printf_llu
    string.cpp.o(.ARM.exidx.text._ZNSt3__110to_wstringEj) refers (Special) to _printf_longlong_dec.o(.text) for _printf_longlong_dec
    string.cpp.o(.ARM.exidx.text._ZNSt3__110to_wstringEj) refers (Special) to _printf_percent.o(.ARM.Collect$$_printf_percent$$00000000) for _printf_percent
    string.cpp.o(.ARM.exidx.text._ZNSt3__110to_wstringEj) refers (Special) to _printf_s.o(.ARM.Collect$$_printf_percent$$00000014) for _printf_s
    string.cpp.o(.ARM.exidx.text._ZNSt3__110to_wstringEj) refers (Special) to _printf_str.o(.text) for _printf_str
    string.cpp.o(.ARM.exidx.text._ZNSt3__110to_wstringEj) refers (Special) to _printf_u.o(.ARM.Collect$$_printf_percent$$0000000A) for _printf_u
    string.cpp.o(.ARM.exidx.text._ZNSt3__110to_wstringEj) refers to string.cpp.o(.text._ZNSt3__110to_wstringEj) for [Anonymous Symbol]
    string.cpp.o(.text._ZNSt3__110to_wstringEl) refers (Special) to _printf_d.o(.ARM.Collect$$_printf_percent$$00000009) for _printf_d
    string.cpp.o(.text._ZNSt3__110to_wstringEl) refers (Special) to _printf_f.o(.ARM.Collect$$_printf_percent$$00000003) for _printf_f
    string.cpp.o(.text._ZNSt3__110to_wstringEl) refers (Special) to printf1.o(x$fpl$printf1) for _printf_fp_dec
    string.cpp.o(.text._ZNSt3__110to_wstringEl) refers (Special) to _printf_dec.o(.text) for _printf_int_dec
    string.cpp.o(.text._ZNSt3__110to_wstringEl) refers (Special) to _printf_lld.o(.ARM.Collect$$_printf_percent$$0000000E) for _printf_lld
    string.cpp.o(.text._ZNSt3__110to_wstringEl) refers (Special) to _printf_llu.o(.ARM.Collect$$_printf_percent$$0000000F) for _printf_llu
    string.cpp.o(.text._ZNSt3__110to_wstringEl) refers (Special) to _printf_longlong_dec.o(.text) for _printf_longlong_dec
    string.cpp.o(.text._ZNSt3__110to_wstringEl) refers (Special) to _printf_percent.o(.ARM.Collect$$_printf_percent$$00000000) for _printf_percent
    string.cpp.o(.text._ZNSt3__110to_wstringEl) refers (Special) to _printf_s.o(.ARM.Collect$$_printf_percent$$00000014) for _printf_s
    string.cpp.o(.text._ZNSt3__110to_wstringEl) refers (Special) to _printf_str.o(.text) for _printf_str
    string.cpp.o(.text._ZNSt3__110to_wstringEl) refers (Special) to _printf_u.o(.ARM.Collect$$_printf_percent$$0000000A) for _printf_u
    string.cpp.o(.text._ZNSt3__110to_wstringEl) refers to new.cpp.o(.text._Znwj) for operator new(unsigned)
    string.cpp.o(.text._ZNSt3__110to_wstringEl) refers to wmemset.o(.text) for wmemset
    string.cpp.o(.text._ZNSt3__110to_wstringEl) refers to string.cpp.o(.text._ZNSt3__112basic_stringIwNS_11char_traitsIwEENS_9allocatorIwEEE6resizeEjw) for std::__1::basic_string<wchar_t, std::__1::char_traits<wchar_t>, std::__1::allocator<wchar_t>>::resize(unsigned, wchar_t)
    string.cpp.o(.text._ZNSt3__110to_wstringEl) refers to __2swprintf.o(.text) for __2swprintf
    string.cpp.o(.ARM.exidx.text._ZNSt3__110to_wstringEl) refers (Special) to _printf_d.o(.ARM.Collect$$_printf_percent$$00000009) for _printf_d
    string.cpp.o(.ARM.exidx.text._ZNSt3__110to_wstringEl) refers (Special) to _printf_f.o(.ARM.Collect$$_printf_percent$$00000003) for _printf_f
    string.cpp.o(.ARM.exidx.text._ZNSt3__110to_wstringEl) refers (Special) to printf1.o(x$fpl$printf1) for _printf_fp_dec
    string.cpp.o(.ARM.exidx.text._ZNSt3__110to_wstringEl) refers (Special) to _printf_dec.o(.text) for _printf_int_dec
    string.cpp.o(.ARM.exidx.text._ZNSt3__110to_wstringEl) refers (Special) to _printf_lld.o(.ARM.Collect$$_printf_percent$$0000000E) for _printf_lld
    string.cpp.o(.ARM.exidx.text._ZNSt3__110to_wstringEl) refers (Special) to _printf_llu.o(.ARM.Collect$$_printf_percent$$0000000F) for _printf_llu
    string.cpp.o(.ARM.exidx.text._ZNSt3__110to_wstringEl) refers (Special) to _printf_longlong_dec.o(.text) for _printf_longlong_dec
    string.cpp.o(.ARM.exidx.text._ZNSt3__110to_wstringEl) refers (Special) to _printf_percent.o(.ARM.Collect$$_printf_percent$$00000000) for _printf_percent
    string.cpp.o(.ARM.exidx.text._ZNSt3__110to_wstringEl) refers (Special) to _printf_s.o(.ARM.Collect$$_printf_percent$$00000014) for _printf_s
    string.cpp.o(.ARM.exidx.text._ZNSt3__110to_wstringEl) refers (Special) to _printf_str.o(.text) for _printf_str
    string.cpp.o(.ARM.exidx.text._ZNSt3__110to_wstringEl) refers (Special) to _printf_u.o(.ARM.Collect$$_printf_percent$$0000000A) for _printf_u
    string.cpp.o(.ARM.exidx.text._ZNSt3__110to_wstringEl) refers to string.cpp.o(.text._ZNSt3__110to_wstringEl) for [Anonymous Symbol]
    string.cpp.o(.text._ZNSt3__110to_wstringEm) refers (Special) to _printf_d.o(.ARM.Collect$$_printf_percent$$00000009) for _printf_d
    string.cpp.o(.text._ZNSt3__110to_wstringEm) refers (Special) to _printf_f.o(.ARM.Collect$$_printf_percent$$00000003) for _printf_f
    string.cpp.o(.text._ZNSt3__110to_wstringEm) refers (Special) to printf1.o(x$fpl$printf1) for _printf_fp_dec
    string.cpp.o(.text._ZNSt3__110to_wstringEm) refers (Special) to _printf_dec.o(.text) for _printf_int_dec
    string.cpp.o(.text._ZNSt3__110to_wstringEm) refers (Special) to _printf_lld.o(.ARM.Collect$$_printf_percent$$0000000E) for _printf_lld
    string.cpp.o(.text._ZNSt3__110to_wstringEm) refers (Special) to _printf_llu.o(.ARM.Collect$$_printf_percent$$0000000F) for _printf_llu
    string.cpp.o(.text._ZNSt3__110to_wstringEm) refers (Special) to _printf_longlong_dec.o(.text) for _printf_longlong_dec
    string.cpp.o(.text._ZNSt3__110to_wstringEm) refers (Special) to _printf_percent.o(.ARM.Collect$$_printf_percent$$00000000) for _printf_percent
    string.cpp.o(.text._ZNSt3__110to_wstringEm) refers (Special) to _printf_s.o(.ARM.Collect$$_printf_percent$$00000014) for _printf_s
    string.cpp.o(.text._ZNSt3__110to_wstringEm) refers (Special) to _printf_str.o(.text) for _printf_str
    string.cpp.o(.text._ZNSt3__110to_wstringEm) refers (Special) to _printf_u.o(.ARM.Collect$$_printf_percent$$0000000A) for _printf_u
    string.cpp.o(.text._ZNSt3__110to_wstringEm) refers to new.cpp.o(.text._Znwj) for operator new(unsigned)
    string.cpp.o(.text._ZNSt3__110to_wstringEm) refers to wmemset.o(.text) for wmemset
    string.cpp.o(.text._ZNSt3__110to_wstringEm) refers to string.cpp.o(.text._ZNSt3__112basic_stringIwNS_11char_traitsIwEENS_9allocatorIwEEE6resizeEjw) for std::__1::basic_string<wchar_t, std::__1::char_traits<wchar_t>, std::__1::allocator<wchar_t>>::resize(unsigned, wchar_t)
    string.cpp.o(.text._ZNSt3__110to_wstringEm) refers to __2swprintf.o(.text) for __2swprintf
    string.cpp.o(.ARM.exidx.text._ZNSt3__110to_wstringEm) refers (Special) to _printf_d.o(.ARM.Collect$$_printf_percent$$00000009) for _printf_d
    string.cpp.o(.ARM.exidx.text._ZNSt3__110to_wstringEm) refers (Special) to _printf_f.o(.ARM.Collect$$_printf_percent$$00000003) for _printf_f
    string.cpp.o(.ARM.exidx.text._ZNSt3__110to_wstringEm) refers (Special) to printf1.o(x$fpl$printf1) for _printf_fp_dec
    string.cpp.o(.ARM.exidx.text._ZNSt3__110to_wstringEm) refers (Special) to _printf_dec.o(.text) for _printf_int_dec
    string.cpp.o(.ARM.exidx.text._ZNSt3__110to_wstringEm) refers (Special) to _printf_lld.o(.ARM.Collect$$_printf_percent$$0000000E) for _printf_lld
    string.cpp.o(.ARM.exidx.text._ZNSt3__110to_wstringEm) refers (Special) to _printf_llu.o(.ARM.Collect$$_printf_percent$$0000000F) for _printf_llu
    string.cpp.o(.ARM.exidx.text._ZNSt3__110to_wstringEm) refers (Special) to _printf_longlong_dec.o(.text) for _printf_longlong_dec
    string.cpp.o(.ARM.exidx.text._ZNSt3__110to_wstringEm) refers (Special) to _printf_percent.o(.ARM.Collect$$_printf_percent$$00000000) for _printf_percent
    string.cpp.o(.ARM.exidx.text._ZNSt3__110to_wstringEm) refers (Special) to _printf_s.o(.ARM.Collect$$_printf_percent$$00000014) for _printf_s
    string.cpp.o(.ARM.exidx.text._ZNSt3__110to_wstringEm) refers (Special) to _printf_str.o(.text) for _printf_str
    string.cpp.o(.ARM.exidx.text._ZNSt3__110to_wstringEm) refers (Special) to _printf_u.o(.ARM.Collect$$_printf_percent$$0000000A) for _printf_u
    string.cpp.o(.ARM.exidx.text._ZNSt3__110to_wstringEm) refers to string.cpp.o(.text._ZNSt3__110to_wstringEm) for [Anonymous Symbol]
    string.cpp.o(.text._ZNSt3__110to_wstringEx) refers (Special) to _printf_d.o(.ARM.Collect$$_printf_percent$$00000009) for _printf_d
    string.cpp.o(.text._ZNSt3__110to_wstringEx) refers (Special) to _printf_f.o(.ARM.Collect$$_printf_percent$$00000003) for _printf_f
    string.cpp.o(.text._ZNSt3__110to_wstringEx) refers (Special) to printf1.o(x$fpl$printf1) for _printf_fp_dec
    string.cpp.o(.text._ZNSt3__110to_wstringEx) refers (Special) to _printf_dec.o(.text) for _printf_int_dec
    string.cpp.o(.text._ZNSt3__110to_wstringEx) refers (Special) to _printf_lld.o(.ARM.Collect$$_printf_percent$$0000000E) for _printf_lld
    string.cpp.o(.text._ZNSt3__110to_wstringEx) refers (Special) to _printf_llu.o(.ARM.Collect$$_printf_percent$$0000000F) for _printf_llu
    string.cpp.o(.text._ZNSt3__110to_wstringEx) refers (Special) to _printf_longlong_dec.o(.text) for _printf_longlong_dec
    string.cpp.o(.text._ZNSt3__110to_wstringEx) refers (Special) to _printf_percent.o(.ARM.Collect$$_printf_percent$$00000000) for _printf_percent
    string.cpp.o(.text._ZNSt3__110to_wstringEx) refers (Special) to _printf_s.o(.ARM.Collect$$_printf_percent$$00000014) for _printf_s
    string.cpp.o(.text._ZNSt3__110to_wstringEx) refers (Special) to _printf_str.o(.text) for _printf_str
    string.cpp.o(.text._ZNSt3__110to_wstringEx) refers (Special) to _printf_u.o(.ARM.Collect$$_printf_percent$$0000000A) for _printf_u
    string.cpp.o(.text._ZNSt3__110to_wstringEx) refers to new.cpp.o(.text._Znwj) for operator new(unsigned)
    string.cpp.o(.text._ZNSt3__110to_wstringEx) refers to wmemset.o(.text) for wmemset
    string.cpp.o(.text._ZNSt3__110to_wstringEx) refers to string.cpp.o(.text._ZNSt3__112basic_stringIwNS_11char_traitsIwEENS_9allocatorIwEEE6resizeEjw) for std::__1::basic_string<wchar_t, std::__1::char_traits<wchar_t>, std::__1::allocator<wchar_t>>::resize(unsigned, wchar_t)
    string.cpp.o(.text._ZNSt3__110to_wstringEx) refers to __2swprintf.o(.text) for __2swprintf
    string.cpp.o(.ARM.exidx.text._ZNSt3__110to_wstringEx) refers (Special) to _printf_d.o(.ARM.Collect$$_printf_percent$$00000009) for _printf_d
    string.cpp.o(.ARM.exidx.text._ZNSt3__110to_wstringEx) refers (Special) to _printf_f.o(.ARM.Collect$$_printf_percent$$00000003) for _printf_f
    string.cpp.o(.ARM.exidx.text._ZNSt3__110to_wstringEx) refers (Special) to printf1.o(x$fpl$printf1) for _printf_fp_dec
    string.cpp.o(.ARM.exidx.text._ZNSt3__110to_wstringEx) refers (Special) to _printf_dec.o(.text) for _printf_int_dec
    string.cpp.o(.ARM.exidx.text._ZNSt3__110to_wstringEx) refers (Special) to _printf_lld.o(.ARM.Collect$$_printf_percent$$0000000E) for _printf_lld
    string.cpp.o(.ARM.exidx.text._ZNSt3__110to_wstringEx) refers (Special) to _printf_llu.o(.ARM.Collect$$_printf_percent$$0000000F) for _printf_llu
    string.cpp.o(.ARM.exidx.text._ZNSt3__110to_wstringEx) refers (Special) to _printf_longlong_dec.o(.text) for _printf_longlong_dec
    string.cpp.o(.ARM.exidx.text._ZNSt3__110to_wstringEx) refers (Special) to _printf_percent.o(.ARM.Collect$$_printf_percent$$00000000) for _printf_percent
    string.cpp.o(.ARM.exidx.text._ZNSt3__110to_wstringEx) refers (Special) to _printf_s.o(.ARM.Collect$$_printf_percent$$00000014) for _printf_s
    string.cpp.o(.ARM.exidx.text._ZNSt3__110to_wstringEx) refers (Special) to _printf_str.o(.text) for _printf_str
    string.cpp.o(.ARM.exidx.text._ZNSt3__110to_wstringEx) refers (Special) to _printf_u.o(.ARM.Collect$$_printf_percent$$0000000A) for _printf_u
    string.cpp.o(.ARM.exidx.text._ZNSt3__110to_wstringEx) refers to string.cpp.o(.text._ZNSt3__110to_wstringEx) for [Anonymous Symbol]
    string.cpp.o(.text._ZNSt3__110to_wstringEy) refers (Special) to _printf_d.o(.ARM.Collect$$_printf_percent$$00000009) for _printf_d
    string.cpp.o(.text._ZNSt3__110to_wstringEy) refers (Special) to _printf_f.o(.ARM.Collect$$_printf_percent$$00000003) for _printf_f
    string.cpp.o(.text._ZNSt3__110to_wstringEy) refers (Special) to printf1.o(x$fpl$printf1) for _printf_fp_dec
    string.cpp.o(.text._ZNSt3__110to_wstringEy) refers (Special) to _printf_dec.o(.text) for _printf_int_dec
    string.cpp.o(.text._ZNSt3__110to_wstringEy) refers (Special) to _printf_lld.o(.ARM.Collect$$_printf_percent$$0000000E) for _printf_lld
    string.cpp.o(.text._ZNSt3__110to_wstringEy) refers (Special) to _printf_llu.o(.ARM.Collect$$_printf_percent$$0000000F) for _printf_llu
    string.cpp.o(.text._ZNSt3__110to_wstringEy) refers (Special) to _printf_longlong_dec.o(.text) for _printf_longlong_dec
    string.cpp.o(.text._ZNSt3__110to_wstringEy) refers (Special) to _printf_percent.o(.ARM.Collect$$_printf_percent$$00000000) for _printf_percent
    string.cpp.o(.text._ZNSt3__110to_wstringEy) refers (Special) to _printf_s.o(.ARM.Collect$$_printf_percent$$00000014) for _printf_s
    string.cpp.o(.text._ZNSt3__110to_wstringEy) refers (Special) to _printf_str.o(.text) for _printf_str
    string.cpp.o(.text._ZNSt3__110to_wstringEy) refers (Special) to _printf_u.o(.ARM.Collect$$_printf_percent$$0000000A) for _printf_u
    string.cpp.o(.text._ZNSt3__110to_wstringEy) refers to new.cpp.o(.text._Znwj) for operator new(unsigned)
    string.cpp.o(.text._ZNSt3__110to_wstringEy) refers to wmemset.o(.text) for wmemset
    string.cpp.o(.text._ZNSt3__110to_wstringEy) refers to string.cpp.o(.text._ZNSt3__112basic_stringIwNS_11char_traitsIwEENS_9allocatorIwEEE6resizeEjw) for std::__1::basic_string<wchar_t, std::__1::char_traits<wchar_t>, std::__1::allocator<wchar_t>>::resize(unsigned, wchar_t)
    string.cpp.o(.text._ZNSt3__110to_wstringEy) refers to __2swprintf.o(.text) for __2swprintf
    string.cpp.o(.ARM.exidx.text._ZNSt3__110to_wstringEy) refers (Special) to _printf_d.o(.ARM.Collect$$_printf_percent$$00000009) for _printf_d
    string.cpp.o(.ARM.exidx.text._ZNSt3__110to_wstringEy) refers (Special) to _printf_f.o(.ARM.Collect$$_printf_percent$$00000003) for _printf_f
    string.cpp.o(.ARM.exidx.text._ZNSt3__110to_wstringEy) refers (Special) to printf1.o(x$fpl$printf1) for _printf_fp_dec
    string.cpp.o(.ARM.exidx.text._ZNSt3__110to_wstringEy) refers (Special) to _printf_dec.o(.text) for _printf_int_dec
    string.cpp.o(.ARM.exidx.text._ZNSt3__110to_wstringEy) refers (Special) to _printf_lld.o(.ARM.Collect$$_printf_percent$$0000000E) for _printf_lld
    string.cpp.o(.ARM.exidx.text._ZNSt3__110to_wstringEy) refers (Special) to _printf_llu.o(.ARM.Collect$$_printf_percent$$0000000F) for _printf_llu
    string.cpp.o(.ARM.exidx.text._ZNSt3__110to_wstringEy) refers (Special) to _printf_longlong_dec.o(.text) for _printf_longlong_dec
    string.cpp.o(.ARM.exidx.text._ZNSt3__110to_wstringEy) refers (Special) to _printf_percent.o(.ARM.Collect$$_printf_percent$$00000000) for _printf_percent
    string.cpp.o(.ARM.exidx.text._ZNSt3__110to_wstringEy) refers (Special) to _printf_s.o(.ARM.Collect$$_printf_percent$$00000014) for _printf_s
    string.cpp.o(.ARM.exidx.text._ZNSt3__110to_wstringEy) refers (Special) to _printf_str.o(.text) for _printf_str
    string.cpp.o(.ARM.exidx.text._ZNSt3__110to_wstringEy) refers (Special) to _printf_u.o(.ARM.Collect$$_printf_percent$$0000000A) for _printf_u
    string.cpp.o(.ARM.exidx.text._ZNSt3__110to_wstringEy) refers to string.cpp.o(.text._ZNSt3__110to_wstringEy) for [Anonymous Symbol]
    string.cpp.o(.text._ZNSt3__110to_wstringEf) refers (Special) to _printf_d.o(.ARM.Collect$$_printf_percent$$00000009) for _printf_d
    string.cpp.o(.text._ZNSt3__110to_wstringEf) refers (Special) to _printf_f.o(.ARM.Collect$$_printf_percent$$00000003) for _printf_f
    string.cpp.o(.text._ZNSt3__110to_wstringEf) refers (Special) to printf1.o(x$fpl$printf1) for _printf_fp_dec
    string.cpp.o(.text._ZNSt3__110to_wstringEf) refers (Special) to _printf_dec.o(.text) for _printf_int_dec
    string.cpp.o(.text._ZNSt3__110to_wstringEf) refers (Special) to _printf_lld.o(.ARM.Collect$$_printf_percent$$0000000E) for _printf_lld
    string.cpp.o(.text._ZNSt3__110to_wstringEf) refers (Special) to _printf_llu.o(.ARM.Collect$$_printf_percent$$0000000F) for _printf_llu
    string.cpp.o(.text._ZNSt3__110to_wstringEf) refers (Special) to _printf_longlong_dec.o(.text) for _printf_longlong_dec
    string.cpp.o(.text._ZNSt3__110to_wstringEf) refers (Special) to _printf_percent.o(.ARM.Collect$$_printf_percent$$00000000) for _printf_percent
    string.cpp.o(.text._ZNSt3__110to_wstringEf) refers (Special) to _printf_s.o(.ARM.Collect$$_printf_percent$$00000014) for _printf_s
    string.cpp.o(.text._ZNSt3__110to_wstringEf) refers (Special) to _printf_str.o(.text) for _printf_str
    string.cpp.o(.text._ZNSt3__110to_wstringEf) refers (Special) to _printf_u.o(.ARM.Collect$$_printf_percent$$0000000A) for _printf_u
    string.cpp.o(.text._ZNSt3__110to_wstringEf) refers to new.cpp.o(.text._Znwj) for operator new(unsigned)
    string.cpp.o(.text._ZNSt3__110to_wstringEf) refers to wmemset.o(.text) for wmemset
    string.cpp.o(.text._ZNSt3__110to_wstringEf) refers to string.cpp.o(.text._ZNSt3__112basic_stringIwNS_11char_traitsIwEENS_9allocatorIwEEE6resizeEjw) for std::__1::basic_string<wchar_t, std::__1::char_traits<wchar_t>, std::__1::allocator<wchar_t>>::resize(unsigned, wchar_t)
    string.cpp.o(.text._ZNSt3__110to_wstringEf) refers to f2d.o(x$fpl$f2d) for __aeabi_f2d
    string.cpp.o(.text._ZNSt3__110to_wstringEf) refers to string.cpp.o(.rodata.str4.4) for .L.str.23
    string.cpp.o(.text._ZNSt3__110to_wstringEf) refers to __2swprintf.o(.text) for __2swprintf
    string.cpp.o(.ARM.exidx.text._ZNSt3__110to_wstringEf) refers (Special) to _printf_d.o(.ARM.Collect$$_printf_percent$$00000009) for _printf_d
    string.cpp.o(.ARM.exidx.text._ZNSt3__110to_wstringEf) refers (Special) to _printf_f.o(.ARM.Collect$$_printf_percent$$00000003) for _printf_f
    string.cpp.o(.ARM.exidx.text._ZNSt3__110to_wstringEf) refers (Special) to printf1.o(x$fpl$printf1) for _printf_fp_dec
    string.cpp.o(.ARM.exidx.text._ZNSt3__110to_wstringEf) refers (Special) to _printf_dec.o(.text) for _printf_int_dec
    string.cpp.o(.ARM.exidx.text._ZNSt3__110to_wstringEf) refers (Special) to _printf_lld.o(.ARM.Collect$$_printf_percent$$0000000E) for _printf_lld
    string.cpp.o(.ARM.exidx.text._ZNSt3__110to_wstringEf) refers (Special) to _printf_llu.o(.ARM.Collect$$_printf_percent$$0000000F) for _printf_llu
    string.cpp.o(.ARM.exidx.text._ZNSt3__110to_wstringEf) refers (Special) to _printf_longlong_dec.o(.text) for _printf_longlong_dec
    string.cpp.o(.ARM.exidx.text._ZNSt3__110to_wstringEf) refers (Special) to _printf_percent.o(.ARM.Collect$$_printf_percent$$00000000) for _printf_percent
    string.cpp.o(.ARM.exidx.text._ZNSt3__110to_wstringEf) refers (Special) to _printf_s.o(.ARM.Collect$$_printf_percent$$00000014) for _printf_s
    string.cpp.o(.ARM.exidx.text._ZNSt3__110to_wstringEf) refers (Special) to _printf_str.o(.text) for _printf_str
    string.cpp.o(.ARM.exidx.text._ZNSt3__110to_wstringEf) refers (Special) to _printf_u.o(.ARM.Collect$$_printf_percent$$0000000A) for _printf_u
    string.cpp.o(.ARM.exidx.text._ZNSt3__110to_wstringEf) refers to string.cpp.o(.text._ZNSt3__110to_wstringEf) for [Anonymous Symbol]
    string.cpp.o(.text._ZNSt3__110to_wstringEd) refers (Special) to _printf_d.o(.ARM.Collect$$_printf_percent$$00000009) for _printf_d
    string.cpp.o(.text._ZNSt3__110to_wstringEd) refers (Special) to _printf_f.o(.ARM.Collect$$_printf_percent$$00000003) for _printf_f
    string.cpp.o(.text._ZNSt3__110to_wstringEd) refers (Special) to printf1.o(x$fpl$printf1) for _printf_fp_dec
    string.cpp.o(.text._ZNSt3__110to_wstringEd) refers (Special) to _printf_dec.o(.text) for _printf_int_dec
    string.cpp.o(.text._ZNSt3__110to_wstringEd) refers (Special) to _printf_lld.o(.ARM.Collect$$_printf_percent$$0000000E) for _printf_lld
    string.cpp.o(.text._ZNSt3__110to_wstringEd) refers (Special) to _printf_llu.o(.ARM.Collect$$_printf_percent$$0000000F) for _printf_llu
    string.cpp.o(.text._ZNSt3__110to_wstringEd) refers (Special) to _printf_longlong_dec.o(.text) for _printf_longlong_dec
    string.cpp.o(.text._ZNSt3__110to_wstringEd) refers (Special) to _printf_percent.o(.ARM.Collect$$_printf_percent$$00000000) for _printf_percent
    string.cpp.o(.text._ZNSt3__110to_wstringEd) refers (Special) to _printf_s.o(.ARM.Collect$$_printf_percent$$00000014) for _printf_s
    string.cpp.o(.text._ZNSt3__110to_wstringEd) refers (Special) to _printf_str.o(.text) for _printf_str
    string.cpp.o(.text._ZNSt3__110to_wstringEd) refers (Special) to _printf_u.o(.ARM.Collect$$_printf_percent$$0000000A) for _printf_u
    string.cpp.o(.text._ZNSt3__110to_wstringEd) refers to new.cpp.o(.text._Znwj) for operator new(unsigned)
    string.cpp.o(.text._ZNSt3__110to_wstringEd) refers to wmemset.o(.text) for wmemset
    string.cpp.o(.text._ZNSt3__110to_wstringEd) refers to string.cpp.o(.text._ZNSt3__112basic_stringIwNS_11char_traitsIwEENS_9allocatorIwEEE6resizeEjw) for std::__1::basic_string<wchar_t, std::__1::char_traits<wchar_t>, std::__1::allocator<wchar_t>>::resize(unsigned, wchar_t)
    string.cpp.o(.text._ZNSt3__110to_wstringEd) refers to string.cpp.o(.rodata.str4.4) for .L.str.23
    string.cpp.o(.text._ZNSt3__110to_wstringEd) refers to __2swprintf.o(.text) for __2swprintf
    string.cpp.o(.ARM.exidx.text._ZNSt3__110to_wstringEd) refers (Special) to _printf_d.o(.ARM.Collect$$_printf_percent$$00000009) for _printf_d
    string.cpp.o(.ARM.exidx.text._ZNSt3__110to_wstringEd) refers (Special) to _printf_f.o(.ARM.Collect$$_printf_percent$$00000003) for _printf_f
    string.cpp.o(.ARM.exidx.text._ZNSt3__110to_wstringEd) refers (Special) to printf1.o(x$fpl$printf1) for _printf_fp_dec
    string.cpp.o(.ARM.exidx.text._ZNSt3__110to_wstringEd) refers (Special) to _printf_dec.o(.text) for _printf_int_dec
    string.cpp.o(.ARM.exidx.text._ZNSt3__110to_wstringEd) refers (Special) to _printf_lld.o(.ARM.Collect$$_printf_percent$$0000000E) for _printf_lld
    string.cpp.o(.ARM.exidx.text._ZNSt3__110to_wstringEd) refers (Special) to _printf_llu.o(.ARM.Collect$$_printf_percent$$0000000F) for _printf_llu
    string.cpp.o(.ARM.exidx.text._ZNSt3__110to_wstringEd) refers (Special) to _printf_longlong_dec.o(.text) for _printf_longlong_dec
    string.cpp.o(.ARM.exidx.text._ZNSt3__110to_wstringEd) refers (Special) to _printf_percent.o(.ARM.Collect$$_printf_percent$$00000000) for _printf_percent
    string.cpp.o(.ARM.exidx.text._ZNSt3__110to_wstringEd) refers (Special) to _printf_s.o(.ARM.Collect$$_printf_percent$$00000014) for _printf_s
    string.cpp.o(.ARM.exidx.text._ZNSt3__110to_wstringEd) refers (Special) to _printf_str.o(.text) for _printf_str
    string.cpp.o(.ARM.exidx.text._ZNSt3__110to_wstringEd) refers (Special) to _printf_u.o(.ARM.Collect$$_printf_percent$$0000000A) for _printf_u
    string.cpp.o(.ARM.exidx.text._ZNSt3__110to_wstringEd) refers to string.cpp.o(.text._ZNSt3__110to_wstringEd) for [Anonymous Symbol]
    string.cpp.o(.text._ZNSt3__110to_wstringEe) refers (Special) to _printf_d.o(.ARM.Collect$$_printf_percent$$00000009) for _printf_d
    string.cpp.o(.text._ZNSt3__110to_wstringEe) refers (Special) to _printf_f.o(.ARM.Collect$$_printf_percent$$00000003) for _printf_f
    string.cpp.o(.text._ZNSt3__110to_wstringEe) refers (Special) to printf1.o(x$fpl$printf1) for _printf_fp_dec
    string.cpp.o(.text._ZNSt3__110to_wstringEe) refers (Special) to _printf_dec.o(.text) for _printf_int_dec
    string.cpp.o(.text._ZNSt3__110to_wstringEe) refers (Special) to _printf_lld.o(.ARM.Collect$$_printf_percent$$0000000E) for _printf_lld
    string.cpp.o(.text._ZNSt3__110to_wstringEe) refers (Special) to _printf_llu.o(.ARM.Collect$$_printf_percent$$0000000F) for _printf_llu
    string.cpp.o(.text._ZNSt3__110to_wstringEe) refers (Special) to _printf_longlong_dec.o(.text) for _printf_longlong_dec
    string.cpp.o(.text._ZNSt3__110to_wstringEe) refers (Special) to _printf_percent.o(.ARM.Collect$$_printf_percent$$00000000) for _printf_percent
    string.cpp.o(.text._ZNSt3__110to_wstringEe) refers (Special) to _printf_s.o(.ARM.Collect$$_printf_percent$$00000014) for _printf_s
    string.cpp.o(.text._ZNSt3__110to_wstringEe) refers (Special) to _printf_str.o(.text) for _printf_str
    string.cpp.o(.text._ZNSt3__110to_wstringEe) refers (Special) to _printf_u.o(.ARM.Collect$$_printf_percent$$0000000A) for _printf_u
    string.cpp.o(.text._ZNSt3__110to_wstringEe) refers to new.cpp.o(.text._Znwj) for operator new(unsigned)
    string.cpp.o(.text._ZNSt3__110to_wstringEe) refers to wmemset.o(.text) for wmemset
    string.cpp.o(.text._ZNSt3__110to_wstringEe) refers to string.cpp.o(.text._ZNSt3__112basic_stringIwNS_11char_traitsIwEENS_9allocatorIwEEE6resizeEjw) for std::__1::basic_string<wchar_t, std::__1::char_traits<wchar_t>, std::__1::allocator<wchar_t>>::resize(unsigned, wchar_t)
    string.cpp.o(.text._ZNSt3__110to_wstringEe) refers to __2swprintf.o(.text) for __2swprintf
    string.cpp.o(.ARM.exidx.text._ZNSt3__110to_wstringEe) refers (Special) to _printf_d.o(.ARM.Collect$$_printf_percent$$00000009) for _printf_d
    string.cpp.o(.ARM.exidx.text._ZNSt3__110to_wstringEe) refers (Special) to _printf_f.o(.ARM.Collect$$_printf_percent$$00000003) for _printf_f
    string.cpp.o(.ARM.exidx.text._ZNSt3__110to_wstringEe) refers (Special) to printf1.o(x$fpl$printf1) for _printf_fp_dec
    string.cpp.o(.ARM.exidx.text._ZNSt3__110to_wstringEe) refers (Special) to _printf_dec.o(.text) for _printf_int_dec
    string.cpp.o(.ARM.exidx.text._ZNSt3__110to_wstringEe) refers (Special) to _printf_lld.o(.ARM.Collect$$_printf_percent$$0000000E) for _printf_lld
    string.cpp.o(.ARM.exidx.text._ZNSt3__110to_wstringEe) refers (Special) to _printf_llu.o(.ARM.Collect$$_printf_percent$$0000000F) for _printf_llu
    string.cpp.o(.ARM.exidx.text._ZNSt3__110to_wstringEe) refers (Special) to _printf_longlong_dec.o(.text) for _printf_longlong_dec
    string.cpp.o(.ARM.exidx.text._ZNSt3__110to_wstringEe) refers (Special) to _printf_percent.o(.ARM.Collect$$_printf_percent$$00000000) for _printf_percent
    string.cpp.o(.ARM.exidx.text._ZNSt3__110to_wstringEe) refers (Special) to _printf_s.o(.ARM.Collect$$_printf_percent$$00000014) for _printf_s
    string.cpp.o(.ARM.exidx.text._ZNSt3__110to_wstringEe) refers (Special) to _printf_str.o(.text) for _printf_str
    string.cpp.o(.ARM.exidx.text._ZNSt3__110to_wstringEe) refers (Special) to _printf_u.o(.ARM.Collect$$_printf_percent$$0000000A) for _printf_u
    string.cpp.o(.ARM.exidx.text._ZNSt3__110to_wstringEe) refers to string.cpp.o(.text._ZNSt3__110to_wstringEe) for [Anonymous Symbol]
    string.cpp.o(.text._ZNSt3__112_GLOBAL__N_130throw_from_string_out_of_rangeERKNS_12basic_stringIcNS_11char_traitsIcEENS_9allocatorIcEEEE) refers (Special) to _printf_d.o(.ARM.Collect$$_printf_percent$$00000009) for _printf_d
    string.cpp.o(.text._ZNSt3__112_GLOBAL__N_130throw_from_string_out_of_rangeERKNS_12basic_stringIcNS_11char_traitsIcEENS_9allocatorIcEEEE) refers (Special) to _printf_f.o(.ARM.Collect$$_printf_percent$$00000003) for _printf_f
    string.cpp.o(.text._ZNSt3__112_GLOBAL__N_130throw_from_string_out_of_rangeERKNS_12basic_stringIcNS_11char_traitsIcEENS_9allocatorIcEEEE) refers (Special) to printf1.o(x$fpl$printf1) for _printf_fp_dec
    string.cpp.o(.text._ZNSt3__112_GLOBAL__N_130throw_from_string_out_of_rangeERKNS_12basic_stringIcNS_11char_traitsIcEENS_9allocatorIcEEEE) refers (Special) to _printf_dec.o(.text) for _printf_int_dec
    string.cpp.o(.text._ZNSt3__112_GLOBAL__N_130throw_from_string_out_of_rangeERKNS_12basic_stringIcNS_11char_traitsIcEENS_9allocatorIcEEEE) refers (Special) to _printf_lld.o(.ARM.Collect$$_printf_percent$$0000000E) for _printf_lld
    string.cpp.o(.text._ZNSt3__112_GLOBAL__N_130throw_from_string_out_of_rangeERKNS_12basic_stringIcNS_11char_traitsIcEENS_9allocatorIcEEEE) refers (Special) to _printf_llu.o(.ARM.Collect$$_printf_percent$$0000000F) for _printf_llu
    string.cpp.o(.text._ZNSt3__112_GLOBAL__N_130throw_from_string_out_of_rangeERKNS_12basic_stringIcNS_11char_traitsIcEENS_9allocatorIcEEEE) refers (Special) to _printf_longlong_dec.o(.text) for _printf_longlong_dec
    string.cpp.o(.text._ZNSt3__112_GLOBAL__N_130throw_from_string_out_of_rangeERKNS_12basic_stringIcNS_11char_traitsIcEENS_9allocatorIcEEEE) refers (Special) to _printf_percent.o(.ARM.Collect$$_printf_percent$$00000000) for _printf_percent
    string.cpp.o(.text._ZNSt3__112_GLOBAL__N_130throw_from_string_out_of_rangeERKNS_12basic_stringIcNS_11char_traitsIcEENS_9allocatorIcEEEE) refers (Special) to _printf_s.o(.ARM.Collect$$_printf_percent$$00000014) for _printf_s
    string.cpp.o(.text._ZNSt3__112_GLOBAL__N_130throw_from_string_out_of_rangeERKNS_12basic_stringIcNS_11char_traitsIcEENS_9allocatorIcEEEE) refers (Special) to _printf_str.o(.text) for _printf_str
    string.cpp.o(.text._ZNSt3__112_GLOBAL__N_130throw_from_string_out_of_rangeERKNS_12basic_stringIcNS_11char_traitsIcEENS_9allocatorIcEEEE) refers (Special) to _printf_u.o(.ARM.Collect$$_printf_percent$$0000000A) for _printf_u
    string.cpp.o(.text._ZNSt3__112_GLOBAL__N_130throw_from_string_out_of_rangeERKNS_12basic_stringIcNS_11char_traitsIcEENS_9allocatorIcEEEE) refers to abort.o(.text) for abort
    string.cpp.o(.text._ZNSt3__112_GLOBAL__N_130throw_from_string_out_of_rangeERKNS_12basic_stringIcNS_11char_traitsIcEENS_9allocatorIcEEEE) refers to new.cpp.o(.text._Znwj) for operator new(unsigned)
    string.cpp.o(.text._ZNSt3__112_GLOBAL__N_130throw_from_string_out_of_rangeERKNS_12basic_stringIcNS_11char_traitsIcEENS_9allocatorIcEEEE) refers to rt_memcpy_v6.o(.text) for __aeabi_memcpy
    string.cpp.o(.text._ZNSt3__112_GLOBAL__N_130throw_from_string_out_of_rangeERKNS_12basic_stringIcNS_11char_traitsIcEENS_9allocatorIcEEEE) refers to string.cpp.o(.text._ZNSt3__112basic_stringIcNS_11char_traitsIcEENS_9allocatorIcEEE6appendEPKcj) for std::__1::basic_string<char, std::__1::char_traits<char>, std::__1::allocator<char>>::append(const char*, unsigned)
    string.cpp.o(.text._ZNSt3__112_GLOBAL__N_130throw_from_string_out_of_rangeERKNS_12basic_stringIcNS_11char_traitsIcEENS_9allocatorIcEEEE) refers to string.cpp.o(.text._ZNSt3__112_GLOBAL__N_112throw_helperISt12out_of_rangeEEvRKNS_12basic_stringIcNS_11char_traitsIcEENS_9allocatorIcEEEE) for void std::__1::<unnamed namespace 1>::throw_helper<std::out_of_range>(const std::__1::basic_string<char, std::__1::char_traits<char>, std::__1::allocator<char>>&)
    string.cpp.o(.ARM.exidx.text._ZNSt3__112_GLOBAL__N_130throw_from_string_out_of_rangeERKNS_12basic_stringIcNS_11char_traitsIcEENS_9allocatorIcEEEE) refers (Special) to _printf_d.o(.ARM.Collect$$_printf_percent$$00000009) for _printf_d
    string.cpp.o(.ARM.exidx.text._ZNSt3__112_GLOBAL__N_130throw_from_string_out_of_rangeERKNS_12basic_stringIcNS_11char_traitsIcEENS_9allocatorIcEEEE) refers (Special) to _printf_f.o(.ARM.Collect$$_printf_percent$$00000003) for _printf_f
    string.cpp.o(.ARM.exidx.text._ZNSt3__112_GLOBAL__N_130throw_from_string_out_of_rangeERKNS_12basic_stringIcNS_11char_traitsIcEENS_9allocatorIcEEEE) refers (Special) to printf1.o(x$fpl$printf1) for _printf_fp_dec
    string.cpp.o(.ARM.exidx.text._ZNSt3__112_GLOBAL__N_130throw_from_string_out_of_rangeERKNS_12basic_stringIcNS_11char_traitsIcEENS_9allocatorIcEEEE) refers (Special) to _printf_dec.o(.text) for _printf_int_dec
    string.cpp.o(.ARM.exidx.text._ZNSt3__112_GLOBAL__N_130throw_from_string_out_of_rangeERKNS_12basic_stringIcNS_11char_traitsIcEENS_9allocatorIcEEEE) refers (Special) to _printf_lld.o(.ARM.Collect$$_printf_percent$$0000000E) for _printf_lld
    string.cpp.o(.ARM.exidx.text._ZNSt3__112_GLOBAL__N_130throw_from_string_out_of_rangeERKNS_12basic_stringIcNS_11char_traitsIcEENS_9allocatorIcEEEE) refers (Special) to _printf_llu.o(.ARM.Collect$$_printf_percent$$0000000F) for _printf_llu
    string.cpp.o(.ARM.exidx.text._ZNSt3__112_GLOBAL__N_130throw_from_string_out_of_rangeERKNS_12basic_stringIcNS_11char_traitsIcEENS_9allocatorIcEEEE) refers (Special) to _printf_longlong_dec.o(.text) for _printf_longlong_dec
    string.cpp.o(.ARM.exidx.text._ZNSt3__112_GLOBAL__N_130throw_from_string_out_of_rangeERKNS_12basic_stringIcNS_11char_traitsIcEENS_9allocatorIcEEEE) refers (Special) to _printf_percent.o(.ARM.Collect$$_printf_percent$$00000000) for _printf_percent
    string.cpp.o(.ARM.exidx.text._ZNSt3__112_GLOBAL__N_130throw_from_string_out_of_rangeERKNS_12basic_stringIcNS_11char_traitsIcEENS_9allocatorIcEEEE) refers (Special) to _printf_s.o(.ARM.Collect$$_printf_percent$$00000014) for _printf_s
    string.cpp.o(.ARM.exidx.text._ZNSt3__112_GLOBAL__N_130throw_from_string_out_of_rangeERKNS_12basic_stringIcNS_11char_traitsIcEENS_9allocatorIcEEEE) refers (Special) to _printf_str.o(.text) for _printf_str
    string.cpp.o(.ARM.exidx.text._ZNSt3__112_GLOBAL__N_130throw_from_string_out_of_rangeERKNS_12basic_stringIcNS_11char_traitsIcEENS_9allocatorIcEEEE) refers (Special) to _printf_u.o(.ARM.Collect$$_printf_percent$$0000000A) for _printf_u
    string.cpp.o(.ARM.exidx.text._ZNSt3__112_GLOBAL__N_130throw_from_string_out_of_rangeERKNS_12basic_stringIcNS_11char_traitsIcEENS_9allocatorIcEEEE) refers to string.cpp.o(.text._ZNSt3__112_GLOBAL__N_130throw_from_string_out_of_rangeERKNS_12basic_stringIcNS_11char_traitsIcEENS_9allocatorIcEEEE) for [Anonymous Symbol]
    string.cpp.o(.text._ZNSt3__112_GLOBAL__N_129throw_from_string_invalid_argERKNS_12basic_stringIcNS_11char_traitsIcEENS_9allocatorIcEEEE) refers (Special) to _printf_d.o(.ARM.Collect$$_printf_percent$$00000009) for _printf_d
    string.cpp.o(.text._ZNSt3__112_GLOBAL__N_129throw_from_string_invalid_argERKNS_12basic_stringIcNS_11char_traitsIcEENS_9allocatorIcEEEE) refers (Special) to _printf_f.o(.ARM.Collect$$_printf_percent$$00000003) for _printf_f
    string.cpp.o(.text._ZNSt3__112_GLOBAL__N_129throw_from_string_invalid_argERKNS_12basic_stringIcNS_11char_traitsIcEENS_9allocatorIcEEEE) refers (Special) to printf1.o(x$fpl$printf1) for _printf_fp_dec
    string.cpp.o(.text._ZNSt3__112_GLOBAL__N_129throw_from_string_invalid_argERKNS_12basic_stringIcNS_11char_traitsIcEENS_9allocatorIcEEEE) refers (Special) to _printf_dec.o(.text) for _printf_int_dec
    string.cpp.o(.text._ZNSt3__112_GLOBAL__N_129throw_from_string_invalid_argERKNS_12basic_stringIcNS_11char_traitsIcEENS_9allocatorIcEEEE) refers (Special) to _printf_lld.o(.ARM.Collect$$_printf_percent$$0000000E) for _printf_lld
    string.cpp.o(.text._ZNSt3__112_GLOBAL__N_129throw_from_string_invalid_argERKNS_12basic_stringIcNS_11char_traitsIcEENS_9allocatorIcEEEE) refers (Special) to _printf_llu.o(.ARM.Collect$$_printf_percent$$0000000F) for _printf_llu
    string.cpp.o(.text._ZNSt3__112_GLOBAL__N_129throw_from_string_invalid_argERKNS_12basic_stringIcNS_11char_traitsIcEENS_9allocatorIcEEEE) refers (Special) to _printf_longlong_dec.o(.text) for _printf_longlong_dec
    string.cpp.o(.text._ZNSt3__112_GLOBAL__N_129throw_from_string_invalid_argERKNS_12basic_stringIcNS_11char_traitsIcEENS_9allocatorIcEEEE) refers (Special) to _printf_percent.o(.ARM.Collect$$_printf_percent$$00000000) for _printf_percent
    string.cpp.o(.text._ZNSt3__112_GLOBAL__N_129throw_from_string_invalid_argERKNS_12basic_stringIcNS_11char_traitsIcEENS_9allocatorIcEEEE) refers (Special) to _printf_s.o(.ARM.Collect$$_printf_percent$$00000014) for _printf_s
    string.cpp.o(.text._ZNSt3__112_GLOBAL__N_129throw_from_string_invalid_argERKNS_12basic_stringIcNS_11char_traitsIcEENS_9allocatorIcEEEE) refers (Special) to _printf_str.o(.text) for _printf_str
    string.cpp.o(.text._ZNSt3__112_GLOBAL__N_129throw_from_string_invalid_argERKNS_12basic_stringIcNS_11char_traitsIcEENS_9allocatorIcEEEE) refers (Special) to _printf_u.o(.ARM.Collect$$_printf_percent$$0000000A) for _printf_u
    string.cpp.o(.text._ZNSt3__112_GLOBAL__N_129throw_from_string_invalid_argERKNS_12basic_stringIcNS_11char_traitsIcEENS_9allocatorIcEEEE) refers to abort.o(.text) for abort
    string.cpp.o(.text._ZNSt3__112_GLOBAL__N_129throw_from_string_invalid_argERKNS_12basic_stringIcNS_11char_traitsIcEENS_9allocatorIcEEEE) refers to new.cpp.o(.text._Znwj) for operator new(unsigned)
    string.cpp.o(.text._ZNSt3__112_GLOBAL__N_129throw_from_string_invalid_argERKNS_12basic_stringIcNS_11char_traitsIcEENS_9allocatorIcEEEE) refers to rt_memcpy_v6.o(.text) for __aeabi_memcpy
    string.cpp.o(.text._ZNSt3__112_GLOBAL__N_129throw_from_string_invalid_argERKNS_12basic_stringIcNS_11char_traitsIcEENS_9allocatorIcEEEE) refers to string.cpp.o(.text._ZNSt3__112basic_stringIcNS_11char_traitsIcEENS_9allocatorIcEEE6appendEPKcj) for std::__1::basic_string<char, std::__1::char_traits<char>, std::__1::allocator<char>>::append(const char*, unsigned)
    string.cpp.o(.text._ZNSt3__112_GLOBAL__N_129throw_from_string_invalid_argERKNS_12basic_stringIcNS_11char_traitsIcEENS_9allocatorIcEEEE) refers to string.cpp.o(.text._ZNSt3__112_GLOBAL__N_112throw_helperISt16invalid_argumentEEvRKNS_12basic_stringIcNS_11char_traitsIcEENS_9allocatorIcEEEE) for void std::__1::<unnamed namespace 1>::throw_helper<std::invalid_argument>(const std::__1::basic_string<char, std::__1::char_traits<char>, std::__1::allocator<char>>&)
    string.cpp.o(.ARM.exidx.text._ZNSt3__112_GLOBAL__N_129throw_from_string_invalid_argERKNS_12basic_stringIcNS_11char_traitsIcEENS_9allocatorIcEEEE) refers (Special) to _printf_d.o(.ARM.Collect$$_printf_percent$$00000009) for _printf_d
    string.cpp.o(.ARM.exidx.text._ZNSt3__112_GLOBAL__N_129throw_from_string_invalid_argERKNS_12basic_stringIcNS_11char_traitsIcEENS_9allocatorIcEEEE) refers (Special) to _printf_f.o(.ARM.Collect$$_printf_percent$$00000003) for _printf_f
    string.cpp.o(.ARM.exidx.text._ZNSt3__112_GLOBAL__N_129throw_from_string_invalid_argERKNS_12basic_stringIcNS_11char_traitsIcEENS_9allocatorIcEEEE) refers (Special) to printf1.o(x$fpl$printf1) for _printf_fp_dec
    string.cpp.o(.ARM.exidx.text._ZNSt3__112_GLOBAL__N_129throw_from_string_invalid_argERKNS_12basic_stringIcNS_11char_traitsIcEENS_9allocatorIcEEEE) refers (Special) to _printf_dec.o(.text) for _printf_int_dec
    string.cpp.o(.ARM.exidx.text._ZNSt3__112_GLOBAL__N_129throw_from_string_invalid_argERKNS_12basic_stringIcNS_11char_traitsIcEENS_9allocatorIcEEEE) refers (Special) to _printf_lld.o(.ARM.Collect$$_printf_percent$$0000000E) for _printf_lld
    string.cpp.o(.ARM.exidx.text._ZNSt3__112_GLOBAL__N_129throw_from_string_invalid_argERKNS_12basic_stringIcNS_11char_traitsIcEENS_9allocatorIcEEEE) refers (Special) to _printf_llu.o(.ARM.Collect$$_printf_percent$$0000000F) for _printf_llu
    string.cpp.o(.ARM.exidx.text._ZNSt3__112_GLOBAL__N_129throw_from_string_invalid_argERKNS_12basic_stringIcNS_11char_traitsIcEENS_9allocatorIcEEEE) refers (Special) to _printf_longlong_dec.o(.text) for _printf_longlong_dec
    string.cpp.o(.ARM.exidx.text._ZNSt3__112_GLOBAL__N_129throw_from_string_invalid_argERKNS_12basic_stringIcNS_11char_traitsIcEENS_9allocatorIcEEEE) refers (Special) to _printf_percent.o(.ARM.Collect$$_printf_percent$$00000000) for _printf_percent
    string.cpp.o(.ARM.exidx.text._ZNSt3__112_GLOBAL__N_129throw_from_string_invalid_argERKNS_12basic_stringIcNS_11char_traitsIcEENS_9allocatorIcEEEE) refers (Special) to _printf_s.o(.ARM.Collect$$_printf_percent$$00000014) for _printf_s
    string.cpp.o(.ARM.exidx.text._ZNSt3__112_GLOBAL__N_129throw_from_string_invalid_argERKNS_12basic_stringIcNS_11char_traitsIcEENS_9allocatorIcEEEE) refers (Special) to _printf_str.o(.text) for _printf_str
    string.cpp.o(.ARM.exidx.text._ZNSt3__112_GLOBAL__N_129throw_from_string_invalid_argERKNS_12basic_stringIcNS_11char_traitsIcEENS_9allocatorIcEEEE) refers (Special) to _printf_u.o(.ARM.Collect$$_printf_percent$$0000000A) for _printf_u
    string.cpp.o(.ARM.exidx.text._ZNSt3__112_GLOBAL__N_129throw_from_string_invalid_argERKNS_12basic_stringIcNS_11char_traitsIcEENS_9allocatorIcEEEE) refers to string.cpp.o(.text._ZNSt3__112_GLOBAL__N_129throw_from_string_invalid_argERKNS_12basic_stringIcNS_11char_traitsIcEENS_9allocatorIcEEEE) for [Anonymous Symbol]
    string.cpp.o(.text._ZNSt3__112_GLOBAL__N_112throw_helperISt16invalid_argumentEEvRKNS_12basic_stringIcNS_11char_traitsIcEENS_9allocatorIcEEEE) refers (Special) to _printf_d.o(.ARM.Collect$$_printf_percent$$00000009) for _printf_d
    string.cpp.o(.text._ZNSt3__112_GLOBAL__N_112throw_helperISt16invalid_argumentEEvRKNS_12basic_stringIcNS_11char_traitsIcEENS_9allocatorIcEEEE) refers (Special) to _printf_f.o(.ARM.Collect$$_printf_percent$$00000003) for _printf_f
    string.cpp.o(.text._ZNSt3__112_GLOBAL__N_112throw_helperISt16invalid_argumentEEvRKNS_12basic_stringIcNS_11char_traitsIcEENS_9allocatorIcEEEE) refers (Special) to printf1.o(x$fpl$printf1) for _printf_fp_dec
    string.cpp.o(.text._ZNSt3__112_GLOBAL__N_112throw_helperISt16invalid_argumentEEvRKNS_12basic_stringIcNS_11char_traitsIcEENS_9allocatorIcEEEE) refers (Special) to _printf_dec.o(.text) for _printf_int_dec
    string.cpp.o(.text._ZNSt3__112_GLOBAL__N_112throw_helperISt16invalid_argumentEEvRKNS_12basic_stringIcNS_11char_traitsIcEENS_9allocatorIcEEEE) refers (Special) to _printf_lld.o(.ARM.Collect$$_printf_percent$$0000000E) for _printf_lld
    string.cpp.o(.text._ZNSt3__112_GLOBAL__N_112throw_helperISt16invalid_argumentEEvRKNS_12basic_stringIcNS_11char_traitsIcEENS_9allocatorIcEEEE) refers (Special) to _printf_llu.o(.ARM.Collect$$_printf_percent$$0000000F) for _printf_llu
    string.cpp.o(.text._ZNSt3__112_GLOBAL__N_112throw_helperISt16invalid_argumentEEvRKNS_12basic_stringIcNS_11char_traitsIcEENS_9allocatorIcEEEE) refers (Special) to _printf_longlong_dec.o(.text) for _printf_longlong_dec
    string.cpp.o(.text._ZNSt3__112_GLOBAL__N_112throw_helperISt16invalid_argumentEEvRKNS_12basic_stringIcNS_11char_traitsIcEENS_9allocatorIcEEEE) refers (Special) to _printf_percent.o(.ARM.Collect$$_printf_percent$$00000000) for _printf_percent
    string.cpp.o(.text._ZNSt3__112_GLOBAL__N_112throw_helperISt16invalid_argumentEEvRKNS_12basic_stringIcNS_11char_traitsIcEENS_9allocatorIcEEEE) refers (Special) to _printf_s.o(.ARM.Collect$$_printf_percent$$00000014) for _printf_s
    string.cpp.o(.text._ZNSt3__112_GLOBAL__N_112throw_helperISt16invalid_argumentEEvRKNS_12basic_stringIcNS_11char_traitsIcEENS_9allocatorIcEEEE) refers (Special) to _printf_str.o(.text) for _printf_str
    string.cpp.o(.text._ZNSt3__112_GLOBAL__N_112throw_helperISt16invalid_argumentEEvRKNS_12basic_stringIcNS_11char_traitsIcEENS_9allocatorIcEEEE) refers (Special) to _printf_u.o(.ARM.Collect$$_printf_percent$$0000000A) for _printf_u
    string.cpp.o(.text._ZNSt3__112_GLOBAL__N_112throw_helperISt16invalid_argumentEEvRKNS_12basic_stringIcNS_11char_traitsIcEENS_9allocatorIcEEEE) refers to stdio_streams.o(.bss) for __stderr
    string.cpp.o(.text._ZNSt3__112_GLOBAL__N_112throw_helperISt16invalid_argumentEEvRKNS_12basic_stringIcNS_11char_traitsIcEENS_9allocatorIcEEEE) refers to string.cpp.o(.rodata.str1.1) for .L.str.26
    string.cpp.o(.text._ZNSt3__112_GLOBAL__N_112throw_helperISt16invalid_argumentEEvRKNS_12basic_stringIcNS_11char_traitsIcEENS_9allocatorIcEEEE) refers to __2fprintf.o(.text) for __2fprintf
    string.cpp.o(.text._ZNSt3__112_GLOBAL__N_112throw_helperISt16invalid_argumentEEvRKNS_12basic_stringIcNS_11char_traitsIcEENS_9allocatorIcEEEE) refers to abort.o(.text) for abort
    string.cpp.o(.ARM.exidx.text._ZNSt3__112_GLOBAL__N_112throw_helperISt16invalid_argumentEEvRKNS_12basic_stringIcNS_11char_traitsIcEENS_9allocatorIcEEEE) refers (Special) to _printf_d.o(.ARM.Collect$$_printf_percent$$00000009) for _printf_d
    string.cpp.o(.ARM.exidx.text._ZNSt3__112_GLOBAL__N_112throw_helperISt16invalid_argumentEEvRKNS_12basic_stringIcNS_11char_traitsIcEENS_9allocatorIcEEEE) refers (Special) to _printf_f.o(.ARM.Collect$$_printf_percent$$00000003) for _printf_f
    string.cpp.o(.ARM.exidx.text._ZNSt3__112_GLOBAL__N_112throw_helperISt16invalid_argumentEEvRKNS_12basic_stringIcNS_11char_traitsIcEENS_9allocatorIcEEEE) refers (Special) to printf1.o(x$fpl$printf1) for _printf_fp_dec
    string.cpp.o(.ARM.exidx.text._ZNSt3__112_GLOBAL__N_112throw_helperISt16invalid_argumentEEvRKNS_12basic_stringIcNS_11char_traitsIcEENS_9allocatorIcEEEE) refers (Special) to _printf_dec.o(.text) for _printf_int_dec
    string.cpp.o(.ARM.exidx.text._ZNSt3__112_GLOBAL__N_112throw_helperISt16invalid_argumentEEvRKNS_12basic_stringIcNS_11char_traitsIcEENS_9allocatorIcEEEE) refers (Special) to _printf_lld.o(.ARM.Collect$$_printf_percent$$0000000E) for _printf_lld
    string.cpp.o(.ARM.exidx.text._ZNSt3__112_GLOBAL__N_112throw_helperISt16invalid_argumentEEvRKNS_12basic_stringIcNS_11char_traitsIcEENS_9allocatorIcEEEE) refers (Special) to _printf_llu.o(.ARM.Collect$$_printf_percent$$0000000F) for _printf_llu
    string.cpp.o(.ARM.exidx.text._ZNSt3__112_GLOBAL__N_112throw_helperISt16invalid_argumentEEvRKNS_12basic_stringIcNS_11char_traitsIcEENS_9allocatorIcEEEE) refers (Special) to _printf_longlong_dec.o(.text) for _printf_longlong_dec
    string.cpp.o(.ARM.exidx.text._ZNSt3__112_GLOBAL__N_112throw_helperISt16invalid_argumentEEvRKNS_12basic_stringIcNS_11char_traitsIcEENS_9allocatorIcEEEE) refers (Special) to _printf_percent.o(.ARM.Collect$$_printf_percent$$00000000) for _printf_percent
    string.cpp.o(.ARM.exidx.text._ZNSt3__112_GLOBAL__N_112throw_helperISt16invalid_argumentEEvRKNS_12basic_stringIcNS_11char_traitsIcEENS_9allocatorIcEEEE) refers (Special) to _printf_s.o(.ARM.Collect$$_printf_percent$$00000014) for _printf_s
    string.cpp.o(.ARM.exidx.text._ZNSt3__112_GLOBAL__N_112throw_helperISt16invalid_argumentEEvRKNS_12basic_stringIcNS_11char_traitsIcEENS_9allocatorIcEEEE) refers (Special) to _printf_str.o(.text) for _printf_str
    string.cpp.o(.ARM.exidx.text._ZNSt3__112_GLOBAL__N_112throw_helperISt16invalid_argumentEEvRKNS_12basic_stringIcNS_11char_traitsIcEENS_9allocatorIcEEEE) refers (Special) to _printf_u.o(.ARM.Collect$$_printf_percent$$0000000A) for _printf_u
    string.cpp.o(.ARM.exidx.text._ZNSt3__112_GLOBAL__N_112throw_helperISt16invalid_argumentEEvRKNS_12basic_stringIcNS_11char_traitsIcEENS_9allocatorIcEEEE) refers to string.cpp.o(.text._ZNSt3__112_GLOBAL__N_112throw_helperISt16invalid_argumentEEvRKNS_12basic_stringIcNS_11char_traitsIcEENS_9allocatorIcEEEE) for [Anonymous Symbol]
    string.cpp.o(.text._ZNSt3__112_GLOBAL__N_112throw_helperISt12out_of_rangeEEvRKNS_12basic_stringIcNS_11char_traitsIcEENS_9allocatorIcEEEE) refers (Special) to _printf_d.o(.ARM.Collect$$_printf_percent$$00000009) for _printf_d
    string.cpp.o(.text._ZNSt3__112_GLOBAL__N_112throw_helperISt12out_of_rangeEEvRKNS_12basic_stringIcNS_11char_traitsIcEENS_9allocatorIcEEEE) refers (Special) to _printf_f.o(.ARM.Collect$$_printf_percent$$00000003) for _printf_f
    string.cpp.o(.text._ZNSt3__112_GLOBAL__N_112throw_helperISt12out_of_rangeEEvRKNS_12basic_stringIcNS_11char_traitsIcEENS_9allocatorIcEEEE) refers (Special) to printf1.o(x$fpl$printf1) for _printf_fp_dec
    string.cpp.o(.text._ZNSt3__112_GLOBAL__N_112throw_helperISt12out_of_rangeEEvRKNS_12basic_stringIcNS_11char_traitsIcEENS_9allocatorIcEEEE) refers (Special) to _printf_dec.o(.text) for _printf_int_dec
    string.cpp.o(.text._ZNSt3__112_GLOBAL__N_112throw_helperISt12out_of_rangeEEvRKNS_12basic_stringIcNS_11char_traitsIcEENS_9allocatorIcEEEE) refers (Special) to _printf_lld.o(.ARM.Collect$$_printf_percent$$0000000E) for _printf_lld
    string.cpp.o(.text._ZNSt3__112_GLOBAL__N_112throw_helperISt12out_of_rangeEEvRKNS_12basic_stringIcNS_11char_traitsIcEENS_9allocatorIcEEEE) refers (Special) to _printf_llu.o(.ARM.Collect$$_printf_percent$$0000000F) for _printf_llu
    string.cpp.o(.text._ZNSt3__112_GLOBAL__N_112throw_helperISt12out_of_rangeEEvRKNS_12basic_stringIcNS_11char_traitsIcEENS_9allocatorIcEEEE) refers (Special) to _printf_longlong_dec.o(.text) for _printf_longlong_dec
    string.cpp.o(.text._ZNSt3__112_GLOBAL__N_112throw_helperISt12out_of_rangeEEvRKNS_12basic_stringIcNS_11char_traitsIcEENS_9allocatorIcEEEE) refers (Special) to _printf_percent.o(.ARM.Collect$$_printf_percent$$00000000) for _printf_percent
    string.cpp.o(.text._ZNSt3__112_GLOBAL__N_112throw_helperISt12out_of_rangeEEvRKNS_12basic_stringIcNS_11char_traitsIcEENS_9allocatorIcEEEE) refers (Special) to _printf_s.o(.ARM.Collect$$_printf_percent$$00000014) for _printf_s
    string.cpp.o(.text._ZNSt3__112_GLOBAL__N_112throw_helperISt12out_of_rangeEEvRKNS_12basic_stringIcNS_11char_traitsIcEENS_9allocatorIcEEEE) refers (Special) to _printf_str.o(.text) for _printf_str
    string.cpp.o(.text._ZNSt3__112_GLOBAL__N_112throw_helperISt12out_of_rangeEEvRKNS_12basic_stringIcNS_11char_traitsIcEENS_9allocatorIcEEEE) refers (Special) to _printf_u.o(.ARM.Collect$$_printf_percent$$0000000A) for _printf_u
    string.cpp.o(.text._ZNSt3__112_GLOBAL__N_112throw_helperISt12out_of_rangeEEvRKNS_12basic_stringIcNS_11char_traitsIcEENS_9allocatorIcEEEE) refers to stdio_streams.o(.bss) for __stderr
    string.cpp.o(.text._ZNSt3__112_GLOBAL__N_112throw_helperISt12out_of_rangeEEvRKNS_12basic_stringIcNS_11char_traitsIcEENS_9allocatorIcEEEE) refers to string.cpp.o(.rodata.str1.1) for .L.str.26
    string.cpp.o(.text._ZNSt3__112_GLOBAL__N_112throw_helperISt12out_of_rangeEEvRKNS_12basic_stringIcNS_11char_traitsIcEENS_9allocatorIcEEEE) refers to __2fprintf.o(.text) for __2fprintf
    string.cpp.o(.text._ZNSt3__112_GLOBAL__N_112throw_helperISt12out_of_rangeEEvRKNS_12basic_stringIcNS_11char_traitsIcEENS_9allocatorIcEEEE) refers to abort.o(.text) for abort
    string.cpp.o(.ARM.exidx.text._ZNSt3__112_GLOBAL__N_112throw_helperISt12out_of_rangeEEvRKNS_12basic_stringIcNS_11char_traitsIcEENS_9allocatorIcEEEE) refers (Special) to _printf_d.o(.ARM.Collect$$_printf_percent$$00000009) for _printf_d
    string.cpp.o(.ARM.exidx.text._ZNSt3__112_GLOBAL__N_112throw_helperISt12out_of_rangeEEvRKNS_12basic_stringIcNS_11char_traitsIcEENS_9allocatorIcEEEE) refers (Special) to _printf_f.o(.ARM.Collect$$_printf_percent$$00000003) for _printf_f
    string.cpp.o(.ARM.exidx.text._ZNSt3__112_GLOBAL__N_112throw_helperISt12out_of_rangeEEvRKNS_12basic_stringIcNS_11char_traitsIcEENS_9allocatorIcEEEE) refers (Special) to printf1.o(x$fpl$printf1) for _printf_fp_dec
    string.cpp.o(.ARM.exidx.text._ZNSt3__112_GLOBAL__N_112throw_helperISt12out_of_rangeEEvRKNS_12basic_stringIcNS_11char_traitsIcEENS_9allocatorIcEEEE) refers (Special) to _printf_dec.o(.text) for _printf_int_dec
    string.cpp.o(.ARM.exidx.text._ZNSt3__112_GLOBAL__N_112throw_helperISt12out_of_rangeEEvRKNS_12basic_stringIcNS_11char_traitsIcEENS_9allocatorIcEEEE) refers (Special) to _printf_lld.o(.ARM.Collect$$_printf_percent$$0000000E) for _printf_lld
    string.cpp.o(.ARM.exidx.text._ZNSt3__112_GLOBAL__N_112throw_helperISt12out_of_rangeEEvRKNS_12basic_stringIcNS_11char_traitsIcEENS_9allocatorIcEEEE) refers (Special) to _printf_llu.o(.ARM.Collect$$_printf_percent$$0000000F) for _printf_llu
    string.cpp.o(.ARM.exidx.text._ZNSt3__112_GLOBAL__N_112throw_helperISt12out_of_rangeEEvRKNS_12basic_stringIcNS_11char_traitsIcEENS_9allocatorIcEEEE) refers (Special) to _printf_longlong_dec.o(.text) for _printf_longlong_dec
    string.cpp.o(.ARM.exidx.text._ZNSt3__112_GLOBAL__N_112throw_helperISt12out_of_rangeEEvRKNS_12basic_stringIcNS_11char_traitsIcEENS_9allocatorIcEEEE) refers (Special) to _printf_percent.o(.ARM.Collect$$_printf_percent$$00000000) for _printf_percent
    string.cpp.o(.ARM.exidx.text._ZNSt3__112_GLOBAL__N_112throw_helperISt12out_of_rangeEEvRKNS_12basic_stringIcNS_11char_traitsIcEENS_9allocatorIcEEEE) refers (Special) to _printf_s.o(.ARM.Collect$$_printf_percent$$00000014) for _printf_s
    string.cpp.o(.ARM.exidx.text._ZNSt3__112_GLOBAL__N_112throw_helperISt12out_of_rangeEEvRKNS_12basic_stringIcNS_11char_traitsIcEENS_9allocatorIcEEEE) refers (Special) to _printf_str.o(.text) for _printf_str
    string.cpp.o(.ARM.exidx.text._ZNSt3__112_GLOBAL__N_112throw_helperISt12out_of_rangeEEvRKNS_12basic_stringIcNS_11char_traitsIcEENS_9allocatorIcEEEE) refers (Special) to _printf_u.o(.ARM.Collect$$_printf_percent$$0000000A) for _printf_u
    string.cpp.o(.ARM.exidx.text._ZNSt3__112_GLOBAL__N_112throw_helperISt12out_of_rangeEEvRKNS_12basic_stringIcNS_11char_traitsIcEENS_9allocatorIcEEEE) refers to string.cpp.o(.text._ZNSt3__112_GLOBAL__N_112throw_helperISt12out_of_rangeEEvRKNS_12basic_stringIcNS_11char_traitsIcEENS_9allocatorIcEEEE) for [Anonymous Symbol]
    string.cpp.o(.rodata.str1.1) refers (Special) to _printf_d.o(.ARM.Collect$$_printf_percent$$00000009) for _printf_d
    string.cpp.o(.rodata.str1.1) refers (Special) to _printf_f.o(.ARM.Collect$$_printf_percent$$00000003) for _printf_f
    string.cpp.o(.rodata.str1.1) refers (Special) to printf1.o(x$fpl$printf1) for _printf_fp_dec
    string.cpp.o(.rodata.str1.1) refers (Special) to _printf_dec.o(.text) for _printf_int_dec
    string.cpp.o(.rodata.str1.1) refers (Special) to _printf_lld.o(.ARM.Collect$$_printf_percent$$0000000E) for _printf_lld
    string.cpp.o(.rodata.str1.1) refers (Special) to _printf_llu.o(.ARM.Collect$$_printf_percent$$0000000F) for _printf_llu
    string.cpp.o(.rodata.str1.1) refers (Special) to _printf_longlong_dec.o(.text) for _printf_longlong_dec
    string.cpp.o(.rodata.str1.1) refers (Special) to _printf_percent.o(.ARM.Collect$$_printf_percent$$00000000) for _printf_percent
    string.cpp.o(.rodata.str1.1) refers (Special) to _printf_s.o(.ARM.Collect$$_printf_percent$$00000014) for _printf_s
    string.cpp.o(.rodata.str1.1) refers (Special) to _printf_str.o(.text) for _printf_str
    string.cpp.o(.rodata.str1.1) refers (Special) to _printf_u.o(.ARM.Collect$$_printf_percent$$0000000A) for _printf_u
    string.cpp.o(.rodata.str4.4) refers (Special) to _printf_d.o(.ARM.Collect$$_printf_percent$$00000009) for _printf_d
    string.cpp.o(.rodata.str4.4) refers (Special) to _printf_f.o(.ARM.Collect$$_printf_percent$$00000003) for _printf_f
    string.cpp.o(.rodata.str4.4) refers (Special) to printf1.o(x$fpl$printf1) for _printf_fp_dec
    string.cpp.o(.rodata.str4.4) refers (Special) to _printf_dec.o(.text) for _printf_int_dec
    string.cpp.o(.rodata.str4.4) refers (Special) to _printf_lld.o(.ARM.Collect$$_printf_percent$$0000000E) for _printf_lld
    string.cpp.o(.rodata.str4.4) refers (Special) to _printf_llu.o(.ARM.Collect$$_printf_percent$$0000000F) for _printf_llu
    string.cpp.o(.rodata.str4.4) refers (Special) to _printf_longlong_dec.o(.text) for _printf_longlong_dec
    string.cpp.o(.rodata.str4.4) refers (Special) to _printf_percent.o(.ARM.Collect$$_printf_percent$$00000000) for _printf_percent
    string.cpp.o(.rodata.str4.4) refers (Special) to _printf_s.o(.ARM.Collect$$_printf_percent$$00000014) for _printf_s
    string.cpp.o(.rodata.str4.4) refers (Special) to _printf_str.o(.text) for _printf_str
    string.cpp.o(.rodata.str4.4) refers (Special) to _printf_u.o(.ARM.Collect$$_printf_percent$$0000000A) for _printf_u
    cxa_virtual.cpp.o(.text.__cxa_pure_virtual) refers to abort_message.cpp.o(.text.abort_message) for abort_message
    cxa_virtual.cpp.o(.ARM.exidx.text.__cxa_pure_virtual) refers to cxa_virtual.cpp.o(.text.__cxa_pure_virtual) for [Anonymous Symbol]
    cxa_virtual.cpp.o(.text.__cxa_deleted_virtual) refers to abort_message.cpp.o(.text.abort_message) for abort_message
    cxa_virtual.cpp.o(.ARM.exidx.text.__cxa_deleted_virtual) refers to cxa_virtual.cpp.o(.text.__cxa_deleted_virtual) for [Anonymous Symbol]
    sqrt.o(i.__hardfp_sqrt) refers (Special) to usenofp.o(x$fpl$usenofp) for __I$use$fp
    sqrt.o(i.__hardfp_sqrt) refers to _rserrno.o(.text) for __set_errno
    sqrt.o(i.__softfp_sqrt) refers (Special) to usenofp.o(x$fpl$usenofp) for __I$use$fp
    sqrt.o(i.__softfp_sqrt) refers to _rserrno.o(.text) for __set_errno
    sqrt.o(i.sqrt) refers (Special) to usenofp.o(x$fpl$usenofp) for __I$use$fp
    sqrt.o(i.sqrt) refers to _rserrno.o(.text) for __set_errno
    sqrt_x.o(i.____hardfp_sqrt$lsc) refers (Special) to usenofp.o(x$fpl$usenofp) for __I$use$fp
    sqrt_x.o(i.____hardfp_sqrt$lsc) refers to _rserrno.o(.text) for __set_errno
    sqrt_x.o(i.____softfp_sqrt$lsc) refers (Special) to usenofp.o(x$fpl$usenofp) for __I$use$fp
    sqrt_x.o(i.____softfp_sqrt$lsc) refers to _rserrno.o(.text) for __set_errno
    sqrt_x.o(i.__sqrt$lsc) refers (Special) to usenofp.o(x$fpl$usenofp) for __I$use$fp
    sqrt_x.o(i.__sqrt$lsc) refers to _rserrno.o(.text) for __set_errno
    __rtentry.o(.ARM.Collect$$rtentry$$00000000) refers (Special) to __rtentry2.o(.ARM.Collect$$rtentry$$0000000A) for __rt_entry_li
    __rtentry.o(.ARM.Collect$$rtentry$$00000000) refers (Special) to __rtentry2.o(.ARM.Collect$$rtentry$$0000000D) for __rt_entry_main
    __rtentry.o(.ARM.Collect$$rtentry$$00000000) refers (Special) to __rtentry2.o(.ARM.Collect$$rtentry$$0000000C) for __rt_entry_postli_1
    __rtentry.o(.ARM.Collect$$rtentry$$00000000) refers (Special) to __rtentry2.o(.ARM.Collect$$rtentry$$00000009) for __rt_entry_postsh_1
    __rtentry.o(.ARM.Collect$$rtentry$$00000000) refers (Special) to __rtentry2.o(.ARM.Collect$$rtentry$$00000002) for __rt_entry_presh_1
    __rtentry.o(.ARM.Collect$$rtentry$$00000000) refers (Special) to __rtentry4.o(.ARM.Collect$$rtentry$$00000004) for __rt_entry_sh
    rt_heap_descriptor.o(.text) refers to rt_heap_descriptor.o(.bss) for __rt_heap_descriptor_data
    rt_heap_descriptor_intlibspace.o(.text) refers to libspace.o(.bss) for __libspace_start
    rt_errno_addr.o(.text) refers to rt_errno_addr.o(.bss) for __aeabi_errno_addr_data
    rt_errno_addr_intlibspace.o(.text) refers to libspace.o(.bss) for __libspace_start
    init_alloc.o(.text) refers (Special) to hguard.o(.text) for __heap$guard
    init_alloc.o(.text) refers (Special) to libinit2.o(.ARM.Collect$$libinit$$00000005) for __rt_lib_init_heap_2
    init_alloc.o(.text) refers (Special) to maybetermalloc1.o(.text) for _maybe_terminate_alloc
    init_alloc.o(.text) refers to h1_extend.o(.text) for __Heap_ProvideMemory
    init_alloc.o(.text) refers to defsig_rtmem_outer.o(.text) for __rt_SIGRTMEM
    init_alloc.o(.text) refers to rt_heap_descriptor_intlibspace.o(.text) for __rt_heap_descriptor
    init_alloc.o(.text) refers to h1_init.o(.text) for __Heap_Initialize
    malloc.o(.text) refers (Special) to hguard.o(.text) for __heap$guard
    malloc.o(.text) refers (Special) to init_alloc.o(.text) for _init_alloc
    malloc.o(.text) refers to rt_heap_descriptor_intlibspace.o(.text) for __rt_heap_descriptor
    malloc.o(.text) refers to heapstubs.o(.text) for __Heap_Alloc
    free.o(.text) refers (Special) to hguard.o(.text) for __heap$guard
    free.o(.text) refers to rt_heap_descriptor_intlibspace.o(.text) for __rt_heap_descriptor
    free.o(.text) refers to heapstubs.o(.text) for __Heap_Free
    h1_alloc.o(.text) refers (Special) to h1_init.o(.text) for __Heap_Initialize
    h1_alloc.o(.text) refers to rt_heap_descriptor_intlibspace.o(.text) for __rt_heap_descriptor
    h1_alloc.o(.text) refers to init_alloc.o(.text) for __Heap_Full
    h1_free.o(.text) refers to rt_heap_descriptor_intlibspace.o(.text) for __rt_heap_descriptor
    h1_memalign.o(.text) refers (Special) to h1_init.o(.text) for __Heap_Initialize
    h1_memalign.o(.text) refers to rt_heap_descriptor_intlibspace.o(.text) for __rt_heap_descriptor
    h1_memalign.o(.text) refers to init_alloc.o(.text) for __Heap_Full
    h1_alloc_threads.o(.text) refers (Special) to h1_init.o(.text) for __Heap_Initialize
    h1_alloc_threads.o(.text) refers to init_alloc.o(.text) for __Heap_Full
    h1_alloc_threads.o(.text) refers to rt_heap_descriptor_intlibspace.o(.text) for __rt_heap_descriptor
    h1_free_threads.o(.text) refers to rt_heap_descriptor_intlibspace.o(.text) for __rt_heap_descriptor
    h1_memalign_threads.o(.text) refers (Special) to h1_init.o(.text) for __Heap_Initialize
    h1_memalign_threads.o(.text) refers to rt_heap_descriptor_intlibspace.o(.text) for __rt_heap_descriptor
    h1_memalign_threads.o(.text) refers to init_alloc.o(.text) for __Heap_Full
    _rserrno.o(.text) refers to rt_errno_addr_intlibspace.o(.text) for __aeabi_errno_addr
    __2fprintf.o(.text) refers to _printf_char_file.o(.text) for _printf_char_file
    __2snprintf.o(.text) refers to _printf_char_common.o(.text) for _printf_char_common
    __2snprintf.o(.text) refers to _sputc.o(.text) for _sputc
    __2snprintf.o(.text) refers to _snputc.o(.text) for _snputc
    __2swprintf.o(.text) refers to _printf_wchar_common.o(.text) for _printf_wchar_common
    __2swprintf.o(.text) refers to _snputwc.o(.text) for _snputwc
    noretval__2fprintf.o(.text) refers to _printf_char_file.o(.text) for _printf_char_file
    noretval__2snprintf.o(.text) refers to _printf_char_common.o(.text) for _printf_char_common
    noretval__2snprintf.o(.text) refers to _sputc.o(.text) for _sputc
    noretval__2snprintf.o(.text) refers to _snputc.o(.text) for _snputc
    noretval__2swprintf.o(.text) refers to _printf_wchar_common.o(.text) for _printf_wchar_common
    noretval__2swprintf.o(.text) refers to _snputwc.o(.text) for _snputwc
    __printf.o(.text) refers to _printf_percent.o(.ARM.Collect$$_printf_percent$$00000000) for _printf_percent
    _printf_str.o(.text) refers (Special) to _printf_char.o(.text) for _printf_cs_common
    _printf_dec.o(.text) refers to _printf_intcommon.o(.text) for _printf_int_common
    _printf_longlong_dec.o(.text) refers to lludiv10.o(.text) for _ll_udiv10
    _printf_longlong_dec.o(.text) refers to _printf_intcommon.o(.text) for _printf_int_common
    __printf_flags.o(.text) refers to _printf_percent.o(.ARM.Collect$$_printf_percent$$00000000) for _printf_percent
    __printf_flags.o(.text) refers to __printf_flags.o(.constdata) for .constdata
    __printf_ss.o(.text) refers to _printf_percent.o(.ARM.Collect$$_printf_percent$$00000000) for _printf_percent
    __printf_flags_ss.o(.text) refers to _printf_percent.o(.ARM.Collect$$_printf_percent$$00000000) for _printf_percent
    __printf_flags_ss.o(.text) refers to __printf_flags_ss.o(.constdata) for .constdata
    __printf_wp.o(.text) refers to __printf_wp.o(i._is_digit) for _is_digit
    __printf_wp.o(.text) refers to _printf_percent.o(.ARM.Collect$$_printf_percent$$00000000) for _printf_percent
    __printf_flags_wp.o(.text) refers to __printf_wp.o(i._is_digit) for _is_digit
    __printf_flags_wp.o(.text) refers to _printf_percent.o(.ARM.Collect$$_printf_percent$$00000000) for _printf_percent
    __printf_flags_wp.o(.text) refers to __printf_flags_wp.o(.constdata) for .constdata
    __printf_ss_wp.o(.text) refers to __printf_wp.o(i._is_digit) for _is_digit
    __printf_ss_wp.o(.text) refers to _printf_percent.o(.ARM.Collect$$_printf_percent$$00000000) for _printf_percent
    __printf_flags_ss_wp.o(.text) refers to __printf_wp.o(i._is_digit) for _is_digit
    __printf_flags_ss_wp.o(.text) refers to _printf_percent.o(.ARM.Collect$$_printf_percent$$00000000) for _printf_percent
    __printf_flags_ss_wp.o(.text) refers to __printf_flags_ss_wp.o(.constdata) for .constdata
    _printf_s.o(.ARM.Collect$$_printf_percent$$00000014) refers (Weak) to _printf_char.o(.text) for _printf_string
    _printf_d.o(.ARM.Collect$$_printf_percent$$00000009) refers (Weak) to _printf_dec.o(.text) for _printf_int_dec
    _printf_u.o(.ARM.Collect$$_printf_percent$$0000000A) refers (Weak) to _printf_dec.o(.text) for _printf_int_dec
    _printf_f.o(.ARM.Collect$$_printf_percent$$00000003) refers (Weak) to printf1.o(x$fpl$printf1) for _printf_fp_dec
    _printf_percent.o(.ARM.Collect$$_printf_percent$$00000000) refers (Special) to _printf_percent_end.o(.ARM.Collect$$_printf_percent$$00000017) for _printf_percent_end
    _printf_lld.o(.ARM.Collect$$_printf_percent$$0000000E) refers (Special) to _printf_ll.o(.ARM.Collect$$_printf_percent$$00000007) for _printf_ll
    _printf_lld.o(.ARM.Collect$$_printf_percent$$0000000E) refers (Weak) to _printf_longlong_dec.o(.text) for _printf_longlong_dec
    _printf_llu.o(.ARM.Collect$$_printf_percent$$0000000F) refers (Special) to _printf_ll.o(.ARM.Collect$$_printf_percent$$00000007) for _printf_ll
    _printf_llu.o(.ARM.Collect$$_printf_percent$$0000000F) refers (Weak) to _printf_longlong_dec.o(.text) for _printf_longlong_dec
    strtol.o(.text) refers to rt_ctype_table.o(.text) for __rt_ctype_table
    strtol.o(.text) refers to _strtoul.o(.text) for _strtoul
    strtol.o(.text) refers to rt_errno_addr_intlibspace.o(.text) for __aeabi_errno_addr
    strtoul.o(.text) refers to rt_errno_addr_intlibspace.o(.text) for __aeabi_errno_addr
    strtoul.o(.text) refers to rt_ctype_table.o(.text) for __rt_ctype_table
    strtoul.o(.text) refers to _strtoul.o(.text) for _strtoul
    strtoll.o(.text) refers to __strtoll.o(.text) for __strtoll
    strtoull.o(.text) refers to __strtoull.o(.text) for __strtoull
    wcstol.o(.text) refers to _iswspace.o(.text) for _iswspace
    wcstol.o(.text) refers to _wcstoul.o(.text) for _wcstoul
    wcstol.o(.text) refers to rt_errno_addr_intlibspace.o(.text) for __aeabi_errno_addr
    wcstoul.o(.text) refers to rt_errno_addr_intlibspace.o(.text) for __aeabi_errno_addr
    wcstoul.o(.text) refers to _iswspace.o(.text) for _iswspace
    wcstoul.o(.text) refers to _wcstoul.o(.text) for _wcstoul
    wcstoll.o(.text) refers to __wcstoll.o(.text) for __wcstoll
    wcstoull.o(.text) refers to __wcstoull.o(.text) for __wcstoull
    stdio_streams.o(.bss) refers (Special) to initio.o(.text) for _initio
    stdio_streams.o(.bss) refers (Special) to initio.o(.text) for _initio
    stdio_streams.o(.bss) refers (Special) to initio.o(.text) for _initio
    stdio_streams.o(.data) refers (Special) to initio.o(.text) for _initio
    stdio_streams.o(.data) refers (Special) to initio.o(.text) for _initio
    stdio_streams.o(.data) refers (Special) to initio.o(.text) for _initio
    defsig_abrt_outer.o(.text) refers to defsig_abrt_inner.o(.text) for __rt_SIGABRT_inner
    defsig_abrt_outer.o(.text) refers to defsig_exit.o(.text) for __sig_exit
    defsig_abrt_formal.o(.text) refers to rt_raise.o(.text) for __rt_raise
    wmemcpy.o(.text) refers to memcpy.o(.text) for memcpy
    wmemmove.o(.text) refers to memmove.o(.text) for memmove
    wmemset.o(.text) refers to rt_memclr_w.o(.text) for _memset_w
    rt_memcpy_v6.o(.text) refers to rt_memcpy_w.o(.text) for __aeabi_memcpy4
    rt_memmove_v6.o(.text) refers to rt_memcpy_v6.o(.text) for __aeabi_memcpy
    rt_memmove_v6.o(.text) refers to rt_memmove_w.o(.text) for __memmove_aligned
    aeabi_memset.o(.text) refers to rt_memclr.o(.text) for _memset
    f2d.o(x$fpl$f2d) refers (Special) to usenofp.o(x$fpl$usenofp) for __I$use$fp
    printf1.o(x$fpl$printf1) refers to _printf_fp_dec.o(.text) for _printf_fp_dec_real
    abort_message.cpp.o(.text.abort_message) refers to abort.o(.text) for abort
    abort_message.cpp.o(.ARM.exidx.text.abort_message) refers to abort_message.cpp.o(.text.abort_message) for [Anonymous Symbol]
    cxa_handlers.cpp.o(.text._ZSt14get_unexpectedv) refers to cxa_default_handlers.cpp.o(.data.__cxa_unexpected_handler) for __cxa_unexpected_handler
    cxa_handlers.cpp.o(.ARM.exidx.text._ZSt14get_unexpectedv) refers to cxa_handlers.cpp.o(.text._ZSt14get_unexpectedv) for [Anonymous Symbol]
    cxa_handlers.cpp.o(.text._ZSt12__unexpectedPFvvE) refers to abort_message.cpp.o(.text.abort_message) for abort_message
    cxa_handlers.cpp.o(.ARM.exidx.text._ZSt12__unexpectedPFvvE) refers to cxa_handlers.cpp.o(.text._ZSt12__unexpectedPFvvE) for [Anonymous Symbol]
    cxa_handlers.cpp.o(.text._ZSt10unexpectedv) refers to cxa_default_handlers.cpp.o(.data.__cxa_unexpected_handler) for __cxa_unexpected_handler
    cxa_handlers.cpp.o(.text._ZSt10unexpectedv) refers to cxa_handlers.cpp.o(.text._ZSt12__unexpectedPFvvE) for std::__unexpected(void(*)())
    cxa_handlers.cpp.o(.ARM.exidx.text._ZSt10unexpectedv) refers to cxa_handlers.cpp.o(.text._ZSt10unexpectedv) for [Anonymous Symbol]
    cxa_handlers.cpp.o(.text._ZSt13get_terminatev) refers to cxa_default_handlers.cpp.o(.data.__cxa_terminate_handler) for __cxa_terminate_handler
    cxa_handlers.cpp.o(.ARM.exidx.text._ZSt13get_terminatev) refers to cxa_handlers.cpp.o(.text._ZSt13get_terminatev) for [Anonymous Symbol]
    cxa_handlers.cpp.o(.text._ZSt11__terminatePFvvE) refers to abort_message.cpp.o(.text.abort_message) for abort_message
    cxa_handlers.cpp.o(.ARM.exidx.text._ZSt11__terminatePFvvE) refers to cxa_handlers.cpp.o(.text._ZSt11__terminatePFvvE) for [Anonymous Symbol]
    cxa_handlers.cpp.o(.text._ZSt9terminatev) refers to cxa_exception_storage.cpp.o(.text.__cxa_get_globals_fast) for __cxa_get_globals_fast
    cxa_handlers.cpp.o(.text._ZSt9terminatev) refers to cxa_handlers.cpp.o(.text._ZSt11__terminatePFvvE) for std::__terminate(void(*)())
    cxa_handlers.cpp.o(.text._ZSt9terminatev) refers to cxa_default_handlers.cpp.o(.data.__cxa_terminate_handler) for __cxa_terminate_handler
    cxa_handlers.cpp.o(.ARM.exidx.text._ZSt9terminatev) refers to cxa_handlers.cpp.o(.text._ZSt9terminatev) for [Anonymous Symbol]
    cxa_handlers.cpp.o(.text._ZSt15set_new_handlerPFvvE) refers to cxa_handlers.cpp.o(.bss.__cxa_new_handler) for __cxa_new_handler
    cxa_handlers.cpp.o(.ARM.exidx.text._ZSt15set_new_handlerPFvvE) refers to cxa_handlers.cpp.o(.text._ZSt15set_new_handlerPFvvE) for [Anonymous Symbol]
    cxa_handlers.cpp.o(.text._ZSt15get_new_handlerv) refers to cxa_handlers.cpp.o(.bss.__cxa_new_handler) for __cxa_new_handler
    cxa_handlers.cpp.o(.ARM.exidx.text._ZSt15get_new_handlerv) refers to cxa_handlers.cpp.o(.text._ZSt15get_new_handlerv) for [Anonymous Symbol]
    strtod.o(i.__hardfp_strtod) refers (Special) to usenofp.o(x$fpl$usenofp) for __I$use$fp
    strtod.o(i.__hardfp_strtod) refers to strtod.o(.text) for __strtod_int
    strtod.o(i.__softfp_strtod) refers (Special) to usenofp.o(x$fpl$usenofp) for __I$use$fp
    strtod.o(i.__softfp_strtod) refers to strtod.o(.text) for __strtod_int
    strtod.o(i.strtod) refers (Special) to usenofp.o(x$fpl$usenofp) for __I$use$fp
    strtod.o(i.strtod) refers to strtod.o(.text) for __strtod_int
    strtof.o(i.__hardfp_strtof) refers (Special) to usenofp.o(x$fpl$usenofp) for __I$use$fp
    strtof.o(i.__hardfp_strtof) refers to strtof.o(.text) for __strtof_int
    strtof.o(i.__softfp_strtof) refers (Special) to usenofp.o(x$fpl$usenofp) for __I$use$fp
    strtof.o(i.__softfp_strtof) refers to strtof.o(.text) for __strtof_int
    strtof.o(i.strtof) refers (Special) to usenofp.o(x$fpl$usenofp) for __I$use$fp
    strtof.o(i.strtof) refers to strtof.o(.text) for __strtof_int
    wcstod.o(i.__hardfp_wcstod) refers (Special) to usenofp.o(x$fpl$usenofp) for __I$use$fp
    wcstod.o(i.__hardfp_wcstod) refers to wcstod.o(.text) for __wcstod_int
    wcstod.o(i.__softfp_wcstod) refers (Special) to usenofp.o(x$fpl$usenofp) for __I$use$fp
    wcstod.o(i.__softfp_wcstod) refers to wcstod.o(.text) for __wcstod_int
    wcstod.o(i.wcstod) refers (Special) to usenofp.o(x$fpl$usenofp) for __I$use$fp
    wcstod.o(i.wcstod) refers to wcstod.o(.text) for __wcstod_int
    wcstof.o(i.__hardfp_wcstof) refers (Special) to usenofp.o(x$fpl$usenofp) for __I$use$fp
    wcstof.o(i.__hardfp_wcstof) refers to wcstof.o(.text) for __wcstof_int
    wcstof.o(i.__softfp_wcstof) refers (Special) to usenofp.o(x$fpl$usenofp) for __I$use$fp
    wcstof.o(i.__softfp_wcstof) refers to wcstof.o(.text) for __wcstof_int
    wcstof.o(i.wcstof) refers (Special) to usenofp.o(x$fpl$usenofp) for __I$use$fp
    wcstof.o(i.wcstof) refers to wcstof.o(.text) for __wcstof_int
    strtold.o(i.__hardfp_strtold) refers (Special) to usenofp.o(x$fpl$usenofp) for __I$use$fp
    strtold.o(i.__hardfp_strtold) refers to strtod.o(.text) for __strtod_int
    strtold.o(i.__softfp_strtold) refers (Special) to usenofp.o(x$fpl$usenofp) for __I$use$fp
    strtold.o(i.__softfp_strtold) refers to strtod.o(.text) for __strtod_int
    strtold.o(i.strtold) refers (Special) to usenofp.o(x$fpl$usenofp) for __I$use$fp
    strtold.o(i.strtold) refers to strtod.o(.text) for __strtod_int
    wcstold.o(i.__hardfp_wcstold) refers (Special) to usenofp.o(x$fpl$usenofp) for __I$use$fp
    wcstold.o(i.__hardfp_wcstold) refers to wcstod.o(.text) for __wcstod_int
    wcstold.o(i.__softfp_wcstold) refers (Special) to usenofp.o(x$fpl$usenofp) for __I$use$fp
    wcstold.o(i.__softfp_wcstold) refers to wcstod.o(.text) for __wcstod_int
    wcstold.o(i.wcstold) refers (Special) to usenofp.o(x$fpl$usenofp) for __I$use$fp
    wcstold.o(i.wcstold) refers to wcstod.o(.text) for __wcstod_int
    libspace.o(.text) refers to libspace.o(.bss) for __libspace_start
    __rtentry2.o(.ARM.Collect$$rtentry$$00000008) refers to boardinit2.o(.text) for _platform_post_stackheap_init
    __rtentry2.o(.ARM.Collect$$rtentry$$0000000A) refers to libinit.o(.ARM.Collect$$libinit$$00000000) for __rt_lib_init
    __rtentry2.o(.ARM.Collect$$rtentry$$0000000B) refers to boardinit3.o(.text) for _platform_post_lib_init
    __rtentry2.o(.ARM.Collect$$rtentry$$0000000D) refers to lto-llvm-7a7817.o(.text.main) for main
    __rtentry2.o(.ARM.Collect$$rtentry$$0000000D) refers to exit.o(.text) for exit
    __rtentry2.o(.ARM.exidx) refers to __rtentry2.o(.ARM.Collect$$rtentry$$00000001) for .ARM.Collect$$rtentry$$00000001
    __rtentry2.o(.ARM.exidx) refers to __rtentry2.o(.ARM.Collect$$rtentry$$00000008) for .ARM.Collect$$rtentry$$00000008
    __rtentry2.o(.ARM.exidx) refers to __rtentry2.o(.ARM.Collect$$rtentry$$0000000A) for .ARM.Collect$$rtentry$$0000000A
    __rtentry2.o(.ARM.exidx) refers to __rtentry2.o(.ARM.Collect$$rtentry$$0000000B) for .ARM.Collect$$rtentry$$0000000B
    __rtentry2.o(.ARM.exidx) refers to __rtentry2.o(.ARM.Collect$$rtentry$$0000000D) for .ARM.Collect$$rtentry$$0000000D
    __rtentry4.o(.ARM.Collect$$rtentry$$00000004) refers to sys_stackheap_outer.o(.text) for __user_setup_stackheap
    __rtentry4.o(.ARM.exidx) refers to __rtentry4.o(.ARM.Collect$$rtentry$$00000004) for .ARM.Collect$$rtentry$$00000004
    rt_ctype_table.o(.text) refers to rt_locale_intlibspace.o(.text) for __rt_locale
    rt_ctype_table.o(.text) refers to lc_ctype_c.o(locale$$code) for _get_lc_ctype
    rt_raise.o(.text) refers to __raise.o(.text) for __raise
    rt_raise.o(.text) refers to lto-llvm-7a7817.o(.text._sys_exit) for _sys_exit
    maybetermalloc2.o(.text) refers (Special) to term_alloc.o(.text) for _terminate_alloc
    h1_extend.o(.text) refers to h1_free.o(.text) for free
    h1_init_threads.o(.text) refers to mutex_dummy.o(.text) for _mutex_initialize
    h1_extend_threads.o(.text) refers to h1_free_threads.o(.text) for free_internal$concurrent
    _iswspace.o(.text) refers to wclass_c.o(.text) for _wclass
    _printf_fp_dec.o(.text) refers (Special) to usenofp.o(x$fpl$usenofp) for __I$use$fp
    _printf_fp_dec.o(.text) refers (Special) to lc_numeric_c.o(locale$$code) for _get_lc_numeric
    _printf_fp_dec.o(.text) refers to bigflt0.o(.text) for _btod_etento
    _printf_fp_dec.o(.text) refers to btod.o(CL$$btod_d2e) for _btod_d2e
    _printf_fp_dec.o(.text) refers to btod.o(CL$$btod_ediv) for _btod_ediv
    _printf_fp_dec.o(.text) refers to btod.o(CL$$btod_emul) for _btod_emul
    _printf_fp_dec.o(.text) refers to lludiv10.o(.text) for _ll_udiv10
    _printf_fp_dec.o(.text) refers to fpclassify.o(i.__ARM_fpclassify) for __ARM_fpclassify
    _printf_fp_dec.o(.text) refers to _printf_fp_infnan.o(.text) for _printf_fp_infnan
    _printf_fp_dec.o(.text) refers to rt_locale_intlibspace.o(.text) for __rt_locale
    _printf_fp_dec_accurate.o(.text) refers (Special) to usenofp.o(x$fpl$usenofp) for __I$use$fp
    _printf_fp_dec_accurate.o(.text) refers (Special) to lc_numeric_c.o(locale$$code) for _get_lc_numeric
    _printf_fp_dec_accurate.o(.text) refers to btod_accurate.o(.text) for _btod_main
    _printf_fp_dec_accurate.o(.text) refers to fpclassify.o(i.__ARM_fpclassify) for __ARM_fpclassify
    _printf_fp_dec_accurate.o(.text) refers to _printf_fp_infnan.o(.text) for _printf_fp_infnan
    _printf_fp_dec_accurate.o(.text) refers to rt_locale_intlibspace.o(.text) for __rt_locale
    _printf_char_common.o(.text) refers to __printf_ss.o(.text) for __printf
    _printf_char.o(.text) refers (Weak) to _printf_str.o(.text) for _printf_str
    _printf_char_file.o(.text) refers to _printf_char_common.o(.text) for _printf_char_common
    _printf_char_file.o(.text) refers to ferror.o(.text) for ferror
    _printf_char_file.o(.text) refers to fputc.o(i.fputc) for fputc
    _printf_wchar_common.o(.text) refers to __printf_ss.o(.text) for __printf
    _strtoul.o(.text) refers to _chval.o(.text) for _chval
    _strtoul.o(.text) refers to rt_errno_addr_intlibspace.o(.text) for __aeabi_errno_addr
    strtod.o(.text) refers (Special) to lc_numeric_c.o(locale$$code) for _get_lc_numeric
    strtod.o(.text) refers to scanf1.o(x$fpl$scanf1) for _scanf_real
    strtod.o(.text) refers to _sgetc.o(.text) for _sgetc
    strtod.o(.text) refers to isspace.o(.text) for isspace
    strtof.o(.text) refers to strtod.o(.text) for __strtod_int
    __strtoll.o(.text) refers to rt_ctype_table.o(.text) for __rt_ctype_table
    __strtoll.o(.text) refers to _strtoull.o(.text) for _strtoull
    __strtoll.o(.text) refers to rt_errno_addr_intlibspace.o(.text) for __aeabi_errno_addr
    __strtoull.o(.text) refers to rt_errno_addr_intlibspace.o(.text) for __aeabi_errno_addr
    __strtoull.o(.text) refers to rt_ctype_table.o(.text) for __rt_ctype_table
    __strtoull.o(.text) refers to _strtoull.o(.text) for _strtoull
    _wcstoul.o(.text) refers to _chval.o(.text) for _chval
    _wcstoul.o(.text) refers to rt_errno_addr_intlibspace.o(.text) for __aeabi_errno_addr
    wcstod.o(.text) refers (Special) to lc_numeric_c.o(locale$$code) for _get_lc_numeric
    wcstod.o(.text) refers to scanf1.o(x$fpl$scanf1) for _scanf_real
    wcstod.o(.text) refers to _wsgetc.o(.text) for _wsgetc
    wcstod.o(.text) refers to _iswspace.o(.text) for _iswspace
    wcstof.o(.text) refers to wcstod.o(.text) for __wcstod_int
    __wcstoll.o(.text) refers to _iswspace.o(.text) for _iswspace
    __wcstoll.o(.text) refers to _wcstoull.o(.text) for _wcstoull
    __wcstoll.o(.text) refers to rt_errno_addr_intlibspace.o(.text) for __aeabi_errno_addr
    __wcstoull.o(.text) refers to rt_errno_addr_intlibspace.o(.text) for __aeabi_errno_addr
    __wcstoull.o(.text) refers to _iswspace.o(.text) for _iswspace
    __wcstoull.o(.text) refers to _wcstoull.o(.text) for _wcstoull
    initio.o(.text) refers (Special) to libinit2.o(.ARM.Collect$$libinit$$00000024) for __rt_lib_init_stdio_2
    initio.o(.text) refers (Special) to libshutdown2.o(.ARM.Collect$$libshutdown$$00000003) for __rt_lib_shutdown_stdio_2
    initio.o(.text) refers to rt_memclr_w.o(.text) for __aeabi_memclr4
    initio.o(.text) refers to fopen.o(.text) for freopen
    initio.o(.text) refers to defsig_rtred_outer.o(.text) for __rt_SIGRTRED
    initio.o(.text) refers to setvbuf.o(.text) for setvbuf
    initio.o(.text) refers to fclose.o(.text) for _fclose_internal
    initio.o(.text) refers to h1_free.o(.text) for free
    initio.o(.text) refers to stdio_streams.o(.bss) for __stdin
    initio.o(.text) refers to stdio_streams.o(.bss) for __stdout
    initio.o(.text) refers to stdio_streams.o(.bss) for __stderr
    initio.o(.text) refers to stdio_streams.o(.data) for __aeabi_stdin
    initio.o(.text) refers to stdio_streams.o(.data) for __aeabi_stdout
    initio.o(.text) refers to stdio_streams.o(.data) for __aeabi_stderr
    initio.o(.text) refers to sys_io_names.o(.constdata) for __stdin_name
    initio.o(.text) refers to sys_io_names.o(.constdata) for __stdout_name
    initio.o(.text) refers to sys_io_names.o(.constdata) for __stderr_name
    initio_locked.o(.text) refers (Special) to libinit2.o(.ARM.Collect$$libinit$$00000024) for __rt_lib_init_stdio_2
    initio_locked.o(.text) refers (Special) to libshutdown2.o(.ARM.Collect$$libshutdown$$00000003) for __rt_lib_shutdown_stdio_2
    initio_locked.o(.text) refers to rt_memclr_w.o(.text) for __aeabi_memclr4
    initio_locked.o(.text) refers to fopen.o(.text) for freopen
    initio_locked.o(.text) refers to defsig_rtred_outer.o(.text) for __rt_SIGRTRED
    initio_locked.o(.text) refers to setvbuf.o(.text) for setvbuf
    initio_locked.o(.text) refers to fclose.o(.text) for _fclose_internal
    initio_locked.o(.text) refers to h1_free.o(.text) for free
    initio_locked.o(.text) refers to stdio_streams.o(.bss) for __stdin
    initio_locked.o(.text) refers to stdio_streams.o(.bss) for __stdout
    initio_locked.o(.text) refers to stdio_streams.o(.bss) for __stderr
    initio_locked.o(.text) refers to stdio_streams.o(.data) for __aeabi_stdin
    initio_locked.o(.text) refers to stdio_streams.o(.data) for __aeabi_stdout
    initio_locked.o(.text) refers to stdio_streams.o(.data) for __aeabi_stderr
    initio_locked.o(.text) refers to streamlock.o(.data) for _stream_list_lock
    initio_locked.o(.text) refers to sys_io_names.o(.constdata) for __stdin_name
    initio_locked.o(.text) refers to sys_io_names.o(.constdata) for __stdout_name
    initio_locked.o(.text) refers to sys_io_names.o(.constdata) for __stderr_name
    defsig_exit.o(.text) refers to lto-llvm-7a7817.o(.text._sys_exit) for _sys_exit
    defsig_abrt_inner.o(.text) refers to defsig_general.o(.text) for __default_signal_display
    defsig_rtmem_outer.o(.text) refers to defsig_rtmem_inner.o(.text) for __rt_SIGRTMEM_inner
    defsig_rtmem_outer.o(.text) refers to defsig_exit.o(.text) for __sig_exit
    defsig_rtmem_formal.o(.text) refers to rt_raise.o(.text) for __rt_raise
    memcpy.o(.text) refers to rt_memcpy_v6.o(.text) for __aeabi_memcpy
    memmove.o(.text) refers to rt_memmove_v6.o(.text) for __aeabi_memmove
    rt_memmove_w.o(.text) refers to rt_memcpy_w.o(.text) for __aeabi_memcpy4
    rt_memclr.o(.text) refers to rt_memclr_w.o(.text) for _memset_w
    heapauxa.o(.text) refers to heapauxa.o(.data) for .data
    _get_argv.o(.text) refers (Special) to hrguard.o(.text) for __heap_region$guard
    _get_argv.o(.text) refers to h1_alloc.o(.text) for malloc
    _get_argv.o(.text) refers to defsig_rtmem_outer.o(.text) for __rt_SIGRTMEM
    _get_argv.o(.text) refers to lto-llvm-7a7817.o(.text._sys_command_string) for _sys_command_string
    libinit2.o(.ARM.Collect$$libinit$$00000001) refers to fpinit.o(x$fpl$fpinit) for _fp_init
    libinit2.o(.ARM.Collect$$libinit$$00000005) refers (Weak) to init_alloc.o(.text) for _init_alloc
    libinit2.o(.ARM.Collect$$libinit$$0000000F) refers (Weak) to rt_locale_intlibspace.o(.text) for __rt_locale
    libinit2.o(.ARM.Collect$$libinit$$00000010) refers to libinit2.o(.ARM.Collect$$libinit$$0000000F) for .ARM.Collect$$libinit$$0000000F
    libinit2.o(.ARM.Collect$$libinit$$00000012) refers to libinit2.o(.ARM.Collect$$libinit$$0000000F) for .ARM.Collect$$libinit$$0000000F
    libinit2.o(.ARM.Collect$$libinit$$00000012) refers (Weak) to lc_ctype_c.o(locale$$code) for _get_lc_ctype
    libinit2.o(.ARM.Collect$$libinit$$00000014) refers to libinit2.o(.ARM.Collect$$libinit$$0000000F) for .ARM.Collect$$libinit$$0000000F
    libinit2.o(.ARM.Collect$$libinit$$00000016) refers to libinit2.o(.ARM.Collect$$libinit$$0000000F) for .ARM.Collect$$libinit$$0000000F
    libinit2.o(.ARM.Collect$$libinit$$00000016) refers (Weak) to lc_numeric_c.o(locale$$code) for _get_lc_numeric
    libinit2.o(.ARM.Collect$$libinit$$00000018) refers to libinit2.o(.ARM.Collect$$libinit$$0000000F) for .ARM.Collect$$libinit$$0000000F
    libinit2.o(.ARM.Collect$$libinit$$00000024) refers (Weak) to initio.o(.text) for _initio
    libinit2.o(.ARM.Collect$$libinit$$00000026) refers to argv_veneer.o(.emb_text) for __ARM_argv_veneer
    libinit2.o(.ARM.Collect$$libinit$$00000027) refers to argv_veneer.o(.emb_text) for __ARM_argv_veneer
    libinit2.o(.ARM.Collect$$libinit$$00000031) refers (Weak) to init_aeabi.o(.text) for __cpp_initialize__aeabi_
    cxa_default_handlers.cpp.o(.text._ZSt14set_unexpectedPFvvE) refers to cxa_handlers.cpp.o(.text._ZSt9terminatev) for std::terminate()
    cxa_default_handlers.cpp.o(.text._ZSt14set_unexpectedPFvvE) refers to cxa_default_handlers.cpp.o(.data.__cxa_unexpected_handler) for __cxa_unexpected_handler
    cxa_default_handlers.cpp.o(.ARM.exidx.text._ZSt14set_unexpectedPFvvE) refers to cxa_default_handlers.cpp.o(.text._ZSt14set_unexpectedPFvvE) for [Anonymous Symbol]
    cxa_default_handlers.cpp.o(.text._ZSt13set_terminatePFvvE) refers to abort.o(.text) for abort
    cxa_default_handlers.cpp.o(.text._ZSt13set_terminatePFvvE) refers to cxa_default_handlers.cpp.o(.data.__cxa_terminate_handler) for __cxa_terminate_handler
    cxa_default_handlers.cpp.o(.ARM.exidx.text._ZSt13set_terminatePFvvE) refers to cxa_default_handlers.cpp.o(.text._ZSt13set_terminatePFvvE) for [Anonymous Symbol]
    cxa_default_handlers.cpp.o(.data.__cxa_terminate_handler) refers to abort.o(.text) for abort
    cxa_default_handlers.cpp.o(.data.__cxa_unexpected_handler) refers to cxa_handlers.cpp.o(.text._ZSt9terminatev) for std::terminate()
    cxa_exception_storage.cpp.o(.text.__cxa_get_globals) refers to cxa_exception_storage.cpp.o(.bss._ZN10__cxxabiv1L10eh_globalsE) for _ZN10__cxxabiv1L10eh_globalsE
    cxa_exception_storage.cpp.o(.ARM.exidx.text.__cxa_get_globals) refers to cxa_exception_storage.cpp.o(.text.__cxa_get_globals) for [Anonymous Symbol]
    cxa_exception_storage.cpp.o(.text.__cxa_get_globals_fast) refers to cxa_exception_storage.cpp.o(.bss._ZN10__cxxabiv1L10eh_globalsE) for _ZN10__cxxabiv1L10eh_globalsE
    cxa_exception_storage.cpp.o(.ARM.exidx.text.__cxa_get_globals_fast) refers to cxa_exception_storage.cpp.o(.text.__cxa_get_globals_fast) for [Anonymous Symbol]
    cxa_noexception.cpp.o(.text.__cxa_increment_exception_refcount) refers to cxa_handlers.cpp.o(.text._ZSt9terminatev) for std::terminate()
    cxa_noexception.cpp.o(.ARM.exidx.text.__cxa_increment_exception_refcount) refers to cxa_noexception.cpp.o(.text.__cxa_increment_exception_refcount) for [Anonymous Symbol]
    cxa_noexception.cpp.o(.text.__cxa_decrement_exception_refcount) refers to cxa_handlers.cpp.o(.text._ZSt9terminatev) for std::terminate()
    cxa_noexception.cpp.o(.ARM.exidx.text.__cxa_decrement_exception_refcount) refers to cxa_noexception.cpp.o(.text.__cxa_decrement_exception_refcount) for [Anonymous Symbol]
    cxa_noexception.cpp.o(.ARM.exidx.text.__cxa_current_primary_exception) refers to cxa_noexception.cpp.o(.text.__cxa_current_primary_exception) for [Anonymous Symbol]
    cxa_noexception.cpp.o(.text.__cxa_rethrow_primary_exception) refers to cxa_handlers.cpp.o(.text._ZSt9terminatev) for std::terminate()
    cxa_noexception.cpp.o(.ARM.exidx.text.__cxa_rethrow_primary_exception) refers to cxa_noexception.cpp.o(.text.__cxa_rethrow_primary_exception) for [Anonymous Symbol]
    cxa_noexception.cpp.o(.ARM.exidx.text.__cxa_uncaught_exception) refers to cxa_noexception.cpp.o(.text.__cxa_uncaught_exception) for [Anonymous Symbol]
    cxa_noexception.cpp.o(.ARM.exidx.text.__cxa_uncaught_exceptions) refers to cxa_noexception.cpp.o(.text.__cxa_uncaught_exceptions) for [Anonymous Symbol]
    cxa_noexception.cpp.o(.ARM.exidx.text._ZN10__cxxabiv119__getExceptionClassEPK21_Unwind_Control_Block) refers to cxa_noexception.cpp.o(.text._ZN10__cxxabiv119__getExceptionClassEPK21_Unwind_Control_Block) for [Anonymous Symbol]
    cxa_noexception.cpp.o(.ARM.exidx.text._ZN10__cxxabiv119__setExceptionClassEP21_Unwind_Control_Blocky) refers to cxa_noexception.cpp.o(.text._ZN10__cxxabiv119__setExceptionClassEP21_Unwind_Control_Blocky) for [Anonymous Symbol]
    cxa_noexception.cpp.o(.ARM.exidx.text._ZN10__cxxabiv121__isOurExceptionClassEPK21_Unwind_Control_Block) refers to cxa_noexception.cpp.o(.text._ZN10__cxxabiv121__isOurExceptionClassEPK21_Unwind_Control_Block) for [Anonymous Symbol]
    sys_stackheap_outer.o(.text) refers to libspace.o(.text) for __user_perproc_libspace
    sys_stackheap_outer.o(.text) refers to startup_stm32h750xx.o(.text) for __user_initial_stackheap
    rt_locale.o(.text) refers to rt_locale.o(.bss) for __rt_locale_data
    rt_locale_intlibspace.o(.text) refers to libspace.o(.bss) for __libspace_start
    term_alloc.o(.text) refers (Special) to libshutdown2.o(.ARM.Collect$$libshutdown$$0000000E) for __rt_lib_shutdown_heap_2
    term_alloc.o(.text) refers to rt_heap_descriptor_intlibspace.o(.text) for __rt_heap_descriptor
    term_alloc.o(.text) refers to h1_final.o(.text) for __Heap_Finalize
    isspace.o(.text) refers to rt_ctype_table.o(.text) for __rt_ctype_table
    wclass_c.o(.text) refers to rt_ctype_table.o(.text) for __rt_ctype_table
    _strtoull.o(.text) refers to _chval.o(.text) for _chval
    _strtoull.o(.text) refers to rt_errno_addr_intlibspace.o(.text) for __aeabi_errno_addr
    _wcstoull.o(.text) refers to _chval.o(.text) for _chval
    _wcstoull.o(.text) refers to rt_errno_addr_intlibspace.o(.text) for __aeabi_errno_addr
    bigflt0.o(.text) refers (Special) to usenofp.o(x$fpl$usenofp) for __I$use$fp
    bigflt0.o(.text) refers to btod.o(CL$$btod_emul) for _btod_emul
    bigflt0.o(.text) refers to btod.o(CL$$btod_ediv) for _btod_ediv
    bigflt0.o(.text) refers to bigflt0.o(.constdata) for .constdata
    bigflt0.o(.constdata) refers (Special) to usenofp.o(x$fpl$usenofp) for __I$use$fp
    btod.o(CL$$btod_d2e) refers (Special) to usenofp.o(x$fpl$usenofp) for __I$use$fp
    btod.o(CL$$btod_d2e) refers to btod.o(CL$$btod_d2e_norm_op1) for _d2e_norm_op1
    btod.o(CL$$btod_d2e_norm_op1) refers (Special) to usenofp.o(x$fpl$usenofp) for __I$use$fp
    btod.o(CL$$btod_d2e_norm_op1) refers to btod.o(CL$$btod_d2e_denorm_low) for _d2e_denorm_low
    btod.o(CL$$btod_d2e_denorm_low) refers (Special) to usenofp.o(x$fpl$usenofp) for __I$use$fp
    btod.o(CL$$btod_emul) refers (Special) to usenofp.o(x$fpl$usenofp) for __I$use$fp
    btod.o(CL$$btod_emul) refers to btod.o(CL$$btod_mult_common) for __btod_mult_common
    btod.o(CL$$btod_emul) refers to btod.o(CL$$btod_e2e) for _e2e
    btod.o(CL$$btod_ediv) refers (Special) to usenofp.o(x$fpl$usenofp) for __I$use$fp
    btod.o(CL$$btod_ediv) refers to btod.o(CL$$btod_div_common) for __btod_div_common
    btod.o(CL$$btod_ediv) refers to btod.o(CL$$btod_e2e) for _e2e
    btod.o(CL$$btod_emuld) refers (Special) to usenofp.o(x$fpl$usenofp) for __I$use$fp
    btod.o(CL$$btod_emuld) refers to btod.o(CL$$btod_mult_common) for __btod_mult_common
    btod.o(CL$$btod_emuld) refers to btod.o(CL$$btod_e2d) for _e2d
    btod.o(CL$$btod_edivd) refers (Special) to usenofp.o(x$fpl$usenofp) for __I$use$fp
    btod.o(CL$$btod_edivd) refers to btod.o(CL$$btod_div_common) for __btod_div_common
    btod.o(CL$$btod_edivd) refers to btod.o(CL$$btod_e2d) for _e2d
    btod.o(CL$$btod_e2e) refers (Special) to usenofp.o(x$fpl$usenofp) for __I$use$fp
    btod.o(CL$$btod_e2d) refers (Special) to usenofp.o(x$fpl$usenofp) for __I$use$fp
    btod.o(CL$$btod_e2d) refers to btod.o(CL$$btod_e2e) for _e2e
    btod.o(CL$$btod_mult_common) refers (Special) to usenofp.o(x$fpl$usenofp) for __I$use$fp
    btod.o(CL$$btod_div_common) refers (Special) to usenofp.o(x$fpl$usenofp) for __I$use$fp
    btod_accurate.o(.text) refers to btod_accurate_common.o(.text) for _btod_common
    fputc.o(i.fputc) refers to flsbuf.o(.text) for __flsbuf_byte
    streamlock.o(.data) refers (Special) to initio.o(.text) for _initio
    fopen.o(.text) refers to fclose.o(.text) for _fclose_internal
    fopen.o(.text) refers to sys_io.o(.text) for _sys_open
    fopen.o(.text) refers to fseek.o(.text) for _fseek
    fopen.o(.text) refers to h1_alloc.o(.text) for malloc
    fopen.o(.text) refers to rt_memclr_w.o(.text) for __aeabi_memclr4
    fopen.o(.text) refers to stdio_streams.o(.bss) for __stdin
    fclose.o(.text) refers to stdio.o(.text) for _fflush
    fclose.o(.text) refers to sys_io.o(.text) for _sys_close
    fclose.o(.text) refers to h1_free.o(.text) for free
    fclose.o(.text) refers to rt_memclr_w.o(.text) for __aeabi_memclr4
    fopen_locked.o(.text) refers to fclose.o(.text) for _fclose_internal
    fopen_locked.o(.text) refers to sys_io.o(.text) for _sys_open
    fopen_locked.o(.text) refers to fseek.o(.text) for _fseek
    fopen_locked.o(.text) refers to h1_alloc.o(.text) for malloc
    fopen_locked.o(.text) refers to rt_memclr_w.o(.text) for __aeabi_memclr4
    fopen_locked.o(.text) refers to streamlock.o(.data) for _stream_list_lock
    fopen_locked.o(.text) refers to stdio_streams.o(.bss) for __stdin
    lc_ctype_c.o(locale$$data) refers (Special) to libinit2.o(.ARM.Collect$$libinit$$00000012) for __rt_lib_init_lc_ctype_2
    lc_ctype_c.o(locale$$code) refers (Special) to libinit2.o(.ARM.Collect$$libinit$$00000012) for __rt_lib_init_lc_ctype_2
    lc_ctype_c.o(locale$$code) refers to strcmpv7m_pel.o(.text) for strcmp
    lc_ctype_c.o(locale$$code) refers to lc_ctype_c.o(locale$$data) for __lcctype_c_name
    lc_numeric_c.o(locale$$data) refers (Special) to libinit2.o(.ARM.Collect$$libinit$$00000016) for __rt_lib_init_lc_numeric_2
    lc_numeric_c.o(locale$$code) refers (Special) to libinit2.o(.ARM.Collect$$libinit$$00000016) for __rt_lib_init_lc_numeric_2
    lc_numeric_c.o(locale$$code) refers to strcmpv7m_pel.o(.text) for strcmp
    lc_numeric_c.o(locale$$code) refers to lc_numeric_c.o(locale$$data) for __lcnum_c_name
    exit.o(.text) refers to rtexit.o(.ARM.Collect$$rtexit$$00000000) for __rt_exit
    __raise.o(.text) refers to defsig.o(CL$$defsig) for __default_signal_handler
    defsig_general.o(.text) refers to lto-llvm-7a7817.o(.text._ttywrch) for _ttywrch
    defsig_rtred_outer.o(.text) refers to defsig_rtred_inner.o(.text) for __rt_SIGRTRED_inner
    defsig_rtred_outer.o(.text) refers to defsig_exit.o(.text) for __sig_exit
    defsig_rtred_formal.o(.text) refers to rt_raise.o(.text) for __rt_raise
    defsig_rtmem_inner.o(.text) refers to defsig_general.o(.text) for __default_signal_display
    argv_veneer.o(.emb_text) refers to _get_argv.o(.text) for __ARM_get_argv
    libinit.o(.ARM.Collect$$libinit$$00000000) refers (Special) to libinit2.o(.ARM.Collect$$libinit$$0000002E) for __rt_lib_init_alloca_1
    libinit.o(.ARM.Collect$$libinit$$00000000) refers (Special) to libinit2.o(.ARM.Collect$$libinit$$00000026) for __rt_lib_init_argv_1
    libinit.o(.ARM.Collect$$libinit$$00000000) refers (Special) to libinit2.o(.ARM.Collect$$libinit$$0000001B) for __rt_lib_init_atexit_1
    libinit.o(.ARM.Collect$$libinit$$00000000) refers (Special) to libinit2.o(.ARM.Collect$$libinit$$00000021) for __rt_lib_init_clock_1
    libinit.o(.ARM.Collect$$libinit$$00000000) refers (Special) to libinit2.o(.ARM.Collect$$libinit$$00000032) for __rt_lib_init_cpp_1
    libinit.o(.ARM.Collect$$libinit$$00000000) refers (Special) to libinit2.o(.ARM.Collect$$libinit$$00000030) for __rt_lib_init_exceptions_1
    libinit.o(.ARM.Collect$$libinit$$00000000) refers (Special) to libinit2.o(.ARM.Collect$$libinit$$00000001) for __rt_lib_init_fp_1
    libinit.o(.ARM.Collect$$libinit$$00000000) refers (Special) to libinit2.o(.ARM.Collect$$libinit$$0000001F) for __rt_lib_init_fp_trap_1
    libinit.o(.ARM.Collect$$libinit$$00000000) refers (Special) to libinit2.o(.ARM.Collect$$libinit$$00000023) for __rt_lib_init_getenv_1
    libinit.o(.ARM.Collect$$libinit$$00000000) refers (Special) to libinit2.o(.ARM.Collect$$libinit$$0000000A) for __rt_lib_init_heap_1
    libinit.o(.ARM.Collect$$libinit$$00000000) refers (Special) to libinit2.o(.ARM.Collect$$libinit$$00000011) for __rt_lib_init_lc_collate_1
    libinit.o(.ARM.Collect$$libinit$$00000000) refers (Special) to libinit2.o(.ARM.Collect$$libinit$$00000013) for __rt_lib_init_lc_ctype_1
    libinit.o(.ARM.Collect$$libinit$$00000000) refers (Special) to libinit2.o(.ARM.Collect$$libinit$$00000015) for __rt_lib_init_lc_monetary_1
    libinit.o(.ARM.Collect$$libinit$$00000000) refers (Special) to libinit2.o(.ARM.Collect$$libinit$$00000017) for __rt_lib_init_lc_numeric_1
    libinit.o(.ARM.Collect$$libinit$$00000000) refers (Special) to libinit2.o(.ARM.Collect$$libinit$$00000019) for __rt_lib_init_lc_time_1
    libinit.o(.ARM.Collect$$libinit$$00000000) refers (Special) to libinit2.o(.ARM.Collect$$libinit$$00000004) for __rt_lib_init_preinit_1
    libinit.o(.ARM.Collect$$libinit$$00000000) refers (Special) to libinit2.o(.ARM.Collect$$libinit$$0000000E) for __rt_lib_init_rand_1
    libinit.o(.ARM.Collect$$libinit$$00000000) refers (Special) to libinit2.o(.ARM.Collect$$libinit$$00000033) for __rt_lib_init_return
    libinit.o(.ARM.Collect$$libinit$$00000000) refers (Special) to libinit2.o(.ARM.Collect$$libinit$$0000001D) for __rt_lib_init_signal_1
    libinit.o(.ARM.Collect$$libinit$$00000000) refers (Special) to libinit2.o(.ARM.Collect$$libinit$$00000025) for __rt_lib_init_stdio_1
    libinit.o(.ARM.Collect$$libinit$$00000000) refers (Special) to libinit2.o(.ARM.Collect$$libinit$$0000000C) for __rt_lib_init_user_alloc_1
    libshutdown2.o(.ARM.Collect$$libshutdown$$00000003) refers (Weak) to initio.o(.text) for _terminateio
    libshutdown2.o(.ARM.Collect$$libshutdown$$0000000D) refers (Weak) to term_alloc.o(.text) for _terminate_alloc
    istatus.o(x$fpl$ieeestatus) refers (Special) to usenofp.o(x$fpl$usenofp) for __I$use$fp
    scanf1.o(x$fpl$scanf1) refers to scanf_fp.o(.text) for _scanf_really_real
    fpclassify.o(i.__ARM_fpclassify) refers (Special) to usenofp.o(x$fpl$usenofp) for __I$use$fp
    sys_io.o(.text) refers (Special) to use_no_semi.o(.text) for __I$use$semihosting
    sys_io.o(.text) refers (Special) to indicate_semi.o(.text) for __semihosting_library_function
    sys_io.o(.text) refers to strlen.o(.text) for strlen
    sys_io_hlt.o(.text) refers (Special) to use_no_semi.o(.text) for __I$use$semihosting
    sys_io_hlt.o(.text) refers (Special) to indicate_semi.o(.text) for __semihosting_library_function
    sys_io_hlt.o(.text) refers to strlen.o(.text) for strlen
    rtexit.o(.ARM.Collect$$rtexit$$00000000) refers (Special) to rtexit2.o(.ARM.Collect$$rtexit$$00000004) for __rt_exit_exit
    rtexit.o(.ARM.Collect$$rtexit$$00000000) refers (Special) to rtexit2.o(.ARM.Collect$$rtexit$$00000003) for __rt_exit_ls
    rtexit.o(.ARM.Collect$$rtexit$$00000000) refers (Special) to rtexit2.o(.ARM.Collect$$rtexit$$00000002) for __rt_exit_prels_1
    rtexit.o(.ARM.exidx) refers (Special) to rtexit2.o(.ARM.Collect$$rtexit$$00000004) for __rt_exit_exit
    rtexit.o(.ARM.exidx) refers (Special) to rtexit2.o(.ARM.Collect$$rtexit$$00000003) for __rt_exit_ls
    rtexit.o(.ARM.exidx) refers (Special) to rtexit2.o(.ARM.Collect$$rtexit$$00000002) for __rt_exit_prels_1
    rtexit.o(.ARM.exidx) refers to rtexit.o(.ARM.Collect$$rtexit$$00000000) for .ARM.Collect$$rtexit$$00000000
    scanf_fp.o(.text) refers (Special) to usenofp.o(x$fpl$usenofp) for __I$use$fp
    scanf_fp.o(.text) refers (Special) to lc_numeric_c.o(locale$$code) for _get_lc_numeric
    scanf_fp.o(.text) refers to rt_errno_addr_intlibspace.o(.text) for __aeabi_errno_addr
    scanf_fp.o(.text) refers to istatus.o(x$fpl$ieeestatus) for __ieee_status
    scanf_fp.o(.text) refers to bigflt0.o(.text) for _btod_etento
    scanf_fp.o(.text) refers to btod.o(CL$$btod_emuld) for _btod_emuld
    scanf_fp.o(.text) refers to btod.o(CL$$btod_edivd) for _btod_edivd
    scanf_fp.o(.text) refers to rt_locale_intlibspace.o(.text) for __rt_locale
    scanf_fp.o(.text) refers to scanf2.o(x$fpl$scanf2) for _scanf_infnan
    scanf_fp.o(.text) refers to __printf_wp.o(i._is_digit) for _is_digit
    scanf_fp.o(.text) refers to fpconst.o(c$$dmax) for __dbl_max
    scanf_fp.o(.text) refers to fpconst.o(c$$dinf) for __huge_val
    scanf_fp.o(.text) refers to narrow.o(i.__mathlib_narrow) for __mathlib_narrow
    scanf_fp_accurate.o(.text) refers (Special) to usenofp.o(x$fpl$usenofp) for __I$use$fp
    scanf_fp_accurate.o(.text) refers (Special) to lc_numeric_c.o(locale$$code) for _get_lc_numeric
    scanf_fp_accurate.o(.text) refers to strlen.o(.text) for strlen
    scanf_fp_accurate.o(.text) refers to dtob_accurate.o(.text) for _dtob
    scanf_fp_accurate.o(.text) refers to rt_errno_addr_intlibspace.o(.text) for __aeabi_errno_addr
    scanf_fp_accurate.o(.text) refers to llshl.o(.text) for __aeabi_llsl
    scanf_fp_accurate.o(.text) refers to rt_locale_intlibspace.o(.text) for __rt_locale
    scanf_fp_accurate.o(.text) refers to scanf2.o(x$fpl$scanf2) for _scanf_infnan
    scanf_fp_accurate.o(.text) refers to __printf_wp.o(i._is_digit) for _is_digit
    scanf_fp_accurate.o(.text) refers to narrow.o(i.__mathlib_narrow) for __mathlib_narrow
    btod_accurate_common.o(.text) refers to llushr.o(.text) for __aeabi_llsr
    flsbuf.o(.text) refers to stdio.o(.text) for _deferredlazyseek
    flsbuf.o(.text) refers to sys_io.o(.text) for _sys_flen
    flsbuf.o(.text) refers to h1_alloc.o(.text) for malloc
    fseek.o(.text) refers to sys_io.o(.text) for _sys_istty
    fseek.o(.text) refers to ftell.o(.text) for _ftell_internal
    fseek.o(.text) refers to stdio.o(.text) for _seterr
    stdio.o(.text) refers to sys_io.o(.text) for _sys_seek
    defsig_rtred_inner.o(.text) refers to defsig_general.o(.text) for __default_signal_display
    defsig.o(CL$$defsig) refers to defsig_abrt_inner.o(.text) for __rt_SIGABRT_inner
    defsig.o(CL$$defsig) refers to defsig_fpe_inner.o(.text) for __rt_SIGFPE_inner
    defsig.o(CL$$defsig) refers to defsig_rtred_inner.o(.text) for __rt_SIGRTRED_inner
    defsig.o(CL$$defsig) refers to defsig_rtmem_inner.o(.text) for __rt_SIGRTMEM_inner
    _get_argv_nomalloc.o(.text) refers (Special) to hrguard.o(.text) for __heap_region$guard
    _get_argv_nomalloc.o(.text) refers to defsig_rtmem_outer.o(.text) for __rt_SIGRTMEM
    _get_argv_nomalloc.o(.text) refers to lto-llvm-7a7817.o(.text._sys_command_string) for _sys_command_string
    flsbuf_fwide.o(.text) refers to flsbuf.o(.text) for __flsbuf
    rtexit2.o(.ARM.Collect$$rtexit$$00000003) refers to libshutdown.o(.ARM.Collect$$libshutdown$$00000000) for __rt_lib_shutdown
    rtexit2.o(.ARM.Collect$$rtexit$$00000004) refers to lto-llvm-7a7817.o(.text._sys_exit) for _sys_exit
    rtexit2.o(.ARM.exidx) refers to rtexit2.o(.ARM.Collect$$rtexit$$00000001) for .ARM.Collect$$rtexit$$00000001
    rtexit2.o(.ARM.exidx) refers to rtexit2.o(.ARM.Collect$$rtexit$$00000003) for .ARM.Collect$$rtexit$$00000003
    rtexit2.o(.ARM.exidx) refers to rtexit2.o(.ARM.Collect$$rtexit$$00000004) for .ARM.Collect$$rtexit$$00000004
    _printf_char_file_locked.o(.text) refers to _printf_char_common.o(.text) for _printf_char_common
    _printf_char_file_locked.o(.text) refers to fputc.o(i._fputc$unlocked) for _fputc$unlocked
    dtob_accurate.o(.text) refers to llshl.o(.text) for __aeabi_llsl
    dtob_accurate.o(.text) refers to btod_accurate_common.o(.text) for _btod_pow
    dtob_accurate.o(.text) refers to dtob_accurate.o(.constdata) for .constdata
    ftell.o(.text) refers to rt_errno_addr_intlibspace.o(.text) for __aeabi_errno_addr
    fwritefast.o(.text) refers to stdio.o(.text) for _writebuf
    fwritefast.o(.text) refers to flsbuf.o(.text) for __flsbuf_byte
    fwritefast.o(.text) refers to rt_memcpy_v6.o(.text) for __aeabi_memcpy
    fwritefast_locked.o(.text) refers to stdio.o(.text) for _writebuf
    fwritefast_locked.o(.text) refers to flsbuf.o(.text) for __flsbuf_byte
    fwritefast_locked.o(.text) refers to rt_memcpy_v6.o(.text) for __aeabi_memcpy
    defsig_fpe_inner.o(.text) refers to defsig_general.o(.text) for __default_signal_display
    defsig_stak_inner.o(.text) refers to defsig_general.o(.text) for __default_signal_display
    defsig_pvfn_inner.o(.text) refers to defsig_general.o(.text) for __default_signal_display
    defsig_cppl_inner.o(.text) refers to defsig_general.o(.text) for __default_signal_display
    defsig_segv_inner.o(.text) refers to defsig_general.o(.text) for __default_signal_display
    defsig_other.o(.text) refers to defsig_general.o(.text) for __default_signal_display
    assert_stdio.o(.text) refers to fputs.o(.text) for fputs
    assert_stdio.o(.text) refers to fflush.o(.text) for fflush
    assert_stdio.o(.text) refers to stdio_streams.o(.bss) for __stderr
    fpconst.o(c$$dinf) refers (Special) to usenofp.o(x$fpl$usenofp) for __I$use$fp
    fpconst.o(c$$dnan) refers (Special) to usenofp.o(x$fpl$usenofp) for __I$use$fp
    fpconst.o(c$$finf) refers (Special) to usenofp.o(x$fpl$usenofp) for __I$use$fp
    fpconst.o(c$$dmax) refers (Special) to usenofp.o(x$fpl$usenofp) for __I$use$fp
    scanf2.o(x$fpl$scanf2) refers to scanf_hexfp.o(.text) for _scanf_really_hex_real
    scanf2.o(x$fpl$scanf2) refers to scanf_infnan.o(.text) for _scanf_really_infnan
    scanf2b.o(x$fpl$scanf2) refers to scanf_hexfp.o(.text) for _scanf_really_hex_real
    scanf2b.o(x$fpl$scanf2) refers to scanf_infnan.o(.text) for _scanf_really_infnan
    narrow.o(i.__hardfp___mathlib_tofloat) refers (Special) to usenofp.o(x$fpl$usenofp) for __I$use$fp
    narrow.o(i.__hardfp___mathlib_tofloat) refers to frexp.o(i.frexp) for frexp
    narrow.o(i.__hardfp___mathlib_tofloat) refers to _rserrno.o(.text) for __set_errno
    narrow.o(i.__mathlib_narrow) refers (Special) to usenofp.o(x$fpl$usenofp) for __I$use$fp
    narrow.o(i.__mathlib_narrow) refers to narrow.o(i.__hardfp___mathlib_tofloat) for __hardfp___mathlib_tofloat
    narrow.o(i.__mathlib_tofloat) refers (Special) to usenofp.o(x$fpl$usenofp) for __I$use$fp
    narrow.o(i.__mathlib_tofloat) refers to narrow.o(i.__hardfp___mathlib_tofloat) for __hardfp___mathlib_tofloat
    narrow.o(i.__softfp___mathlib_tofloat) refers (Special) to usenofp.o(x$fpl$usenofp) for __I$use$fp
    narrow.o(i.__softfp___mathlib_tofloat) refers to narrow.o(i.__hardfp___mathlib_tofloat) for __hardfp___mathlib_tofloat
    scanf_hexfp.o(.text) refers to _chval.o(.text) for _chval
    scanf_hexfp.o(.text) refers to llshl.o(.text) for __aeabi_llsl
    scanf_hexfp.o(.text) refers to ldexp.o(i.__support_ldexp) for __support_ldexp
    scanf_hexfp.o(.text) refers to narrow.o(i.__mathlib_narrow) for __mathlib_narrow
    fflush.o(.text) refers to stdio.o(.text) for _fflush
    fflush.o(.text) refers to fseek.o(.text) for _fseek
    fflush.o(.text) refers to stdio_streams.o(.bss) for __stdin
    fputs.o(.text) refers to fputc.o(i.fputc) for fputc
    fflush_locked.o(.text) refers to stdio.o(.text) for _fflush
    fflush_locked.o(.text) refers to fseek.o(.text) for _fseek
    fflush_locked.o(.text) refers to fflush.o(.text) for _do_fflush
    fflush_locked.o(.text) refers to streamlock.o(.data) for _stream_list_lock
    fflush_locked.o(.text) refers to stdio_streams.o(.bss) for __stdin
    libshutdown.o(.ARM.Collect$$libshutdown$$00000000) refers (Special) to libshutdown2.o(.ARM.Collect$$libshutdown$$00000002) for __rt_lib_shutdown_cpp_1
    libshutdown.o(.ARM.Collect$$libshutdown$$00000000) refers (Special) to libshutdown2.o(.ARM.Collect$$libshutdown$$00000007) for __rt_lib_shutdown_fp_trap_1
    libshutdown.o(.ARM.Collect$$libshutdown$$00000000) refers (Special) to libshutdown2.o(.ARM.Collect$$libshutdown$$0000000F) for __rt_lib_shutdown_heap_1
    libshutdown.o(.ARM.Collect$$libshutdown$$00000000) refers (Special) to libshutdown2.o(.ARM.Collect$$libshutdown$$00000010) for __rt_lib_shutdown_return
    libshutdown.o(.ARM.Collect$$libshutdown$$00000000) refers (Special) to libshutdown2.o(.ARM.Collect$$libshutdown$$0000000A) for __rt_lib_shutdown_signal_1
    libshutdown.o(.ARM.Collect$$libshutdown$$00000000) refers (Special) to libshutdown2.o(.ARM.Collect$$libshutdown$$00000004) for __rt_lib_shutdown_stdio_1
    libshutdown.o(.ARM.Collect$$libshutdown$$00000000) refers (Special) to libshutdown2.o(.ARM.Collect$$libshutdown$$0000000C) for __rt_lib_shutdown_user_alloc_1
    frexp.o(i.__hardfp_frexp) refers (Special) to usenofp.o(x$fpl$usenofp) for __I$use$fp
    frexp.o(i.__softfp_frexp) refers (Special) to usenofp.o(x$fpl$usenofp) for __I$use$fp
    frexp.o(i.frexp) refers (Special) to usenofp.o(x$fpl$usenofp) for __I$use$fp
    ldexp.o(i.__hardfp_ldexp) refers (Special) to usenofp.o(x$fpl$usenofp) for __I$use$fp
    ldexp.o(i.__hardfp_ldexp) refers to scalbn.o(x$fpl$scalbn) for __ARM_scalbn
    ldexp.o(i.__hardfp_ldexp) refers to _rserrno.o(.text) for __set_errno
    ldexp.o(i.__hardfp_ldexp) refers to dunder.o(i.__mathlib_dbl_underflow) for __mathlib_dbl_underflow
    ldexp.o(i.__hardfp_ldexp) refers to dunder.o(i.__mathlib_dbl_overflow) for __mathlib_dbl_overflow
    ldexp.o(i.__softfp_ldexp) refers (Special) to usenofp.o(x$fpl$usenofp) for __I$use$fp
    ldexp.o(i.__softfp_ldexp) refers to scalbn.o(x$fpl$scalbn) for __ARM_scalbn
    ldexp.o(i.__softfp_ldexp) refers to _rserrno.o(.text) for __set_errno
    ldexp.o(i.__softfp_ldexp) refers to dunder.o(i.__mathlib_dbl_underflow) for __mathlib_dbl_underflow
    ldexp.o(i.__softfp_ldexp) refers to dunder.o(i.__mathlib_dbl_overflow) for __mathlib_dbl_overflow
    ldexp.o(i.__support_ldexp) refers (Special) to usenofp.o(x$fpl$usenofp) for __I$use$fp
    ldexp.o(i.__support_ldexp) refers to scalbn.o(x$fpl$scalbn) for __ARM_scalbn
    ldexp.o(i.__support_ldexp) refers to _rserrno.o(.text) for __set_errno
    ldexp.o(i.__support_ldexp) refers to dunder.o(i.__mathlib_dbl_underflow) for __mathlib_dbl_underflow
    ldexp.o(i.__support_ldexp) refers to dunder.o(i.__mathlib_dbl_overflow) for __mathlib_dbl_overflow
    ldexp.o(i.ldexp) refers (Special) to usenofp.o(x$fpl$usenofp) for __I$use$fp
    ldexp.o(i.ldexp) refers to scalbn.o(x$fpl$scalbn) for __ARM_scalbn
    ldexp.o(i.ldexp) refers to _rserrno.o(.text) for __set_errno
    ldexp.o(i.ldexp) refers to dunder.o(i.__mathlib_dbl_underflow) for __mathlib_dbl_underflow
    ldexp.o(i.ldexp) refers to dunder.o(i.__mathlib_dbl_overflow) for __mathlib_dbl_overflow
    ldexp_x.o(i.____hardfp_ldexp$lsc) refers (Special) to usenofp.o(x$fpl$usenofp) for __I$use$fp
    ldexp_x.o(i.____hardfp_ldexp$lsc) refers to scalbn.o(x$fpl$scalbn) for __ARM_scalbn
    ldexp_x.o(i.____hardfp_ldexp$lsc) refers to _rserrno.o(.text) for __set_errno
    ldexp_x.o(i.____hardfp_ldexp$lsc) refers to qnan.o(.constdata) for __mathlib_zero
    ldexp_x.o(i.____softfp_ldexp$lsc) refers (Special) to usenofp.o(x$fpl$usenofp) for __I$use$fp
    ldexp_x.o(i.____softfp_ldexp$lsc) refers to scalbn.o(x$fpl$scalbn) for __ARM_scalbn
    ldexp_x.o(i.____softfp_ldexp$lsc) refers to _rserrno.o(.text) for __set_errno
    ldexp_x.o(i.____softfp_ldexp$lsc) refers to qnan.o(.constdata) for __mathlib_zero
    ldexp_x.o(i.____support_ldexp$lsc) refers (Special) to usenofp.o(x$fpl$usenofp) for __I$use$fp
    ldexp_x.o(i.____support_ldexp$lsc) refers to scalbn.o(x$fpl$scalbn) for __ARM_scalbn
    ldexp_x.o(i.____support_ldexp$lsc) refers to _rserrno.o(.text) for __set_errno
    ldexp_x.o(i.____support_ldexp$lsc) refers to qnan.o(.constdata) for __mathlib_zero
    ldexp_x.o(i.__ldexp$lsc) refers (Special) to usenofp.o(x$fpl$usenofp) for __I$use$fp
    ldexp_x.o(i.__ldexp$lsc) refers to scalbn.o(x$fpl$scalbn) for __ARM_scalbn
    ldexp_x.o(i.__ldexp$lsc) refers to _rserrno.o(.text) for __set_errno
    ldexp_x.o(i.__ldexp$lsc) refers to qnan.o(.constdata) for __mathlib_zero
    scalbn.o(x$fpl$scalbn) refers (Special) to usenofp.o(x$fpl$usenofp) for __I$use$fp
    scalbn.o(x$fpl$scalbn) refers to dcheck1.o(x$fpl$dcheck1) for __fpl_dcheck_NaN1
    qnan.o(.constdata) refers (Special) to usenofp.o(x$fpl$usenofp) for __I$use$fp
    dcheck1.o(x$fpl$dcheck1) refers (Special) to usenofp.o(x$fpl$usenofp) for __I$use$fp
    dcheck1.o(x$fpl$dcheck1) refers to retnan.o(x$fpl$retnan) for __fpl_return_NaN
    retnan.o(x$fpl$retnan) refers (Special) to usenofp.o(x$fpl$usenofp) for __I$use$fp
    retnan.o(x$fpl$retnan) refers to trapv.o(x$fpl$trapveneer) for __fpl_cmpreturn
    trapv.o(x$fpl$trapveneer) refers (Special) to usenofp.o(x$fpl$usenofp) for __I$use$fp
    lto-llvm-7a7817.o(.text) refers (Special) to use_no_semi_2.o(.text) for __use_no_semihosting
    lto-llvm-7a7817.o(.text._sys_exit) refers (Special) to use_no_semi_2.o(.text) for __use_no_semihosting
    lto-llvm-7a7817.o(.ARM.exidx.text._sys_exit) refers (Special) to use_no_semi_2.o(.text) for __use_no_semihosting
    lto-llvm-7a7817.o(.ARM.exidx.text._sys_exit) refers to lto-llvm-7a7817.o(.text._sys_exit) for [Anonymous Symbol]
    lto-llvm-7a7817.o(.text._ttywrch) refers (Special) to use_no_semi_2.o(.text) for __use_no_semihosting
    lto-llvm-7a7817.o(.ARM.exidx.text._ttywrch) refers (Special) to use_no_semi_2.o(.text) for __use_no_semihosting
    lto-llvm-7a7817.o(.ARM.exidx.text._ttywrch) refers to lto-llvm-7a7817.o(.text._ttywrch) for [Anonymous Symbol]
    lto-llvm-7a7817.o(.text._sys_command_string) refers (Special) to use_no_semi_2.o(.text) for __use_no_semihosting
    lto-llvm-7a7817.o(.ARM.exidx.text._sys_command_string) refers (Special) to use_no_semi_2.o(.text) for __use_no_semihosting
    lto-llvm-7a7817.o(.ARM.exidx.text._sys_command_string) refers to lto-llvm-7a7817.o(.text._sys_command_string) for [Anonymous Symbol]
    lto-llvm-7a7817.o(.text.main) refers (Special) to use_no_semi_2.o(.text) for __use_no_semihosting
    lto-llvm-7a7817.o(.text.main) refers to lto-llvm-7a7817.o(.text.HAL_Init) for HAL_Init
    lto-llvm-7a7817.o(.text.main) refers to lto-llvm-7a7817.o(.text.SystemClock_Config) for SystemClock_Config
    lto-llvm-7a7817.o(.text.main) refers to lto-llvm-7a7817.o(.text.MX_GPIO_Init) for MX_GPIO_Init
    lto-llvm-7a7817.o(.text.main) refers to lto-llvm-7a7817.o(.text.MX_DMA_Init) for MX_DMA_Init
    lto-llvm-7a7817.o(.text.main) refers to lto-llvm-7a7817.o(.text.MX_USART1_UART_Init) for MX_USART1_UART_Init
    lto-llvm-7a7817.o(.text.main) refers to lto-llvm-7a7817.o(.text.MX_TIM1_Init) for MX_TIM1_Init
    lto-llvm-7a7817.o(.text.main) refers to lto-llvm-7a7817.o(.text.MX_TIM2_Init) for MX_TIM2_Init
    lto-llvm-7a7817.o(.text.main) refers to lto-llvm-7a7817.o(.text.MX_TIM3_Init) for MX_TIM3_Init
    lto-llvm-7a7817.o(.text.main) refers to lto-llvm-7a7817.o(.text.MX_TIM4_Init) for MX_TIM4_Init
    lto-llvm-7a7817.o(.text.main) refers to lto-llvm-7a7817.o(.text.MX_TIM5_Init) for MX_TIM5_Init
    lto-llvm-7a7817.o(.text.main) refers to lto-llvm-7a7817.o(.text.MX_TIM6_Init) for MX_TIM6_Init
    lto-llvm-7a7817.o(.text.main) refers to lto-llvm-7a7817.o(.text.MX_UART7_Init) for MX_UART7_Init
    lto-llvm-7a7817.o(.text.main) refers to lto-llvm-7a7817.o(.text.MX_UART5_Init) for MX_UART5_Init
    lto-llvm-7a7817.o(.text.main) refers to lto-llvm-7a7817.o(.text.MX_UART4_Init) for MX_UART4_Init
    lto-llvm-7a7817.o(.text.main) refers to lto-llvm-7a7817.o(.text.MX_TIM7_Init) for MX_TIM7_Init
    lto-llvm-7a7817.o(.text.main) refers to lto-llvm-7a7817.o(.bss.htim2) for htim2
    lto-llvm-7a7817.o(.text.main) refers to lto-llvm-7a7817.o(.text.HAL_TIM_Encoder_Start) for HAL_TIM_Encoder_Start
    lto-llvm-7a7817.o(.text.main) refers to lto-llvm-7a7817.o(.bss.htim3) for htim3
    lto-llvm-7a7817.o(.text.main) refers to lto-llvm-7a7817.o(.bss.htim4) for htim4
    lto-llvm-7a7817.o(.text.main) refers to lto-llvm-7a7817.o(.bss.htim5) for htim5
    lto-llvm-7a7817.o(.text.main) refers to lto-llvm-7a7817.o(.text.HAL_TIM_PWM_Start) for HAL_TIM_PWM_Start
    lto-llvm-7a7817.o(.text.main) refers to lto-llvm-7a7817.o(.text.Enable_Motors) for Enable_Motors
    lto-llvm-7a7817.o(.text.main) refers to lto-llvm-7a7817.o(.text.HAL_TIM_Base_Start_IT) for HAL_TIM_Base_Start_IT
    lto-llvm-7a7817.o(.text.main) refers to lto-llvm-7a7817.o(.text.setup) for setup
    lto-llvm-7a7817.o(.text.main) refers to lto-llvm-7a7817.o(.text.LL_TIM_EnableIT_UPDATE) for LL_TIM_EnableIT_UPDATE
    lto-llvm-7a7817.o(.text.main) refers to lto-llvm-7a7817.o(.text.LL_TIM_EnableCounter) for LL_TIM_EnableCounter
    lto-llvm-7a7817.o(.text.main) refers to lto-llvm-7a7817.o(.bss.delay_flag) for delay_flag
    lto-llvm-7a7817.o(.text.main) refers to lto-llvm-7a7817.o(.text.loop) for loop
    lto-llvm-7a7817.o(.text.main) refers to lto-llvm-7a7817.o(.text.Servo_Server) for Servo_Server
    lto-llvm-7a7817.o(.text.main) refers to lto-llvm-7a7817.o(.bss.ledstate) for ledstate
    lto-llvm-7a7817.o(.text.main) refers to lto-llvm-7a7817.o(.text.HAL_GPIO_WritePin) for HAL_GPIO_WritePin
    lto-llvm-7a7817.o(.ARM.exidx.text.main) refers (Special) to use_no_semi_2.o(.text) for __use_no_semihosting
    lto-llvm-7a7817.o(.ARM.exidx.text.main) refers to lto-llvm-7a7817.o(.text.main) for [Anonymous Symbol]
    lto-llvm-7a7817.o(.text.SystemClock_Config) refers (Special) to use_no_semi_2.o(.text) for __use_no_semihosting
    lto-llvm-7a7817.o(.text.SystemClock_Config) refers to rt_memclr_w.o(.text) for __aeabi_memclr4
    lto-llvm-7a7817.o(.text.SystemClock_Config) refers to lto-llvm-7a7817.o(.text.HAL_PWREx_ConfigSupply) for HAL_PWREx_ConfigSupply
    lto-llvm-7a7817.o(.text.SystemClock_Config) refers to lto-llvm-7a7817.o(.text.HAL_RCC_OscConfig) for HAL_RCC_OscConfig
    lto-llvm-7a7817.o(.text.SystemClock_Config) refers to lto-llvm-7a7817.o(.text.Error_Handler) for Error_Handler
    lto-llvm-7a7817.o(.text.SystemClock_Config) refers to lto-llvm-7a7817.o(.text.HAL_RCC_ClockConfig) for HAL_RCC_ClockConfig
    lto-llvm-7a7817.o(.ARM.exidx.text.SystemClock_Config) refers (Special) to use_no_semi_2.o(.text) for __use_no_semihosting
    lto-llvm-7a7817.o(.ARM.exidx.text.SystemClock_Config) refers to lto-llvm-7a7817.o(.text.SystemClock_Config) for [Anonymous Symbol]
    lto-llvm-7a7817.o(.text.LL_TIM_EnableIT_UPDATE) refers (Special) to use_no_semi_2.o(.text) for __use_no_semihosting
    lto-llvm-7a7817.o(.ARM.exidx.text.LL_TIM_EnableIT_UPDATE) refers (Special) to use_no_semi_2.o(.text) for __use_no_semihosting
    lto-llvm-7a7817.o(.ARM.exidx.text.LL_TIM_EnableIT_UPDATE) refers to lto-llvm-7a7817.o(.text.LL_TIM_EnableIT_UPDATE) for [Anonymous Symbol]
    lto-llvm-7a7817.o(.text.LL_TIM_EnableCounter) refers (Special) to use_no_semi_2.o(.text) for __use_no_semihosting
    lto-llvm-7a7817.o(.ARM.exidx.text.LL_TIM_EnableCounter) refers (Special) to use_no_semi_2.o(.text) for __use_no_semihosting
    lto-llvm-7a7817.o(.ARM.exidx.text.LL_TIM_EnableCounter) refers to lto-llvm-7a7817.o(.text.LL_TIM_EnableCounter) for [Anonymous Symbol]
    lto-llvm-7a7817.o(.text.Error_Handler) refers (Special) to use_no_semi_2.o(.text) for __use_no_semihosting
    lto-llvm-7a7817.o(.ARM.exidx.text.Error_Handler) refers (Special) to use_no_semi_2.o(.text) for __use_no_semihosting
    lto-llvm-7a7817.o(.ARM.exidx.text.Error_Handler) refers to lto-llvm-7a7817.o(.text.Error_Handler) for [Anonymous Symbol]
    lto-llvm-7a7817.o(.text.MX_GPIO_Init) refers (Special) to use_no_semi_2.o(.text) for __use_no_semihosting
    lto-llvm-7a7817.o(.text.MX_GPIO_Init) refers to lto-llvm-7a7817.o(.text.HAL_GPIO_WritePin) for HAL_GPIO_WritePin
    lto-llvm-7a7817.o(.text.MX_GPIO_Init) refers to lto-llvm-7a7817.o(.text.HAL_GPIO_Init) for HAL_GPIO_Init
    lto-llvm-7a7817.o(.text.MX_GPIO_Init) refers to lto-llvm-7a7817.o(.text.HAL_NVIC_SetPriority) for HAL_NVIC_SetPriority
    lto-llvm-7a7817.o(.text.MX_GPIO_Init) refers to lto-llvm-7a7817.o(.text.HAL_NVIC_EnableIRQ) for HAL_NVIC_EnableIRQ
    lto-llvm-7a7817.o(.ARM.exidx.text.MX_GPIO_Init) refers (Special) to use_no_semi_2.o(.text) for __use_no_semihosting
    lto-llvm-7a7817.o(.ARM.exidx.text.MX_GPIO_Init) refers to lto-llvm-7a7817.o(.text.MX_GPIO_Init) for [Anonymous Symbol]
    lto-llvm-7a7817.o(.text.MX_DMA_Init) refers (Special) to use_no_semi_2.o(.text) for __use_no_semihosting
    lto-llvm-7a7817.o(.text.MX_DMA_Init) refers to lto-llvm-7a7817.o(.text.HAL_NVIC_SetPriority) for HAL_NVIC_SetPriority
    lto-llvm-7a7817.o(.text.MX_DMA_Init) refers to lto-llvm-7a7817.o(.text.HAL_NVIC_EnableIRQ) for HAL_NVIC_EnableIRQ
    lto-llvm-7a7817.o(.ARM.exidx.text.MX_DMA_Init) refers (Special) to use_no_semi_2.o(.text) for __use_no_semihosting
    lto-llvm-7a7817.o(.ARM.exidx.text.MX_DMA_Init) refers to lto-llvm-7a7817.o(.text.MX_DMA_Init) for [Anonymous Symbol]
    lto-llvm-7a7817.o(.text.MX_TIM1_Init) refers (Special) to use_no_semi_2.o(.text) for __use_no_semihosting
    lto-llvm-7a7817.o(.text.MX_TIM1_Init) refers to rt_memclr_w.o(.text) for __aeabi_memclr4
    lto-llvm-7a7817.o(.text.MX_TIM1_Init) refers to lto-llvm-7a7817.o(.bss.htim1) for htim1
    lto-llvm-7a7817.o(.text.MX_TIM1_Init) refers to lto-llvm-7a7817.o(.text.HAL_TIM_PWM_Init) for HAL_TIM_PWM_Init
    lto-llvm-7a7817.o(.text.MX_TIM1_Init) refers to lto-llvm-7a7817.o(.text.Error_Handler) for Error_Handler
    lto-llvm-7a7817.o(.text.MX_TIM1_Init) refers to lto-llvm-7a7817.o(.text.HAL_TIMEx_MasterConfigSynchronization) for HAL_TIMEx_MasterConfigSynchronization
    lto-llvm-7a7817.o(.text.MX_TIM1_Init) refers to lto-llvm-7a7817.o(.text.HAL_TIM_PWM_ConfigChannel) for HAL_TIM_PWM_ConfigChannel
    lto-llvm-7a7817.o(.text.MX_TIM1_Init) refers to lto-llvm-7a7817.o(.text.HAL_TIMEx_ConfigBreakDeadTime) for HAL_TIMEx_ConfigBreakDeadTime
    lto-llvm-7a7817.o(.text.MX_TIM1_Init) refers to lto-llvm-7a7817.o(.text.HAL_TIM_MspPostInit) for HAL_TIM_MspPostInit
    lto-llvm-7a7817.o(.ARM.exidx.text.MX_TIM1_Init) refers (Special) to use_no_semi_2.o(.text) for __use_no_semihosting
    lto-llvm-7a7817.o(.ARM.exidx.text.MX_TIM1_Init) refers to lto-llvm-7a7817.o(.text.MX_TIM1_Init) for [Anonymous Symbol]
    lto-llvm-7a7817.o(.text.HAL_TIM_MspPostInit) refers (Special) to use_no_semi_2.o(.text) for __use_no_semihosting
    lto-llvm-7a7817.o(.text.HAL_TIM_MspPostInit) refers to lto-llvm-7a7817.o(.bss.htim1) for htim1
    lto-llvm-7a7817.o(.text.HAL_TIM_MspPostInit) refers to lto-llvm-7a7817.o(.text.HAL_GPIO_Init) for HAL_GPIO_Init
    lto-llvm-7a7817.o(.ARM.exidx.text.HAL_TIM_MspPostInit) refers (Special) to use_no_semi_2.o(.text) for __use_no_semihosting
    lto-llvm-7a7817.o(.ARM.exidx.text.HAL_TIM_MspPostInit) refers to lto-llvm-7a7817.o(.text.HAL_TIM_MspPostInit) for [Anonymous Symbol]
    lto-llvm-7a7817.o(.text.MX_TIM2_Init) refers (Special) to use_no_semi_2.o(.text) for __use_no_semihosting
    lto-llvm-7a7817.o(.text.MX_TIM2_Init) refers to rt_memclr_w.o(.text) for __aeabi_memclr4
    lto-llvm-7a7817.o(.text.MX_TIM2_Init) refers to lto-llvm-7a7817.o(.bss.htim2) for htim2
    lto-llvm-7a7817.o(.text.MX_TIM2_Init) refers to lto-llvm-7a7817.o(.text.HAL_TIM_Encoder_Init) for HAL_TIM_Encoder_Init
    lto-llvm-7a7817.o(.text.MX_TIM2_Init) refers to lto-llvm-7a7817.o(.text.Error_Handler) for Error_Handler
    lto-llvm-7a7817.o(.text.MX_TIM2_Init) refers to lto-llvm-7a7817.o(.text.HAL_TIMEx_MasterConfigSynchronization) for HAL_TIMEx_MasterConfigSynchronization
    lto-llvm-7a7817.o(.ARM.exidx.text.MX_TIM2_Init) refers (Special) to use_no_semi_2.o(.text) for __use_no_semihosting
    lto-llvm-7a7817.o(.ARM.exidx.text.MX_TIM2_Init) refers to lto-llvm-7a7817.o(.text.MX_TIM2_Init) for [Anonymous Symbol]
    lto-llvm-7a7817.o(.text.MX_TIM3_Init) refers (Special) to use_no_semi_2.o(.text) for __use_no_semihosting
    lto-llvm-7a7817.o(.text.MX_TIM3_Init) refers to rt_memclr_w.o(.text) for __aeabi_memclr4
    lto-llvm-7a7817.o(.text.MX_TIM3_Init) refers to lto-llvm-7a7817.o(.bss.htim3) for htim3
    lto-llvm-7a7817.o(.text.MX_TIM3_Init) refers to lto-llvm-7a7817.o(.text.HAL_TIM_Encoder_Init) for HAL_TIM_Encoder_Init
    lto-llvm-7a7817.o(.text.MX_TIM3_Init) refers to lto-llvm-7a7817.o(.text.Error_Handler) for Error_Handler
    lto-llvm-7a7817.o(.text.MX_TIM3_Init) refers to lto-llvm-7a7817.o(.text.HAL_TIMEx_MasterConfigSynchronization) for HAL_TIMEx_MasterConfigSynchronization
    lto-llvm-7a7817.o(.ARM.exidx.text.MX_TIM3_Init) refers (Special) to use_no_semi_2.o(.text) for __use_no_semihosting
    lto-llvm-7a7817.o(.ARM.exidx.text.MX_TIM3_Init) refers to lto-llvm-7a7817.o(.text.MX_TIM3_Init) for [Anonymous Symbol]
    lto-llvm-7a7817.o(.text.MX_TIM4_Init) refers (Special) to use_no_semi_2.o(.text) for __use_no_semihosting
    lto-llvm-7a7817.o(.text.MX_TIM4_Init) refers to rt_memclr_w.o(.text) for __aeabi_memclr4
    lto-llvm-7a7817.o(.text.MX_TIM4_Init) refers to lto-llvm-7a7817.o(.bss.htim4) for htim4
    lto-llvm-7a7817.o(.text.MX_TIM4_Init) refers to lto-llvm-7a7817.o(.text.HAL_TIM_Encoder_Init) for HAL_TIM_Encoder_Init
    lto-llvm-7a7817.o(.text.MX_TIM4_Init) refers to lto-llvm-7a7817.o(.text.Error_Handler) for Error_Handler
    lto-llvm-7a7817.o(.text.MX_TIM4_Init) refers to lto-llvm-7a7817.o(.text.HAL_TIMEx_MasterConfigSynchronization) for HAL_TIMEx_MasterConfigSynchronization
    lto-llvm-7a7817.o(.ARM.exidx.text.MX_TIM4_Init) refers (Special) to use_no_semi_2.o(.text) for __use_no_semihosting
    lto-llvm-7a7817.o(.ARM.exidx.text.MX_TIM4_Init) refers to lto-llvm-7a7817.o(.text.MX_TIM4_Init) for [Anonymous Symbol]
    lto-llvm-7a7817.o(.text.MX_TIM5_Init) refers (Special) to use_no_semi_2.o(.text) for __use_no_semihosting
    lto-llvm-7a7817.o(.text.MX_TIM5_Init) refers to rt_memclr_w.o(.text) for __aeabi_memclr4
    lto-llvm-7a7817.o(.text.MX_TIM5_Init) refers to lto-llvm-7a7817.o(.bss.htim5) for htim5
    lto-llvm-7a7817.o(.text.MX_TIM5_Init) refers to lto-llvm-7a7817.o(.text.HAL_TIM_Encoder_Init) for HAL_TIM_Encoder_Init
    lto-llvm-7a7817.o(.text.MX_TIM5_Init) refers to lto-llvm-7a7817.o(.text.Error_Handler) for Error_Handler
    lto-llvm-7a7817.o(.text.MX_TIM5_Init) refers to lto-llvm-7a7817.o(.text.HAL_TIMEx_MasterConfigSynchronization) for HAL_TIMEx_MasterConfigSynchronization
    lto-llvm-7a7817.o(.ARM.exidx.text.MX_TIM5_Init) refers (Special) to use_no_semi_2.o(.text) for __use_no_semihosting
    lto-llvm-7a7817.o(.ARM.exidx.text.MX_TIM5_Init) refers to lto-llvm-7a7817.o(.text.MX_TIM5_Init) for [Anonymous Symbol]
    lto-llvm-7a7817.o(.text.MX_TIM6_Init) refers (Special) to use_no_semi_2.o(.text) for __use_no_semihosting
    lto-llvm-7a7817.o(.text.MX_TIM6_Init) refers to lto-llvm-7a7817.o(.bss.htim6) for htim6
    lto-llvm-7a7817.o(.text.MX_TIM6_Init) refers to lto-llvm-7a7817.o(.text.HAL_TIM_Base_Init) for HAL_TIM_Base_Init
    lto-llvm-7a7817.o(.text.MX_TIM6_Init) refers to lto-llvm-7a7817.o(.text.Error_Handler) for Error_Handler
    lto-llvm-7a7817.o(.text.MX_TIM6_Init) refers to lto-llvm-7a7817.o(.text.HAL_TIMEx_MasterConfigSynchronization) for HAL_TIMEx_MasterConfigSynchronization
    lto-llvm-7a7817.o(.ARM.exidx.text.MX_TIM6_Init) refers (Special) to use_no_semi_2.o(.text) for __use_no_semihosting
    lto-llvm-7a7817.o(.ARM.exidx.text.MX_TIM6_Init) refers to lto-llvm-7a7817.o(.text.MX_TIM6_Init) for [Anonymous Symbol]
    lto-llvm-7a7817.o(.text.MX_TIM7_Init) refers (Special) to use_no_semi_2.o(.text) for __use_no_semihosting
    lto-llvm-7a7817.o(.text.MX_TIM7_Init) refers to lto-llvm-7a7817.o(.text.LL_APB1_GRP1_EnableClock) for LL_APB1_GRP1_EnableClock
    lto-llvm-7a7817.o(.text.MX_TIM7_Init) refers to lto-llvm-7a7817.o(.text.__NVIC_GetPriorityGrouping) for __NVIC_GetPriorityGrouping
    lto-llvm-7a7817.o(.text.MX_TIM7_Init) refers to lto-llvm-7a7817.o(.text.NVIC_EncodePriority) for NVIC_EncodePriority
    lto-llvm-7a7817.o(.text.MX_TIM7_Init) refers to lto-llvm-7a7817.o(.text.__NVIC_SetPriority) for __NVIC_SetPriority
    lto-llvm-7a7817.o(.text.MX_TIM7_Init) refers to lto-llvm-7a7817.o(.text.__NVIC_EnableIRQ) for __NVIC_EnableIRQ
    lto-llvm-7a7817.o(.text.MX_TIM7_Init) refers to lto-llvm-7a7817.o(.text.LL_TIM_Init) for LL_TIM_Init
    lto-llvm-7a7817.o(.text.MX_TIM7_Init) refers to lto-llvm-7a7817.o(.text.LL_TIM_DisableARRPreload) for LL_TIM_DisableARRPreload
    lto-llvm-7a7817.o(.text.MX_TIM7_Init) refers to lto-llvm-7a7817.o(.text.LL_TIM_SetTriggerOutput) for LL_TIM_SetTriggerOutput
    lto-llvm-7a7817.o(.text.MX_TIM7_Init) refers to lto-llvm-7a7817.o(.text.LL_TIM_DisableMasterSlaveMode) for LL_TIM_DisableMasterSlaveMode
    lto-llvm-7a7817.o(.ARM.exidx.text.MX_TIM7_Init) refers (Special) to use_no_semi_2.o(.text) for __use_no_semihosting
    lto-llvm-7a7817.o(.ARM.exidx.text.MX_TIM7_Init) refers to lto-llvm-7a7817.o(.text.MX_TIM7_Init) for [Anonymous Symbol]
    lto-llvm-7a7817.o(.text.LL_APB1_GRP1_EnableClock) refers (Special) to use_no_semi_2.o(.text) for __use_no_semihosting
    lto-llvm-7a7817.o(.ARM.exidx.text.LL_APB1_GRP1_EnableClock) refers (Special) to use_no_semi_2.o(.text) for __use_no_semihosting
    lto-llvm-7a7817.o(.ARM.exidx.text.LL_APB1_GRP1_EnableClock) refers to lto-llvm-7a7817.o(.text.LL_APB1_GRP1_EnableClock) for [Anonymous Symbol]
    lto-llvm-7a7817.o(.text.__NVIC_GetPriorityGrouping) refers (Special) to use_no_semi_2.o(.text) for __use_no_semihosting
    lto-llvm-7a7817.o(.ARM.exidx.text.__NVIC_GetPriorityGrouping) refers (Special) to use_no_semi_2.o(.text) for __use_no_semihosting
    lto-llvm-7a7817.o(.ARM.exidx.text.__NVIC_GetPriorityGrouping) refers to lto-llvm-7a7817.o(.text.__NVIC_GetPriorityGrouping) for [Anonymous Symbol]
    lto-llvm-7a7817.o(.text.NVIC_EncodePriority) refers (Special) to use_no_semi_2.o(.text) for __use_no_semihosting
    lto-llvm-7a7817.o(.ARM.exidx.text.NVIC_EncodePriority) refers (Special) to use_no_semi_2.o(.text) for __use_no_semihosting
    lto-llvm-7a7817.o(.ARM.exidx.text.NVIC_EncodePriority) refers to lto-llvm-7a7817.o(.text.NVIC_EncodePriority) for [Anonymous Symbol]
    lto-llvm-7a7817.o(.text.__NVIC_SetPriority) refers (Special) to use_no_semi_2.o(.text) for __use_no_semihosting
    lto-llvm-7a7817.o(.ARM.exidx.text.__NVIC_SetPriority) refers (Special) to use_no_semi_2.o(.text) for __use_no_semihosting
    lto-llvm-7a7817.o(.ARM.exidx.text.__NVIC_SetPriority) refers to lto-llvm-7a7817.o(.text.__NVIC_SetPriority) for [Anonymous Symbol]
    lto-llvm-7a7817.o(.text.__NVIC_EnableIRQ) refers (Special) to use_no_semi_2.o(.text) for __use_no_semihosting
    lto-llvm-7a7817.o(.ARM.exidx.text.__NVIC_EnableIRQ) refers (Special) to use_no_semi_2.o(.text) for __use_no_semihosting
    lto-llvm-7a7817.o(.ARM.exidx.text.__NVIC_EnableIRQ) refers to lto-llvm-7a7817.o(.text.__NVIC_EnableIRQ) for [Anonymous Symbol]
    lto-llvm-7a7817.o(.text.LL_TIM_DisableARRPreload) refers (Special) to use_no_semi_2.o(.text) for __use_no_semihosting
    lto-llvm-7a7817.o(.ARM.exidx.text.LL_TIM_DisableARRPreload) refers (Special) to use_no_semi_2.o(.text) for __use_no_semihosting
    lto-llvm-7a7817.o(.ARM.exidx.text.LL_TIM_DisableARRPreload) refers to lto-llvm-7a7817.o(.text.LL_TIM_DisableARRPreload) for [Anonymous Symbol]
    lto-llvm-7a7817.o(.text.LL_TIM_SetTriggerOutput) refers (Special) to use_no_semi_2.o(.text) for __use_no_semihosting
    lto-llvm-7a7817.o(.ARM.exidx.text.LL_TIM_SetTriggerOutput) refers (Special) to use_no_semi_2.o(.text) for __use_no_semihosting
    lto-llvm-7a7817.o(.ARM.exidx.text.LL_TIM_SetTriggerOutput) refers to lto-llvm-7a7817.o(.text.LL_TIM_SetTriggerOutput) for [Anonymous Symbol]
    lto-llvm-7a7817.o(.text.LL_TIM_DisableMasterSlaveMode) refers (Special) to use_no_semi_2.o(.text) for __use_no_semihosting
    lto-llvm-7a7817.o(.ARM.exidx.text.LL_TIM_DisableMasterSlaveMode) refers (Special) to use_no_semi_2.o(.text) for __use_no_semihosting
    lto-llvm-7a7817.o(.ARM.exidx.text.LL_TIM_DisableMasterSlaveMode) refers to lto-llvm-7a7817.o(.text.LL_TIM_DisableMasterSlaveMode) for [Anonymous Symbol]
    lto-llvm-7a7817.o(.text.HAL_TIM_PWM_MspInit) refers (Special) to use_no_semi_2.o(.text) for __use_no_semihosting
    lto-llvm-7a7817.o(.ARM.exidx.text.HAL_TIM_PWM_MspInit) refers (Special) to use_no_semi_2.o(.text) for __use_no_semihosting
    lto-llvm-7a7817.o(.ARM.exidx.text.HAL_TIM_PWM_MspInit) refers to lto-llvm-7a7817.o(.text.HAL_TIM_PWM_MspInit) for [Anonymous Symbol]
    lto-llvm-7a7817.o(.text.HAL_TIM_Encoder_MspInit) refers (Special) to use_no_semi_2.o(.text) for __use_no_semihosting
    lto-llvm-7a7817.o(.text.HAL_TIM_Encoder_MspInit) refers to lto-llvm-7a7817.o(.text.HAL_GPIO_Init) for HAL_GPIO_Init
    lto-llvm-7a7817.o(.ARM.exidx.text.HAL_TIM_Encoder_MspInit) refers (Special) to use_no_semi_2.o(.text) for __use_no_semihosting
    lto-llvm-7a7817.o(.ARM.exidx.text.HAL_TIM_Encoder_MspInit) refers to lto-llvm-7a7817.o(.text.HAL_TIM_Encoder_MspInit) for [Anonymous Symbol]
    lto-llvm-7a7817.o(.text.HAL_TIM_Base_MspInit) refers (Special) to use_no_semi_2.o(.text) for __use_no_semihosting
    lto-llvm-7a7817.o(.text.HAL_TIM_Base_MspInit) refers to lto-llvm-7a7817.o(.text.HAL_NVIC_SetPriority) for HAL_NVIC_SetPriority
    lto-llvm-7a7817.o(.text.HAL_TIM_Base_MspInit) refers to lto-llvm-7a7817.o(.text.HAL_NVIC_EnableIRQ) for HAL_NVIC_EnableIRQ
    lto-llvm-7a7817.o(.ARM.exidx.text.HAL_TIM_Base_MspInit) refers (Special) to use_no_semi_2.o(.text) for __use_no_semihosting
    lto-llvm-7a7817.o(.ARM.exidx.text.HAL_TIM_Base_MspInit) refers to lto-llvm-7a7817.o(.text.HAL_TIM_Base_MspInit) for [Anonymous Symbol]
    lto-llvm-7a7817.o(.text.MX_UART4_Init) refers (Special) to use_no_semi_2.o(.text) for __use_no_semihosting
    lto-llvm-7a7817.o(.text.MX_UART4_Init) refers to lto-llvm-7a7817.o(.bss.huart4) for huart4
    lto-llvm-7a7817.o(.text.MX_UART4_Init) refers to lto-llvm-7a7817.o(.text.HAL_UART_Init) for HAL_UART_Init
    lto-llvm-7a7817.o(.text.MX_UART4_Init) refers to lto-llvm-7a7817.o(.text.Error_Handler) for Error_Handler
    lto-llvm-7a7817.o(.text.MX_UART4_Init) refers to lto-llvm-7a7817.o(.text.HAL_UARTEx_SetTxFifoThreshold) for HAL_UARTEx_SetTxFifoThreshold
    lto-llvm-7a7817.o(.text.MX_UART4_Init) refers to lto-llvm-7a7817.o(.text.HAL_UARTEx_SetRxFifoThreshold) for HAL_UARTEx_SetRxFifoThreshold
    lto-llvm-7a7817.o(.text.MX_UART4_Init) refers to lto-llvm-7a7817.o(.text.HAL_UARTEx_DisableFifoMode) for HAL_UARTEx_DisableFifoMode
    lto-llvm-7a7817.o(.ARM.exidx.text.MX_UART4_Init) refers (Special) to use_no_semi_2.o(.text) for __use_no_semihosting
    lto-llvm-7a7817.o(.ARM.exidx.text.MX_UART4_Init) refers to lto-llvm-7a7817.o(.text.MX_UART4_Init) for [Anonymous Symbol]
    lto-llvm-7a7817.o(.text.MX_UART5_Init) refers (Special) to use_no_semi_2.o(.text) for __use_no_semihosting
    lto-llvm-7a7817.o(.text.MX_UART5_Init) refers to lto-llvm-7a7817.o(.bss.huart5) for huart5
    lto-llvm-7a7817.o(.text.MX_UART5_Init) refers to lto-llvm-7a7817.o(.text.HAL_UART_Init) for HAL_UART_Init
    lto-llvm-7a7817.o(.text.MX_UART5_Init) refers to lto-llvm-7a7817.o(.text.Error_Handler) for Error_Handler
    lto-llvm-7a7817.o(.text.MX_UART5_Init) refers to lto-llvm-7a7817.o(.text.HAL_UARTEx_SetTxFifoThreshold) for HAL_UARTEx_SetTxFifoThreshold
    lto-llvm-7a7817.o(.text.MX_UART5_Init) refers to lto-llvm-7a7817.o(.text.HAL_UARTEx_SetRxFifoThreshold) for HAL_UARTEx_SetRxFifoThreshold
    lto-llvm-7a7817.o(.text.MX_UART5_Init) refers to lto-llvm-7a7817.o(.text.HAL_UARTEx_DisableFifoMode) for HAL_UARTEx_DisableFifoMode
    lto-llvm-7a7817.o(.ARM.exidx.text.MX_UART5_Init) refers (Special) to use_no_semi_2.o(.text) for __use_no_semihosting
    lto-llvm-7a7817.o(.ARM.exidx.text.MX_UART5_Init) refers to lto-llvm-7a7817.o(.text.MX_UART5_Init) for [Anonymous Symbol]
    lto-llvm-7a7817.o(.text.MX_UART7_Init) refers (Special) to use_no_semi_2.o(.text) for __use_no_semihosting
    lto-llvm-7a7817.o(.text.MX_UART7_Init) refers to lto-llvm-7a7817.o(.bss.huart7) for huart7
    lto-llvm-7a7817.o(.text.MX_UART7_Init) refers to lto-llvm-7a7817.o(.text.HAL_UART_Init) for HAL_UART_Init
    lto-llvm-7a7817.o(.text.MX_UART7_Init) refers to lto-llvm-7a7817.o(.text.Error_Handler) for Error_Handler
    lto-llvm-7a7817.o(.text.MX_UART7_Init) refers to lto-llvm-7a7817.o(.text.HAL_UARTEx_SetTxFifoThreshold) for HAL_UARTEx_SetTxFifoThreshold
    lto-llvm-7a7817.o(.text.MX_UART7_Init) refers to lto-llvm-7a7817.o(.text.HAL_UARTEx_SetRxFifoThreshold) for HAL_UARTEx_SetRxFifoThreshold
    lto-llvm-7a7817.o(.text.MX_UART7_Init) refers to lto-llvm-7a7817.o(.text.HAL_UARTEx_DisableFifoMode) for HAL_UARTEx_DisableFifoMode
    lto-llvm-7a7817.o(.ARM.exidx.text.MX_UART7_Init) refers (Special) to use_no_semi_2.o(.text) for __use_no_semihosting
    lto-llvm-7a7817.o(.ARM.exidx.text.MX_UART7_Init) refers to lto-llvm-7a7817.o(.text.MX_UART7_Init) for [Anonymous Symbol]
    lto-llvm-7a7817.o(.text.MX_USART1_UART_Init) refers (Special) to use_no_semi_2.o(.text) for __use_no_semihosting
    lto-llvm-7a7817.o(.text.MX_USART1_UART_Init) refers to lto-llvm-7a7817.o(.bss.huart1) for huart1
    lto-llvm-7a7817.o(.text.MX_USART1_UART_Init) refers to lto-llvm-7a7817.o(.text.HAL_UART_Init) for HAL_UART_Init
    lto-llvm-7a7817.o(.text.MX_USART1_UART_Init) refers to lto-llvm-7a7817.o(.text.Error_Handler) for Error_Handler
    lto-llvm-7a7817.o(.text.MX_USART1_UART_Init) refers to lto-llvm-7a7817.o(.text.HAL_UARTEx_SetTxFifoThreshold) for HAL_UARTEx_SetTxFifoThreshold
    lto-llvm-7a7817.o(.text.MX_USART1_UART_Init) refers to lto-llvm-7a7817.o(.text.HAL_UARTEx_SetRxFifoThreshold) for HAL_UARTEx_SetRxFifoThreshold
    lto-llvm-7a7817.o(.text.MX_USART1_UART_Init) refers to lto-llvm-7a7817.o(.text.HAL_UARTEx_DisableFifoMode) for HAL_UARTEx_DisableFifoMode
    lto-llvm-7a7817.o(.ARM.exidx.text.MX_USART1_UART_Init) refers (Special) to use_no_semi_2.o(.text) for __use_no_semihosting
    lto-llvm-7a7817.o(.ARM.exidx.text.MX_USART1_UART_Init) refers to lto-llvm-7a7817.o(.text.MX_USART1_UART_Init) for [Anonymous Symbol]
    lto-llvm-7a7817.o(.text.HAL_UART_MspInit) refers (Special) to use_no_semi_2.o(.text) for __use_no_semihosting
    lto-llvm-7a7817.o(.text.HAL_UART_MspInit) refers to rt_memclr_w.o(.text) for __aeabi_memclr4
    lto-llvm-7a7817.o(.text.HAL_UART_MspInit) refers to lto-llvm-7a7817.o(.text.HAL_RCCEx_PeriphCLKConfig) for HAL_RCCEx_PeriphCLKConfig
    lto-llvm-7a7817.o(.text.HAL_UART_MspInit) refers to lto-llvm-7a7817.o(.text.Error_Handler) for Error_Handler
    lto-llvm-7a7817.o(.text.HAL_UART_MspInit) refers to lto-llvm-7a7817.o(.text.HAL_GPIO_Init) for HAL_GPIO_Init
    lto-llvm-7a7817.o(.text.HAL_UART_MspInit) refers to lto-llvm-7a7817.o(.bss.hdma_usart1_rx) for hdma_usart1_rx
    lto-llvm-7a7817.o(.text.HAL_UART_MspInit) refers to lto-llvm-7a7817.o(.text.HAL_DMA_Init) for HAL_DMA_Init
    lto-llvm-7a7817.o(.text.HAL_UART_MspInit) refers to lto-llvm-7a7817.o(.bss.hdma_usart1_tx) for hdma_usart1_tx
    lto-llvm-7a7817.o(.text.HAL_UART_MspInit) refers to lto-llvm-7a7817.o(.text.HAL_NVIC_SetPriority) for HAL_NVIC_SetPriority
    lto-llvm-7a7817.o(.text.HAL_UART_MspInit) refers to lto-llvm-7a7817.o(.text.HAL_NVIC_EnableIRQ) for HAL_NVIC_EnableIRQ
    lto-llvm-7a7817.o(.ARM.exidx.text.HAL_UART_MspInit) refers (Special) to use_no_semi_2.o(.text) for __use_no_semihosting
    lto-llvm-7a7817.o(.ARM.exidx.text.HAL_UART_MspInit) refers to lto-llvm-7a7817.o(.text.HAL_UART_MspInit) for [Anonymous Symbol]
    lto-llvm-7a7817.o(.text.NMI_Handler) refers (Special) to use_no_semi_2.o(.text) for __use_no_semihosting
    lto-llvm-7a7817.o(.ARM.exidx.text.NMI_Handler) refers (Special) to use_no_semi_2.o(.text) for __use_no_semihosting
    lto-llvm-7a7817.o(.ARM.exidx.text.NMI_Handler) refers to lto-llvm-7a7817.o(.text.NMI_Handler) for [Anonymous Symbol]
    lto-llvm-7a7817.o(.text.HardFault_Handler) refers (Special) to use_no_semi_2.o(.text) for __use_no_semihosting
    lto-llvm-7a7817.o(.ARM.exidx.text.HardFault_Handler) refers (Special) to use_no_semi_2.o(.text) for __use_no_semihosting
    lto-llvm-7a7817.o(.ARM.exidx.text.HardFault_Handler) refers to lto-llvm-7a7817.o(.text.HardFault_Handler) for [Anonymous Symbol]
    lto-llvm-7a7817.o(.text.MemManage_Handler) refers (Special) to use_no_semi_2.o(.text) for __use_no_semihosting
    lto-llvm-7a7817.o(.ARM.exidx.text.MemManage_Handler) refers (Special) to use_no_semi_2.o(.text) for __use_no_semihosting
    lto-llvm-7a7817.o(.ARM.exidx.text.MemManage_Handler) refers to lto-llvm-7a7817.o(.text.MemManage_Handler) for [Anonymous Symbol]
    lto-llvm-7a7817.o(.text.BusFault_Handler) refers (Special) to use_no_semi_2.o(.text) for __use_no_semihosting
    lto-llvm-7a7817.o(.ARM.exidx.text.BusFault_Handler) refers (Special) to use_no_semi_2.o(.text) for __use_no_semihosting
    lto-llvm-7a7817.o(.ARM.exidx.text.BusFault_Handler) refers to lto-llvm-7a7817.o(.text.BusFault_Handler) for [Anonymous Symbol]
    lto-llvm-7a7817.o(.text.UsageFault_Handler) refers (Special) to use_no_semi_2.o(.text) for __use_no_semihosting
    lto-llvm-7a7817.o(.ARM.exidx.text.UsageFault_Handler) refers (Special) to use_no_semi_2.o(.text) for __use_no_semihosting
    lto-llvm-7a7817.o(.ARM.exidx.text.UsageFault_Handler) refers to lto-llvm-7a7817.o(.text.UsageFault_Handler) for [Anonymous Symbol]
    lto-llvm-7a7817.o(.text.SVC_Handler) refers (Special) to use_no_semi_2.o(.text) for __use_no_semihosting
    lto-llvm-7a7817.o(.ARM.exidx.text.SVC_Handler) refers (Special) to use_no_semi_2.o(.text) for __use_no_semihosting
    lto-llvm-7a7817.o(.ARM.exidx.text.SVC_Handler) refers to lto-llvm-7a7817.o(.text.SVC_Handler) for [Anonymous Symbol]
    lto-llvm-7a7817.o(.text.DebugMon_Handler) refers (Special) to use_no_semi_2.o(.text) for __use_no_semihosting
    lto-llvm-7a7817.o(.ARM.exidx.text.DebugMon_Handler) refers (Special) to use_no_semi_2.o(.text) for __use_no_semihosting
    lto-llvm-7a7817.o(.ARM.exidx.text.DebugMon_Handler) refers to lto-llvm-7a7817.o(.text.DebugMon_Handler) for [Anonymous Symbol]
    lto-llvm-7a7817.o(.text.PendSV_Handler) refers (Special) to use_no_semi_2.o(.text) for __use_no_semihosting
    lto-llvm-7a7817.o(.ARM.exidx.text.PendSV_Handler) refers (Special) to use_no_semi_2.o(.text) for __use_no_semihosting
    lto-llvm-7a7817.o(.ARM.exidx.text.PendSV_Handler) refers to lto-llvm-7a7817.o(.text.PendSV_Handler) for [Anonymous Symbol]
    lto-llvm-7a7817.o(.text.SysTick_Handler) refers (Special) to use_no_semi_2.o(.text) for __use_no_semihosting
    lto-llvm-7a7817.o(.text.SysTick_Handler) refers to lto-llvm-7a7817.o(.text.HAL_IncTick) for HAL_IncTick
    lto-llvm-7a7817.o(.ARM.exidx.text.SysTick_Handler) refers (Special) to use_no_semi_2.o(.text) for __use_no_semihosting
    lto-llvm-7a7817.o(.ARM.exidx.text.SysTick_Handler) refers to lto-llvm-7a7817.o(.text.SysTick_Handler) for [Anonymous Symbol]
    lto-llvm-7a7817.o(.text.EXTI4_IRQHandler) refers (Special) to use_no_semi_2.o(.text) for __use_no_semihosting
    lto-llvm-7a7817.o(.text.EXTI4_IRQHandler) refers to lto-llvm-7a7817.o(.text.HAL_GPIO_EXTI_IRQHandler) for HAL_GPIO_EXTI_IRQHandler
    lto-llvm-7a7817.o(.ARM.exidx.text.EXTI4_IRQHandler) refers (Special) to use_no_semi_2.o(.text) for __use_no_semihosting
    lto-llvm-7a7817.o(.ARM.exidx.text.EXTI4_IRQHandler) refers to lto-llvm-7a7817.o(.text.EXTI4_IRQHandler) for [Anonymous Symbol]
    lto-llvm-7a7817.o(.text.DMA1_Stream0_IRQHandler) refers (Special) to use_no_semi_2.o(.text) for __use_no_semihosting
    lto-llvm-7a7817.o(.text.DMA1_Stream0_IRQHandler) refers to lto-llvm-7a7817.o(.bss.hdma_usart1_rx) for hdma_usart1_rx
    lto-llvm-7a7817.o(.text.DMA1_Stream0_IRQHandler) refers to lto-llvm-7a7817.o(.text.HAL_DMA_IRQHandler) for HAL_DMA_IRQHandler
    lto-llvm-7a7817.o(.ARM.exidx.text.DMA1_Stream0_IRQHandler) refers (Special) to use_no_semi_2.o(.text) for __use_no_semihosting
    lto-llvm-7a7817.o(.ARM.exidx.text.DMA1_Stream0_IRQHandler) refers to lto-llvm-7a7817.o(.text.DMA1_Stream0_IRQHandler) for [Anonymous Symbol]
    lto-llvm-7a7817.o(.text.DMA1_Stream1_IRQHandler) refers (Special) to use_no_semi_2.o(.text) for __use_no_semihosting
    lto-llvm-7a7817.o(.text.DMA1_Stream1_IRQHandler) refers to lto-llvm-7a7817.o(.bss.hdma_usart1_tx) for hdma_usart1_tx
    lto-llvm-7a7817.o(.text.DMA1_Stream1_IRQHandler) refers to lto-llvm-7a7817.o(.text.HAL_DMA_IRQHandler) for HAL_DMA_IRQHandler
    lto-llvm-7a7817.o(.ARM.exidx.text.DMA1_Stream1_IRQHandler) refers (Special) to use_no_semi_2.o(.text) for __use_no_semihosting
    lto-llvm-7a7817.o(.ARM.exidx.text.DMA1_Stream1_IRQHandler) refers to lto-llvm-7a7817.o(.text.DMA1_Stream1_IRQHandler) for [Anonymous Symbol]
    lto-llvm-7a7817.o(.text.USART1_IRQHandler) refers (Special) to use_no_semi_2.o(.text) for __use_no_semihosting
    lto-llvm-7a7817.o(.text.USART1_IRQHandler) refers to lto-llvm-7a7817.o(.bss.huart1) for huart1
    lto-llvm-7a7817.o(.text.USART1_IRQHandler) refers to lto-llvm-7a7817.o(.text.HAL_UART_IRQHandler) for HAL_UART_IRQHandler
    lto-llvm-7a7817.o(.ARM.exidx.text.USART1_IRQHandler) refers (Special) to use_no_semi_2.o(.text) for __use_no_semihosting
    lto-llvm-7a7817.o(.ARM.exidx.text.USART1_IRQHandler) refers to lto-llvm-7a7817.o(.text.USART1_IRQHandler) for [Anonymous Symbol]
    lto-llvm-7a7817.o(.text.TIM6_DAC_IRQHandler) refers (Special) to use_no_semi_2.o(.text) for __use_no_semihosting
    lto-llvm-7a7817.o(.text.TIM6_DAC_IRQHandler) refers to lto-llvm-7a7817.o(.bss.htim6) for htim6
    lto-llvm-7a7817.o(.text.TIM6_DAC_IRQHandler) refers to lto-llvm-7a7817.o(.text.Control) for Control
    lto-llvm-7a7817.o(.ARM.exidx.text.TIM6_DAC_IRQHandler) refers (Special) to use_no_semi_2.o(.text) for __use_no_semihosting
    lto-llvm-7a7817.o(.ARM.exidx.text.TIM6_DAC_IRQHandler) refers to lto-llvm-7a7817.o(.text.TIM6_DAC_IRQHandler) for [Anonymous Symbol]
    lto-llvm-7a7817.o(.text.TIM7_IRQHandler) refers (Special) to use_no_semi_2.o(.text) for __use_no_semihosting
    lto-llvm-7a7817.o(.text.TIM7_IRQHandler) refers to lto-llvm-7a7817.o(.text.LL_TIM_IsActiveFlag_UPDATE) for LL_TIM_IsActiveFlag_UPDATE
    lto-llvm-7a7817.o(.text.TIM7_IRQHandler) refers to lto-llvm-7a7817.o(.text.LL_TIM_ClearFlag_UPDATE) for LL_TIM_ClearFlag_UPDATE
    lto-llvm-7a7817.o(.text.TIM7_IRQHandler) refers to lto-llvm-7a7817.o(.text.stepper_ISR) for stepper_ISR
    lto-llvm-7a7817.o(.ARM.exidx.text.TIM7_IRQHandler) refers (Special) to use_no_semi_2.o(.text) for __use_no_semihosting
    lto-llvm-7a7817.o(.ARM.exidx.text.TIM7_IRQHandler) refers to lto-llvm-7a7817.o(.text.TIM7_IRQHandler) for [Anonymous Symbol]
    lto-llvm-7a7817.o(.text.LL_TIM_IsActiveFlag_UPDATE) refers (Special) to use_no_semi_2.o(.text) for __use_no_semihosting
    lto-llvm-7a7817.o(.ARM.exidx.text.LL_TIM_IsActiveFlag_UPDATE) refers (Special) to use_no_semi_2.o(.text) for __use_no_semihosting
    lto-llvm-7a7817.o(.ARM.exidx.text.LL_TIM_IsActiveFlag_UPDATE) refers to lto-llvm-7a7817.o(.text.LL_TIM_IsActiveFlag_UPDATE) for [Anonymous Symbol]
    lto-llvm-7a7817.o(.text.LL_TIM_ClearFlag_UPDATE) refers (Special) to use_no_semi_2.o(.text) for __use_no_semihosting
    lto-llvm-7a7817.o(.ARM.exidx.text.LL_TIM_ClearFlag_UPDATE) refers (Special) to use_no_semi_2.o(.text) for __use_no_semihosting
    lto-llvm-7a7817.o(.ARM.exidx.text.LL_TIM_ClearFlag_UPDATE) refers to lto-llvm-7a7817.o(.text.LL_TIM_ClearFlag_UPDATE) for [Anonymous Symbol]
    lto-llvm-7a7817.o(.text.HAL_MspInit) refers (Special) to use_no_semi_2.o(.text) for __use_no_semihosting
    lto-llvm-7a7817.o(.ARM.exidx.text.HAL_MspInit) refers (Special) to use_no_semi_2.o(.text) for __use_no_semihosting
    lto-llvm-7a7817.o(.ARM.exidx.text.HAL_MspInit) refers to lto-llvm-7a7817.o(.text.HAL_MspInit) for [Anonymous Symbol]
    lto-llvm-7a7817.o(.text.HAL_NVIC_SetPriorityGrouping) refers (Special) to use_no_semi_2.o(.text) for __use_no_semihosting
    lto-llvm-7a7817.o(.text.HAL_NVIC_SetPriorityGrouping) refers to lto-llvm-7a7817.o(.text.__NVIC_SetPriorityGrouping) for __NVIC_SetPriorityGrouping
    lto-llvm-7a7817.o(.ARM.exidx.text.HAL_NVIC_SetPriorityGrouping) refers (Special) to use_no_semi_2.o(.text) for __use_no_semihosting
    lto-llvm-7a7817.o(.ARM.exidx.text.HAL_NVIC_SetPriorityGrouping) refers to lto-llvm-7a7817.o(.text.HAL_NVIC_SetPriorityGrouping) for [Anonymous Symbol]
    lto-llvm-7a7817.o(.text.__NVIC_SetPriorityGrouping) refers (Special) to use_no_semi_2.o(.text) for __use_no_semihosting
    lto-llvm-7a7817.o(.ARM.exidx.text.__NVIC_SetPriorityGrouping) refers (Special) to use_no_semi_2.o(.text) for __use_no_semihosting
    lto-llvm-7a7817.o(.ARM.exidx.text.__NVIC_SetPriorityGrouping) refers to lto-llvm-7a7817.o(.text.__NVIC_SetPriorityGrouping) for [Anonymous Symbol]
    lto-llvm-7a7817.o(.text.HAL_NVIC_SetPriority) refers (Special) to use_no_semi_2.o(.text) for __use_no_semihosting
    lto-llvm-7a7817.o(.text.HAL_NVIC_SetPriority) refers to lto-llvm-7a7817.o(.text.__NVIC_GetPriorityGrouping.41) for __NVIC_GetPriorityGrouping.41
    lto-llvm-7a7817.o(.text.HAL_NVIC_SetPriority) refers to lto-llvm-7a7817.o(.text.NVIC_EncodePriority.42) for NVIC_EncodePriority.42
    lto-llvm-7a7817.o(.text.HAL_NVIC_SetPriority) refers to lto-llvm-7a7817.o(.text.__NVIC_SetPriority.43) for __NVIC_SetPriority.43
    lto-llvm-7a7817.o(.ARM.exidx.text.HAL_NVIC_SetPriority) refers (Special) to use_no_semi_2.o(.text) for __use_no_semihosting
    lto-llvm-7a7817.o(.ARM.exidx.text.HAL_NVIC_SetPriority) refers to lto-llvm-7a7817.o(.text.HAL_NVIC_SetPriority) for [Anonymous Symbol]
    lto-llvm-7a7817.o(.text.__NVIC_GetPriorityGrouping.41) refers (Special) to use_no_semi_2.o(.text) for __use_no_semihosting
    lto-llvm-7a7817.o(.ARM.exidx.text.__NVIC_GetPriorityGrouping.41) refers (Special) to use_no_semi_2.o(.text) for __use_no_semihosting
    lto-llvm-7a7817.o(.ARM.exidx.text.__NVIC_GetPriorityGrouping.41) refers to lto-llvm-7a7817.o(.text.__NVIC_GetPriorityGrouping.41) for [Anonymous Symbol]
    lto-llvm-7a7817.o(.text.NVIC_EncodePriority.42) refers (Special) to use_no_semi_2.o(.text) for __use_no_semihosting
    lto-llvm-7a7817.o(.ARM.exidx.text.NVIC_EncodePriority.42) refers (Special) to use_no_semi_2.o(.text) for __use_no_semihosting
    lto-llvm-7a7817.o(.ARM.exidx.text.NVIC_EncodePriority.42) refers to lto-llvm-7a7817.o(.text.NVIC_EncodePriority.42) for [Anonymous Symbol]
    lto-llvm-7a7817.o(.text.__NVIC_SetPriority.43) refers (Special) to use_no_semi_2.o(.text) for __use_no_semihosting
    lto-llvm-7a7817.o(.ARM.exidx.text.__NVIC_SetPriority.43) refers (Special) to use_no_semi_2.o(.text) for __use_no_semihosting
    lto-llvm-7a7817.o(.ARM.exidx.text.__NVIC_SetPriority.43) refers to lto-llvm-7a7817.o(.text.__NVIC_SetPriority.43) for [Anonymous Symbol]
    lto-llvm-7a7817.o(.text.HAL_NVIC_EnableIRQ) refers (Special) to use_no_semi_2.o(.text) for __use_no_semihosting
    lto-llvm-7a7817.o(.text.HAL_NVIC_EnableIRQ) refers to lto-llvm-7a7817.o(.text.__NVIC_EnableIRQ.46) for __NVIC_EnableIRQ.46
    lto-llvm-7a7817.o(.ARM.exidx.text.HAL_NVIC_EnableIRQ) refers (Special) to use_no_semi_2.o(.text) for __use_no_semihosting
    lto-llvm-7a7817.o(.ARM.exidx.text.HAL_NVIC_EnableIRQ) refers to lto-llvm-7a7817.o(.text.HAL_NVIC_EnableIRQ) for [Anonymous Symbol]
    lto-llvm-7a7817.o(.text.__NVIC_EnableIRQ.46) refers (Special) to use_no_semi_2.o(.text) for __use_no_semihosting
    lto-llvm-7a7817.o(.ARM.exidx.text.__NVIC_EnableIRQ.46) refers (Special) to use_no_semi_2.o(.text) for __use_no_semihosting
    lto-llvm-7a7817.o(.ARM.exidx.text.__NVIC_EnableIRQ.46) refers to lto-llvm-7a7817.o(.text.__NVIC_EnableIRQ.46) for [Anonymous Symbol]
    lto-llvm-7a7817.o(.text.HAL_SYSTICK_Config) refers (Special) to use_no_semi_2.o(.text) for __use_no_semihosting
    lto-llvm-7a7817.o(.text.HAL_SYSTICK_Config) refers to lto-llvm-7a7817.o(.text.SysTick_Config) for SysTick_Config
    lto-llvm-7a7817.o(.ARM.exidx.text.HAL_SYSTICK_Config) refers (Special) to use_no_semi_2.o(.text) for __use_no_semihosting
    lto-llvm-7a7817.o(.ARM.exidx.text.HAL_SYSTICK_Config) refers to lto-llvm-7a7817.o(.text.HAL_SYSTICK_Config) for [Anonymous Symbol]
    lto-llvm-7a7817.o(.text.SysTick_Config) refers (Special) to use_no_semi_2.o(.text) for __use_no_semihosting
    lto-llvm-7a7817.o(.text.SysTick_Config) refers to lto-llvm-7a7817.o(.text.__NVIC_SetPriority.43) for __NVIC_SetPriority.43
    lto-llvm-7a7817.o(.ARM.exidx.text.SysTick_Config) refers (Special) to use_no_semi_2.o(.text) for __use_no_semihosting
    lto-llvm-7a7817.o(.ARM.exidx.text.SysTick_Config) refers to lto-llvm-7a7817.o(.text.SysTick_Config) for [Anonymous Symbol]
    lto-llvm-7a7817.o(.text.HAL_RCC_OscConfig) refers (Special) to use_no_semi_2.o(.text) for __use_no_semihosting
    lto-llvm-7a7817.o(.text.HAL_RCC_OscConfig) refers to lto-llvm-7a7817.o(.text.HAL_GetTick) for HAL_GetTick
    lto-llvm-7a7817.o(.text.HAL_RCC_OscConfig) refers to lto-llvm-7a7817.o(.text.HAL_GetREVID) for HAL_GetREVID
    lto-llvm-7a7817.o(.ARM.exidx.text.HAL_RCC_OscConfig) refers (Special) to use_no_semi_2.o(.text) for __use_no_semihosting
    lto-llvm-7a7817.o(.ARM.exidx.text.HAL_RCC_OscConfig) refers to lto-llvm-7a7817.o(.text.HAL_RCC_OscConfig) for [Anonymous Symbol]
    lto-llvm-7a7817.o(.text.HAL_RCC_ClockConfig) refers (Special) to use_no_semi_2.o(.text) for __use_no_semihosting
    lto-llvm-7a7817.o(.text.HAL_RCC_ClockConfig) refers to lto-llvm-7a7817.o(.text.HAL_GetTick) for HAL_GetTick
    lto-llvm-7a7817.o(.text.HAL_RCC_ClockConfig) refers to lto-llvm-7a7817.o(.text.HAL_RCC_GetSysClockFreq) for HAL_RCC_GetSysClockFreq
    lto-llvm-7a7817.o(.text.HAL_RCC_ClockConfig) refers to lto-llvm-7a7817.o(.rodata.cst16) for D1CorePrescTable
    lto-llvm-7a7817.o(.text.HAL_RCC_ClockConfig) refers to lto-llvm-7a7817.o(.data.SystemD2Clock) for SystemD2Clock
    lto-llvm-7a7817.o(.text.HAL_RCC_ClockConfig) refers to lto-llvm-7a7817.o(.data.SystemCoreClock) for SystemCoreClock
    lto-llvm-7a7817.o(.text.HAL_RCC_ClockConfig) refers to lto-llvm-7a7817.o(.data.uwTickPrio) for uwTickPrio
    lto-llvm-7a7817.o(.text.HAL_RCC_ClockConfig) refers to lto-llvm-7a7817.o(.text.HAL_InitTick) for HAL_InitTick
    lto-llvm-7a7817.o(.ARM.exidx.text.HAL_RCC_ClockConfig) refers (Special) to use_no_semi_2.o(.text) for __use_no_semihosting
    lto-llvm-7a7817.o(.ARM.exidx.text.HAL_RCC_ClockConfig) refers to lto-llvm-7a7817.o(.text.HAL_RCC_ClockConfig) for [Anonymous Symbol]
    lto-llvm-7a7817.o(.text.HAL_RCC_GetSysClockFreq) refers (Special) to use_no_semi_2.o(.text) for __use_no_semihosting
    lto-llvm-7a7817.o(.ARM.exidx.text.HAL_RCC_GetSysClockFreq) refers (Special) to use_no_semi_2.o(.text) for __use_no_semihosting
    lto-llvm-7a7817.o(.ARM.exidx.text.HAL_RCC_GetSysClockFreq) refers to lto-llvm-7a7817.o(.text.HAL_RCC_GetSysClockFreq) for [Anonymous Symbol]
    lto-llvm-7a7817.o(.text.HAL_RCC_GetHCLKFreq) refers (Special) to use_no_semi_2.o(.text) for __use_no_semihosting
    lto-llvm-7a7817.o(.text.HAL_RCC_GetHCLKFreq) refers to lto-llvm-7a7817.o(.text.HAL_RCC_GetSysClockFreq) for HAL_RCC_GetSysClockFreq
    lto-llvm-7a7817.o(.text.HAL_RCC_GetHCLKFreq) refers to lto-llvm-7a7817.o(.rodata.cst16) for D1CorePrescTable
    lto-llvm-7a7817.o(.text.HAL_RCC_GetHCLKFreq) refers to lto-llvm-7a7817.o(.data.SystemD2Clock) for SystemD2Clock
    lto-llvm-7a7817.o(.text.HAL_RCC_GetHCLKFreq) refers to lto-llvm-7a7817.o(.data.SystemCoreClock) for SystemCoreClock
    lto-llvm-7a7817.o(.ARM.exidx.text.HAL_RCC_GetHCLKFreq) refers (Special) to use_no_semi_2.o(.text) for __use_no_semihosting
    lto-llvm-7a7817.o(.ARM.exidx.text.HAL_RCC_GetHCLKFreq) refers to lto-llvm-7a7817.o(.text.HAL_RCC_GetHCLKFreq) for [Anonymous Symbol]
    lto-llvm-7a7817.o(.text.HAL_RCC_GetPCLK1Freq) refers (Special) to use_no_semi_2.o(.text) for __use_no_semihosting
    lto-llvm-7a7817.o(.text.HAL_RCC_GetPCLK1Freq) refers to lto-llvm-7a7817.o(.text.HAL_RCC_GetHCLKFreq) for HAL_RCC_GetHCLKFreq
    lto-llvm-7a7817.o(.text.HAL_RCC_GetPCLK1Freq) refers to lto-llvm-7a7817.o(.rodata.cst16) for D1CorePrescTable
    lto-llvm-7a7817.o(.ARM.exidx.text.HAL_RCC_GetPCLK1Freq) refers (Special) to use_no_semi_2.o(.text) for __use_no_semihosting
    lto-llvm-7a7817.o(.ARM.exidx.text.HAL_RCC_GetPCLK1Freq) refers to lto-llvm-7a7817.o(.text.HAL_RCC_GetPCLK1Freq) for [Anonymous Symbol]
    lto-llvm-7a7817.o(.text.HAL_RCC_GetPCLK2Freq) refers (Special) to use_no_semi_2.o(.text) for __use_no_semihosting
    lto-llvm-7a7817.o(.text.HAL_RCC_GetPCLK2Freq) refers to lto-llvm-7a7817.o(.text.HAL_RCC_GetHCLKFreq) for HAL_RCC_GetHCLKFreq
    lto-llvm-7a7817.o(.text.HAL_RCC_GetPCLK2Freq) refers to lto-llvm-7a7817.o(.rodata.cst16) for D1CorePrescTable
    lto-llvm-7a7817.o(.ARM.exidx.text.HAL_RCC_GetPCLK2Freq) refers (Special) to use_no_semi_2.o(.text) for __use_no_semihosting
    lto-llvm-7a7817.o(.ARM.exidx.text.HAL_RCC_GetPCLK2Freq) refers to lto-llvm-7a7817.o(.text.HAL_RCC_GetPCLK2Freq) for [Anonymous Symbol]
    lto-llvm-7a7817.o(.text.HAL_RCCEx_PeriphCLKConfig) refers (Special) to use_no_semi_2.o(.text) for __use_no_semihosting
    lto-llvm-7a7817.o(.text.HAL_RCCEx_PeriphCLKConfig) refers to lto-llvm-7a7817.o(.text.RCCEx_PLL2_Config) for RCCEx_PLL2_Config
    lto-llvm-7a7817.o(.text.HAL_RCCEx_PeriphCLKConfig) refers to lto-llvm-7a7817.o(.text.RCCEx_PLL3_Config) for RCCEx_PLL3_Config
    lto-llvm-7a7817.o(.text.HAL_RCCEx_PeriphCLKConfig) refers to lto-llvm-7a7817.o(.text.HAL_GetTick) for HAL_GetTick
    lto-llvm-7a7817.o(.ARM.exidx.text.HAL_RCCEx_PeriphCLKConfig) refers (Special) to use_no_semi_2.o(.text) for __use_no_semihosting
    lto-llvm-7a7817.o(.ARM.exidx.text.HAL_RCCEx_PeriphCLKConfig) refers to lto-llvm-7a7817.o(.text.HAL_RCCEx_PeriphCLKConfig) for [Anonymous Symbol]
    lto-llvm-7a7817.o(.text.RCCEx_PLL2_Config) refers (Special) to use_no_semi_2.o(.text) for __use_no_semihosting
    lto-llvm-7a7817.o(.text.RCCEx_PLL2_Config) refers to lto-llvm-7a7817.o(.text.HAL_GetTick) for HAL_GetTick
    lto-llvm-7a7817.o(.ARM.exidx.text.RCCEx_PLL2_Config) refers (Special) to use_no_semi_2.o(.text) for __use_no_semihosting
    lto-llvm-7a7817.o(.ARM.exidx.text.RCCEx_PLL2_Config) refers to lto-llvm-7a7817.o(.text.RCCEx_PLL2_Config) for [Anonymous Symbol]
    lto-llvm-7a7817.o(.text.RCCEx_PLL3_Config) refers (Special) to use_no_semi_2.o(.text) for __use_no_semihosting
    lto-llvm-7a7817.o(.text.RCCEx_PLL3_Config) refers to lto-llvm-7a7817.o(.text.HAL_GetTick) for HAL_GetTick
    lto-llvm-7a7817.o(.ARM.exidx.text.RCCEx_PLL3_Config) refers (Special) to use_no_semi_2.o(.text) for __use_no_semihosting
    lto-llvm-7a7817.o(.ARM.exidx.text.RCCEx_PLL3_Config) refers to lto-llvm-7a7817.o(.text.RCCEx_PLL3_Config) for [Anonymous Symbol]
    lto-llvm-7a7817.o(.text.HAL_RCCEx_GetPLL2ClockFreq) refers (Special) to use_no_semi_2.o(.text) for __use_no_semihosting
    lto-llvm-7a7817.o(.ARM.exidx.text.HAL_RCCEx_GetPLL2ClockFreq) refers (Special) to use_no_semi_2.o(.text) for __use_no_semihosting
    lto-llvm-7a7817.o(.ARM.exidx.text.HAL_RCCEx_GetPLL2ClockFreq) refers to lto-llvm-7a7817.o(.text.HAL_RCCEx_GetPLL2ClockFreq) for [Anonymous Symbol]
    lto-llvm-7a7817.o(.text.HAL_RCCEx_GetPLL3ClockFreq) refers (Special) to use_no_semi_2.o(.text) for __use_no_semihosting
    lto-llvm-7a7817.o(.ARM.exidx.text.HAL_RCCEx_GetPLL3ClockFreq) refers (Special) to use_no_semi_2.o(.text) for __use_no_semihosting
    lto-llvm-7a7817.o(.ARM.exidx.text.HAL_RCCEx_GetPLL3ClockFreq) refers to lto-llvm-7a7817.o(.text.HAL_RCCEx_GetPLL3ClockFreq) for [Anonymous Symbol]
    lto-llvm-7a7817.o(.text.HAL_RCCEx_GetD3PCLK1Freq) refers (Special) to use_no_semi_2.o(.text) for __use_no_semihosting
    lto-llvm-7a7817.o(.text.HAL_RCCEx_GetD3PCLK1Freq) refers to lto-llvm-7a7817.o(.text.HAL_RCC_GetHCLKFreq) for HAL_RCC_GetHCLKFreq
    lto-llvm-7a7817.o(.text.HAL_RCCEx_GetD3PCLK1Freq) refers to lto-llvm-7a7817.o(.rodata.cst16) for D1CorePrescTable
    lto-llvm-7a7817.o(.ARM.exidx.text.HAL_RCCEx_GetD3PCLK1Freq) refers (Special) to use_no_semi_2.o(.text) for __use_no_semihosting
    lto-llvm-7a7817.o(.ARM.exidx.text.HAL_RCCEx_GetD3PCLK1Freq) refers to lto-llvm-7a7817.o(.text.HAL_RCCEx_GetD3PCLK1Freq) for [Anonymous Symbol]
    lto-llvm-7a7817.o(.text.HAL_GPIO_Init) refers (Special) to use_no_semi_2.o(.text) for __use_no_semihosting
    lto-llvm-7a7817.o(.ARM.exidx.text.HAL_GPIO_Init) refers (Special) to use_no_semi_2.o(.text) for __use_no_semihosting
    lto-llvm-7a7817.o(.ARM.exidx.text.HAL_GPIO_Init) refers to lto-llvm-7a7817.o(.text.HAL_GPIO_Init) for [Anonymous Symbol]
    lto-llvm-7a7817.o(.text.HAL_GPIO_ReadPin) refers (Special) to use_no_semi_2.o(.text) for __use_no_semihosting
    lto-llvm-7a7817.o(.ARM.exidx.text.HAL_GPIO_ReadPin) refers (Special) to use_no_semi_2.o(.text) for __use_no_semihosting
    lto-llvm-7a7817.o(.ARM.exidx.text.HAL_GPIO_ReadPin) refers to lto-llvm-7a7817.o(.text.HAL_GPIO_ReadPin) for [Anonymous Symbol]
    lto-llvm-7a7817.o(.text.HAL_GPIO_WritePin) refers (Special) to use_no_semi_2.o(.text) for __use_no_semihosting
    lto-llvm-7a7817.o(.ARM.exidx.text.HAL_GPIO_WritePin) refers (Special) to use_no_semi_2.o(.text) for __use_no_semihosting
    lto-llvm-7a7817.o(.ARM.exidx.text.HAL_GPIO_WritePin) refers to lto-llvm-7a7817.o(.text.HAL_GPIO_WritePin) for [Anonymous Symbol]
    lto-llvm-7a7817.o(.text.HAL_GPIO_EXTI_IRQHandler) refers (Special) to use_no_semi_2.o(.text) for __use_no_semihosting
    lto-llvm-7a7817.o(.text.HAL_GPIO_EXTI_IRQHandler) refers to lto-llvm-7a7817.o(.text.HAL_GPIO_EXTI_Callback) for HAL_GPIO_EXTI_Callback
    lto-llvm-7a7817.o(.ARM.exidx.text.HAL_GPIO_EXTI_IRQHandler) refers (Special) to use_no_semi_2.o(.text) for __use_no_semihosting
    lto-llvm-7a7817.o(.ARM.exidx.text.HAL_GPIO_EXTI_IRQHandler) refers to lto-llvm-7a7817.o(.text.HAL_GPIO_EXTI_IRQHandler) for [Anonymous Symbol]
    lto-llvm-7a7817.o(.text.HAL_DMA_Init) refers (Special) to use_no_semi_2.o(.text) for __use_no_semihosting
    lto-llvm-7a7817.o(.text.HAL_DMA_Init) refers to lto-llvm-7a7817.o(.text.HAL_GetTick) for HAL_GetTick
    lto-llvm-7a7817.o(.text.HAL_DMA_Init) refers to lto-llvm-7a7817.o(.text.DMA_CheckFifoParam) for DMA_CheckFifoParam
    lto-llvm-7a7817.o(.text.HAL_DMA_Init) refers to lto-llvm-7a7817.o(.text.DMA_CalcBaseAndBitshift) for DMA_CalcBaseAndBitshift
    lto-llvm-7a7817.o(.text.HAL_DMA_Init) refers to lto-llvm-7a7817.o(.text.DMA_CalcDMAMUXChannelBaseAndMask) for DMA_CalcDMAMUXChannelBaseAndMask
    lto-llvm-7a7817.o(.text.HAL_DMA_Init) refers to lto-llvm-7a7817.o(.text.DMA_CalcDMAMUXRequestGenBaseAndMask) for DMA_CalcDMAMUXRequestGenBaseAndMask
    lto-llvm-7a7817.o(.ARM.exidx.text.HAL_DMA_Init) refers (Special) to use_no_semi_2.o(.text) for __use_no_semihosting
    lto-llvm-7a7817.o(.ARM.exidx.text.HAL_DMA_Init) refers to lto-llvm-7a7817.o(.text.HAL_DMA_Init) for [Anonymous Symbol]
    lto-llvm-7a7817.o(.text.DMA_CheckFifoParam) refers (Special) to use_no_semi_2.o(.text) for __use_no_semihosting
    lto-llvm-7a7817.o(.ARM.exidx.text.DMA_CheckFifoParam) refers (Special) to use_no_semi_2.o(.text) for __use_no_semihosting
    lto-llvm-7a7817.o(.ARM.exidx.text.DMA_CheckFifoParam) refers to lto-llvm-7a7817.o(.text.DMA_CheckFifoParam) for [Anonymous Symbol]
    lto-llvm-7a7817.o(.text.DMA_CalcBaseAndBitshift) refers (Special) to use_no_semi_2.o(.text) for __use_no_semihosting
    lto-llvm-7a7817.o(.text.DMA_CalcBaseAndBitshift) refers to lto-llvm-7a7817.o(.rodata.cst8) for DMA_CalcBaseAndBitshift.flagBitshiftOffset
    lto-llvm-7a7817.o(.ARM.exidx.text.DMA_CalcBaseAndBitshift) refers (Special) to use_no_semi_2.o(.text) for __use_no_semihosting
    lto-llvm-7a7817.o(.ARM.exidx.text.DMA_CalcBaseAndBitshift) refers to lto-llvm-7a7817.o(.text.DMA_CalcBaseAndBitshift) for [Anonymous Symbol]
    lto-llvm-7a7817.o(.text.DMA_CalcDMAMUXChannelBaseAndMask) refers (Special) to use_no_semi_2.o(.text) for __use_no_semihosting
    lto-llvm-7a7817.o(.ARM.exidx.text.DMA_CalcDMAMUXChannelBaseAndMask) refers (Special) to use_no_semi_2.o(.text) for __use_no_semihosting
    lto-llvm-7a7817.o(.ARM.exidx.text.DMA_CalcDMAMUXChannelBaseAndMask) refers to lto-llvm-7a7817.o(.text.DMA_CalcDMAMUXChannelBaseAndMask) for [Anonymous Symbol]
    lto-llvm-7a7817.o(.text.DMA_CalcDMAMUXRequestGenBaseAndMask) refers (Special) to use_no_semi_2.o(.text) for __use_no_semihosting
    lto-llvm-7a7817.o(.ARM.exidx.text.DMA_CalcDMAMUXRequestGenBaseAndMask) refers (Special) to use_no_semi_2.o(.text) for __use_no_semihosting
    lto-llvm-7a7817.o(.ARM.exidx.text.DMA_CalcDMAMUXRequestGenBaseAndMask) refers to lto-llvm-7a7817.o(.text.DMA_CalcDMAMUXRequestGenBaseAndMask) for [Anonymous Symbol]
    lto-llvm-7a7817.o(.text.DMA_SetConfig) refers (Special) to use_no_semi_2.o(.text) for __use_no_semihosting
    lto-llvm-7a7817.o(.ARM.exidx.text.DMA_SetConfig) refers (Special) to use_no_semi_2.o(.text) for __use_no_semihosting
    lto-llvm-7a7817.o(.ARM.exidx.text.DMA_SetConfig) refers to lto-llvm-7a7817.o(.text.DMA_SetConfig) for [Anonymous Symbol]
    lto-llvm-7a7817.o(.text.HAL_DMA_Start_IT) refers (Special) to use_no_semi_2.o(.text) for __use_no_semihosting
    lto-llvm-7a7817.o(.text.HAL_DMA_Start_IT) refers to lto-llvm-7a7817.o(.text.DMA_SetConfig) for DMA_SetConfig
    lto-llvm-7a7817.o(.ARM.exidx.text.HAL_DMA_Start_IT) refers (Special) to use_no_semi_2.o(.text) for __use_no_semihosting
    lto-llvm-7a7817.o(.ARM.exidx.text.HAL_DMA_Start_IT) refers to lto-llvm-7a7817.o(.text.HAL_DMA_Start_IT) for [Anonymous Symbol]
    lto-llvm-7a7817.o(.text.HAL_DMA_Abort_IT) refers (Special) to use_no_semi_2.o(.text) for __use_no_semihosting
    lto-llvm-7a7817.o(.ARM.exidx.text.HAL_DMA_Abort_IT) refers (Special) to use_no_semi_2.o(.text) for __use_no_semihosting
    lto-llvm-7a7817.o(.ARM.exidx.text.HAL_DMA_Abort_IT) refers to lto-llvm-7a7817.o(.text.HAL_DMA_Abort_IT) for [Anonymous Symbol]
    lto-llvm-7a7817.o(.text.HAL_DMA_IRQHandler) refers (Special) to use_no_semi_2.o(.text) for __use_no_semihosting
    lto-llvm-7a7817.o(.text.HAL_DMA_IRQHandler) refers to lto-llvm-7a7817.o(.data.SystemCoreClock) for SystemCoreClock
    lto-llvm-7a7817.o(.ARM.exidx.text.HAL_DMA_IRQHandler) refers (Special) to use_no_semi_2.o(.text) for __use_no_semihosting
    lto-llvm-7a7817.o(.ARM.exidx.text.HAL_DMA_IRQHandler) refers to lto-llvm-7a7817.o(.text.HAL_DMA_IRQHandler) for [Anonymous Symbol]
    lto-llvm-7a7817.o(.text.HAL_PWREx_ConfigSupply) refers (Special) to use_no_semi_2.o(.text) for __use_no_semihosting
    lto-llvm-7a7817.o(.text.HAL_PWREx_ConfigSupply) refers to lto-llvm-7a7817.o(.text.HAL_GetTick) for HAL_GetTick
    lto-llvm-7a7817.o(.ARM.exidx.text.HAL_PWREx_ConfigSupply) refers (Special) to use_no_semi_2.o(.text) for __use_no_semihosting
    lto-llvm-7a7817.o(.ARM.exidx.text.HAL_PWREx_ConfigSupply) refers to lto-llvm-7a7817.o(.text.HAL_PWREx_ConfigSupply) for [Anonymous Symbol]
    lto-llvm-7a7817.o(.text.HAL_Init) refers (Special) to use_no_semi_2.o(.text) for __use_no_semihosting
    lto-llvm-7a7817.o(.text.HAL_Init) refers to lto-llvm-7a7817.o(.text.HAL_NVIC_SetPriorityGrouping) for HAL_NVIC_SetPriorityGrouping
    lto-llvm-7a7817.o(.text.HAL_Init) refers to lto-llvm-7a7817.o(.text.HAL_RCC_GetSysClockFreq) for HAL_RCC_GetSysClockFreq
    lto-llvm-7a7817.o(.text.HAL_Init) refers to lto-llvm-7a7817.o(.rodata.cst16) for D1CorePrescTable
    lto-llvm-7a7817.o(.text.HAL_Init) refers to lto-llvm-7a7817.o(.data.SystemD2Clock) for SystemD2Clock
    lto-llvm-7a7817.o(.text.HAL_Init) refers to lto-llvm-7a7817.o(.data.SystemCoreClock) for SystemCoreClock
    lto-llvm-7a7817.o(.text.HAL_Init) refers to lto-llvm-7a7817.o(.text.HAL_InitTick) for HAL_InitTick
    lto-llvm-7a7817.o(.text.HAL_Init) refers to lto-llvm-7a7817.o(.text.HAL_MspInit) for HAL_MspInit
    lto-llvm-7a7817.o(.ARM.exidx.text.HAL_Init) refers (Special) to use_no_semi_2.o(.text) for __use_no_semihosting
    lto-llvm-7a7817.o(.ARM.exidx.text.HAL_Init) refers to lto-llvm-7a7817.o(.text.HAL_Init) for [Anonymous Symbol]
    lto-llvm-7a7817.o(.text.HAL_InitTick) refers (Special) to use_no_semi_2.o(.text) for __use_no_semihosting
    lto-llvm-7a7817.o(.text.HAL_InitTick) refers to lto-llvm-7a7817.o(.data.SystemCoreClock) for SystemCoreClock
    lto-llvm-7a7817.o(.text.HAL_InitTick) refers to lto-llvm-7a7817.o(.text.HAL_SYSTICK_Config) for HAL_SYSTICK_Config
    lto-llvm-7a7817.o(.text.HAL_InitTick) refers to lto-llvm-7a7817.o(.text.HAL_NVIC_SetPriority) for HAL_NVIC_SetPriority
    lto-llvm-7a7817.o(.text.HAL_InitTick) refers to lto-llvm-7a7817.o(.data.uwTickPrio) for uwTickPrio
    lto-llvm-7a7817.o(.ARM.exidx.text.HAL_InitTick) refers (Special) to use_no_semi_2.o(.text) for __use_no_semihosting
    lto-llvm-7a7817.o(.ARM.exidx.text.HAL_InitTick) refers to lto-llvm-7a7817.o(.text.HAL_InitTick) for [Anonymous Symbol]
    lto-llvm-7a7817.o(.text.HAL_IncTick) refers (Special) to use_no_semi_2.o(.text) for __use_no_semihosting
    lto-llvm-7a7817.o(.text.HAL_IncTick) refers to lto-llvm-7a7817.o(.bss.uwTick) for uwTick
    lto-llvm-7a7817.o(.ARM.exidx.text.HAL_IncTick) refers (Special) to use_no_semi_2.o(.text) for __use_no_semihosting
    lto-llvm-7a7817.o(.ARM.exidx.text.HAL_IncTick) refers to lto-llvm-7a7817.o(.text.HAL_IncTick) for [Anonymous Symbol]
    lto-llvm-7a7817.o(.text.HAL_GetTick) refers (Special) to use_no_semi_2.o(.text) for __use_no_semihosting
    lto-llvm-7a7817.o(.text.HAL_GetTick) refers to lto-llvm-7a7817.o(.bss.uwTick) for uwTick
    lto-llvm-7a7817.o(.ARM.exidx.text.HAL_GetTick) refers (Special) to use_no_semi_2.o(.text) for __use_no_semihosting
    lto-llvm-7a7817.o(.ARM.exidx.text.HAL_GetTick) refers to lto-llvm-7a7817.o(.text.HAL_GetTick) for [Anonymous Symbol]
    lto-llvm-7a7817.o(.text.HAL_GetREVID) refers (Special) to use_no_semi_2.o(.text) for __use_no_semihosting
    lto-llvm-7a7817.o(.ARM.exidx.text.HAL_GetREVID) refers (Special) to use_no_semi_2.o(.text) for __use_no_semihosting
    lto-llvm-7a7817.o(.ARM.exidx.text.HAL_GetREVID) refers to lto-llvm-7a7817.o(.text.HAL_GetREVID) for [Anonymous Symbol]
    lto-llvm-7a7817.o(.text.HAL_TIM_Base_Init) refers (Special) to use_no_semi_2.o(.text) for __use_no_semihosting
    lto-llvm-7a7817.o(.text.HAL_TIM_Base_Init) refers to lto-llvm-7a7817.o(.bss.htim6) for htim6
    lto-llvm-7a7817.o(.text.HAL_TIM_Base_Init) refers to lto-llvm-7a7817.o(.text.HAL_TIM_Base_MspInit) for HAL_TIM_Base_MspInit
    lto-llvm-7a7817.o(.text.HAL_TIM_Base_Init) refers to lto-llvm-7a7817.o(.text.TIM_Base_SetConfig) for TIM_Base_SetConfig
    lto-llvm-7a7817.o(.ARM.exidx.text.HAL_TIM_Base_Init) refers (Special) to use_no_semi_2.o(.text) for __use_no_semihosting
    lto-llvm-7a7817.o(.ARM.exidx.text.HAL_TIM_Base_Init) refers to lto-llvm-7a7817.o(.text.HAL_TIM_Base_Init) for [Anonymous Symbol]
    lto-llvm-7a7817.o(.text.TIM_Base_SetConfig) refers (Special) to use_no_semi_2.o(.text) for __use_no_semihosting
    lto-llvm-7a7817.o(.ARM.exidx.text.TIM_Base_SetConfig) refers (Special) to use_no_semi_2.o(.text) for __use_no_semihosting
    lto-llvm-7a7817.o(.ARM.exidx.text.TIM_Base_SetConfig) refers to lto-llvm-7a7817.o(.text.TIM_Base_SetConfig) for [Anonymous Symbol]
    lto-llvm-7a7817.o(.text.HAL_TIM_Base_Start_IT) refers (Special) to use_no_semi_2.o(.text) for __use_no_semihosting
    lto-llvm-7a7817.o(.text.HAL_TIM_Base_Start_IT) refers to lto-llvm-7a7817.o(.bss.htim6) for htim6
    lto-llvm-7a7817.o(.ARM.exidx.text.HAL_TIM_Base_Start_IT) refers (Special) to use_no_semi_2.o(.text) for __use_no_semihosting
    lto-llvm-7a7817.o(.ARM.exidx.text.HAL_TIM_Base_Start_IT) refers to lto-llvm-7a7817.o(.text.HAL_TIM_Base_Start_IT) for [Anonymous Symbol]
    lto-llvm-7a7817.o(.text.TIM_CCxChannelCmd) refers (Special) to use_no_semi_2.o(.text) for __use_no_semihosting
    lto-llvm-7a7817.o(.ARM.exidx.text.TIM_CCxChannelCmd) refers (Special) to use_no_semi_2.o(.text) for __use_no_semihosting
    lto-llvm-7a7817.o(.ARM.exidx.text.TIM_CCxChannelCmd) refers to lto-llvm-7a7817.o(.text.TIM_CCxChannelCmd) for [Anonymous Symbol]
    lto-llvm-7a7817.o(.text.HAL_TIM_PWM_Init) refers (Special) to use_no_semi_2.o(.text) for __use_no_semihosting
    lto-llvm-7a7817.o(.text.HAL_TIM_PWM_Init) refers to lto-llvm-7a7817.o(.bss.htim1) for htim1
    lto-llvm-7a7817.o(.text.HAL_TIM_PWM_Init) refers to lto-llvm-7a7817.o(.text.HAL_TIM_PWM_MspInit) for HAL_TIM_PWM_MspInit
    lto-llvm-7a7817.o(.text.HAL_TIM_PWM_Init) refers to lto-llvm-7a7817.o(.text.TIM_Base_SetConfig) for TIM_Base_SetConfig
    lto-llvm-7a7817.o(.ARM.exidx.text.HAL_TIM_PWM_Init) refers (Special) to use_no_semi_2.o(.text) for __use_no_semihosting
    lto-llvm-7a7817.o(.ARM.exidx.text.HAL_TIM_PWM_Init) refers to lto-llvm-7a7817.o(.text.HAL_TIM_PWM_Init) for [Anonymous Symbol]
    lto-llvm-7a7817.o(.text.HAL_TIM_PWM_Start) refers (Special) to use_no_semi_2.o(.text) for __use_no_semihosting
    lto-llvm-7a7817.o(.text.HAL_TIM_PWM_Start) refers to lto-llvm-7a7817.o(.bss.htim1) for htim1
    lto-llvm-7a7817.o(.text.HAL_TIM_PWM_Start) refers to lto-llvm-7a7817.o(.text.TIM_CCxChannelCmd) for TIM_CCxChannelCmd
    lto-llvm-7a7817.o(.ARM.exidx.text.HAL_TIM_PWM_Start) refers (Special) to use_no_semi_2.o(.text) for __use_no_semihosting
    lto-llvm-7a7817.o(.ARM.exidx.text.HAL_TIM_PWM_Start) refers to lto-llvm-7a7817.o(.text.HAL_TIM_PWM_Start) for [Anonymous Symbol]
    lto-llvm-7a7817.o(.text.HAL_TIM_Encoder_Init) refers (Special) to use_no_semi_2.o(.text) for __use_no_semihosting
    lto-llvm-7a7817.o(.text.HAL_TIM_Encoder_Init) refers to lto-llvm-7a7817.o(.text.HAL_TIM_Encoder_MspInit) for HAL_TIM_Encoder_MspInit
    lto-llvm-7a7817.o(.text.HAL_TIM_Encoder_Init) refers to lto-llvm-7a7817.o(.text.TIM_Base_SetConfig) for TIM_Base_SetConfig
    lto-llvm-7a7817.o(.ARM.exidx.text.HAL_TIM_Encoder_Init) refers (Special) to use_no_semi_2.o(.text) for __use_no_semihosting
    lto-llvm-7a7817.o(.ARM.exidx.text.HAL_TIM_Encoder_Init) refers to lto-llvm-7a7817.o(.text.HAL_TIM_Encoder_Init) for [Anonymous Symbol]
    lto-llvm-7a7817.o(.text.HAL_TIM_Encoder_Start) refers (Special) to use_no_semi_2.o(.text) for __use_no_semihosting
    lto-llvm-7a7817.o(.text.HAL_TIM_Encoder_Start) refers to lto-llvm-7a7817.o(.text.TIM_CCxChannelCmd) for TIM_CCxChannelCmd
    lto-llvm-7a7817.o(.ARM.exidx.text.HAL_TIM_Encoder_Start) refers (Special) to use_no_semi_2.o(.text) for __use_no_semihosting
    lto-llvm-7a7817.o(.ARM.exidx.text.HAL_TIM_Encoder_Start) refers to lto-llvm-7a7817.o(.text.HAL_TIM_Encoder_Start) for [Anonymous Symbol]
    lto-llvm-7a7817.o(.text.TIM_OC1_SetConfig) refers (Special) to use_no_semi_2.o(.text) for __use_no_semihosting
    lto-llvm-7a7817.o(.ARM.exidx.text.TIM_OC1_SetConfig) refers (Special) to use_no_semi_2.o(.text) for __use_no_semihosting
    lto-llvm-7a7817.o(.ARM.exidx.text.TIM_OC1_SetConfig) refers to lto-llvm-7a7817.o(.text.TIM_OC1_SetConfig) for [Anonymous Symbol]
    lto-llvm-7a7817.o(.text.TIM_OC2_SetConfig) refers (Special) to use_no_semi_2.o(.text) for __use_no_semihosting
    lto-llvm-7a7817.o(.ARM.exidx.text.TIM_OC2_SetConfig) refers (Special) to use_no_semi_2.o(.text) for __use_no_semihosting
    lto-llvm-7a7817.o(.ARM.exidx.text.TIM_OC2_SetConfig) refers to lto-llvm-7a7817.o(.text.TIM_OC2_SetConfig) for [Anonymous Symbol]
    lto-llvm-7a7817.o(.text.TIM_OC3_SetConfig) refers (Special) to use_no_semi_2.o(.text) for __use_no_semihosting
    lto-llvm-7a7817.o(.ARM.exidx.text.TIM_OC3_SetConfig) refers (Special) to use_no_semi_2.o(.text) for __use_no_semihosting
    lto-llvm-7a7817.o(.ARM.exidx.text.TIM_OC3_SetConfig) refers to lto-llvm-7a7817.o(.text.TIM_OC3_SetConfig) for [Anonymous Symbol]
    lto-llvm-7a7817.o(.text.TIM_OC4_SetConfig) refers (Special) to use_no_semi_2.o(.text) for __use_no_semihosting
    lto-llvm-7a7817.o(.ARM.exidx.text.TIM_OC4_SetConfig) refers (Special) to use_no_semi_2.o(.text) for __use_no_semihosting
    lto-llvm-7a7817.o(.ARM.exidx.text.TIM_OC4_SetConfig) refers to lto-llvm-7a7817.o(.text.TIM_OC4_SetConfig) for [Anonymous Symbol]
    lto-llvm-7a7817.o(.text.TIM_OC5_SetConfig) refers (Special) to use_no_semi_2.o(.text) for __use_no_semihosting
    lto-llvm-7a7817.o(.ARM.exidx.text.TIM_OC5_SetConfig) refers (Special) to use_no_semi_2.o(.text) for __use_no_semihosting
    lto-llvm-7a7817.o(.ARM.exidx.text.TIM_OC5_SetConfig) refers to lto-llvm-7a7817.o(.text.TIM_OC5_SetConfig) for [Anonymous Symbol]
    lto-llvm-7a7817.o(.text.TIM_OC6_SetConfig) refers (Special) to use_no_semi_2.o(.text) for __use_no_semihosting
    lto-llvm-7a7817.o(.ARM.exidx.text.TIM_OC6_SetConfig) refers (Special) to use_no_semi_2.o(.text) for __use_no_semihosting
    lto-llvm-7a7817.o(.ARM.exidx.text.TIM_OC6_SetConfig) refers to lto-llvm-7a7817.o(.text.TIM_OC6_SetConfig) for [Anonymous Symbol]
    lto-llvm-7a7817.o(.text.HAL_TIM_PWM_ConfigChannel) refers (Special) to use_no_semi_2.o(.text) for __use_no_semihosting
    lto-llvm-7a7817.o(.text.HAL_TIM_PWM_ConfigChannel) refers to lto-llvm-7a7817.o(.bss.htim1) for htim1
    lto-llvm-7a7817.o(.text.HAL_TIM_PWM_ConfigChannel) refers to lto-llvm-7a7817.o(.text.TIM_OC1_SetConfig) for TIM_OC1_SetConfig
    lto-llvm-7a7817.o(.text.HAL_TIM_PWM_ConfigChannel) refers to lto-llvm-7a7817.o(.text.TIM_OC2_SetConfig) for TIM_OC2_SetConfig
    lto-llvm-7a7817.o(.text.HAL_TIM_PWM_ConfigChannel) refers to lto-llvm-7a7817.o(.text.TIM_OC3_SetConfig) for TIM_OC3_SetConfig
    lto-llvm-7a7817.o(.text.HAL_TIM_PWM_ConfigChannel) refers to lto-llvm-7a7817.o(.text.TIM_OC4_SetConfig) for TIM_OC4_SetConfig
    lto-llvm-7a7817.o(.text.HAL_TIM_PWM_ConfigChannel) refers to lto-llvm-7a7817.o(.text.TIM_OC5_SetConfig) for TIM_OC5_SetConfig
    lto-llvm-7a7817.o(.text.HAL_TIM_PWM_ConfigChannel) refers to lto-llvm-7a7817.o(.text.TIM_OC6_SetConfig) for TIM_OC6_SetConfig
    lto-llvm-7a7817.o(.ARM.exidx.text.HAL_TIM_PWM_ConfigChannel) refers (Special) to use_no_semi_2.o(.text) for __use_no_semihosting
    lto-llvm-7a7817.o(.ARM.exidx.text.HAL_TIM_PWM_ConfigChannel) refers to lto-llvm-7a7817.o(.text.HAL_TIM_PWM_ConfigChannel) for [Anonymous Symbol]
    lto-llvm-7a7817.o(.text.HAL_TIMEx_MasterConfigSynchronization) refers (Special) to use_no_semi_2.o(.text) for __use_no_semihosting
    lto-llvm-7a7817.o(.ARM.exidx.text.HAL_TIMEx_MasterConfigSynchronization) refers (Special) to use_no_semi_2.o(.text) for __use_no_semihosting
    lto-llvm-7a7817.o(.ARM.exidx.text.HAL_TIMEx_MasterConfigSynchronization) refers to lto-llvm-7a7817.o(.text.HAL_TIMEx_MasterConfigSynchronization) for [Anonymous Symbol]
    lto-llvm-7a7817.o(.text.HAL_TIMEx_ConfigBreakDeadTime) refers (Special) to use_no_semi_2.o(.text) for __use_no_semihosting
    lto-llvm-7a7817.o(.text.HAL_TIMEx_ConfigBreakDeadTime) refers to lto-llvm-7a7817.o(.bss.htim1) for htim1
    lto-llvm-7a7817.o(.ARM.exidx.text.HAL_TIMEx_ConfigBreakDeadTime) refers (Special) to use_no_semi_2.o(.text) for __use_no_semihosting
    lto-llvm-7a7817.o(.ARM.exidx.text.HAL_TIMEx_ConfigBreakDeadTime) refers to lto-llvm-7a7817.o(.text.HAL_TIMEx_ConfigBreakDeadTime) for [Anonymous Symbol]
    lto-llvm-7a7817.o(.text.LL_TIM_Init) refers (Special) to use_no_semi_2.o(.text) for __use_no_semihosting
    lto-llvm-7a7817.o(.text.LL_TIM_Init) refers to lto-llvm-7a7817.o(.text.LL_TIM_SetAutoReload) for LL_TIM_SetAutoReload
    lto-llvm-7a7817.o(.text.LL_TIM_Init) refers to lto-llvm-7a7817.o(.text.LL_TIM_SetPrescaler) for LL_TIM_SetPrescaler
    lto-llvm-7a7817.o(.text.LL_TIM_Init) refers to lto-llvm-7a7817.o(.text.LL_TIM_SetRepetitionCounter) for LL_TIM_SetRepetitionCounter
    lto-llvm-7a7817.o(.text.LL_TIM_Init) refers to lto-llvm-7a7817.o(.text.LL_TIM_GenerateEvent_UPDATE) for LL_TIM_GenerateEvent_UPDATE
    lto-llvm-7a7817.o(.ARM.exidx.text.LL_TIM_Init) refers (Special) to use_no_semi_2.o(.text) for __use_no_semihosting
    lto-llvm-7a7817.o(.ARM.exidx.text.LL_TIM_Init) refers to lto-llvm-7a7817.o(.text.LL_TIM_Init) for [Anonymous Symbol]
    lto-llvm-7a7817.o(.text.LL_TIM_SetAutoReload) refers (Special) to use_no_semi_2.o(.text) for __use_no_semihosting
    lto-llvm-7a7817.o(.ARM.exidx.text.LL_TIM_SetAutoReload) refers (Special) to use_no_semi_2.o(.text) for __use_no_semihosting
    lto-llvm-7a7817.o(.ARM.exidx.text.LL_TIM_SetAutoReload) refers to lto-llvm-7a7817.o(.text.LL_TIM_SetAutoReload) for [Anonymous Symbol]
    lto-llvm-7a7817.o(.text.LL_TIM_SetPrescaler) refers (Special) to use_no_semi_2.o(.text) for __use_no_semihosting
    lto-llvm-7a7817.o(.ARM.exidx.text.LL_TIM_SetPrescaler) refers (Special) to use_no_semi_2.o(.text) for __use_no_semihosting
    lto-llvm-7a7817.o(.ARM.exidx.text.LL_TIM_SetPrescaler) refers to lto-llvm-7a7817.o(.text.LL_TIM_SetPrescaler) for [Anonymous Symbol]
    lto-llvm-7a7817.o(.text.LL_TIM_SetRepetitionCounter) refers (Special) to use_no_semi_2.o(.text) for __use_no_semihosting
    lto-llvm-7a7817.o(.ARM.exidx.text.LL_TIM_SetRepetitionCounter) refers (Special) to use_no_semi_2.o(.text) for __use_no_semihosting
    lto-llvm-7a7817.o(.ARM.exidx.text.LL_TIM_SetRepetitionCounter) refers to lto-llvm-7a7817.o(.text.LL_TIM_SetRepetitionCounter) for [Anonymous Symbol]
    lto-llvm-7a7817.o(.text.LL_TIM_GenerateEvent_UPDATE) refers (Special) to use_no_semi_2.o(.text) for __use_no_semihosting
    lto-llvm-7a7817.o(.ARM.exidx.text.LL_TIM_GenerateEvent_UPDATE) refers (Special) to use_no_semi_2.o(.text) for __use_no_semihosting
    lto-llvm-7a7817.o(.ARM.exidx.text.LL_TIM_GenerateEvent_UPDATE) refers to lto-llvm-7a7817.o(.text.LL_TIM_GenerateEvent_UPDATE) for [Anonymous Symbol]
    lto-llvm-7a7817.o(.text.HAL_UART_Init) refers (Special) to use_no_semi_2.o(.text) for __use_no_semihosting
    lto-llvm-7a7817.o(.text.HAL_UART_Init) refers to lto-llvm-7a7817.o(.text.HAL_UART_MspInit) for HAL_UART_MspInit
    lto-llvm-7a7817.o(.text.HAL_UART_Init) refers to lto-llvm-7a7817.o(.text.UART_SetConfig) for UART_SetConfig
    lto-llvm-7a7817.o(.text.HAL_UART_Init) refers to lto-llvm-7a7817.o(.text.UART_AdvFeatureConfig) for UART_AdvFeatureConfig
    lto-llvm-7a7817.o(.text.HAL_UART_Init) refers to lto-llvm-7a7817.o(.text.UART_CheckIdleState) for UART_CheckIdleState
    lto-llvm-7a7817.o(.ARM.exidx.text.HAL_UART_Init) refers (Special) to use_no_semi_2.o(.text) for __use_no_semihosting
    lto-llvm-7a7817.o(.ARM.exidx.text.HAL_UART_Init) refers to lto-llvm-7a7817.o(.text.HAL_UART_Init) for [Anonymous Symbol]
    lto-llvm-7a7817.o(.text.UART_SetConfig) refers (Special) to use_no_semi_2.o(.text) for __use_no_semihosting
    lto-llvm-7a7817.o(.text.UART_SetConfig) refers to lto-llvm-7a7817.o(.text.HAL_RCCEx_GetD3PCLK1Freq) for HAL_RCCEx_GetD3PCLK1Freq
    lto-llvm-7a7817.o(.text.UART_SetConfig) refers to lto-llvm-7a7817.o(.text.HAL_RCCEx_GetPLL2ClockFreq) for HAL_RCCEx_GetPLL2ClockFreq
    lto-llvm-7a7817.o(.text.UART_SetConfig) refers to lto-llvm-7a7817.o(.text.HAL_RCCEx_GetPLL3ClockFreq) for HAL_RCCEx_GetPLL3ClockFreq
    lto-llvm-7a7817.o(.text.UART_SetConfig) refers to lto-llvm-7a7817.o(.rodata.UARTPrescTable) for UARTPrescTable
    lto-llvm-7a7817.o(.text.UART_SetConfig) refers to lludivv7m.o(.text) for __aeabi_uldivmod
    lto-llvm-7a7817.o(.text.UART_SetConfig) refers to lto-llvm-7a7817.o(.text.HAL_RCC_GetPCLK1Freq) for HAL_RCC_GetPCLK1Freq
    lto-llvm-7a7817.o(.text.UART_SetConfig) refers to lto-llvm-7a7817.o(.text.HAL_RCC_GetPCLK2Freq) for HAL_RCC_GetPCLK2Freq
    lto-llvm-7a7817.o(.ARM.exidx.text.UART_SetConfig) refers (Special) to use_no_semi_2.o(.text) for __use_no_semihosting
    lto-llvm-7a7817.o(.ARM.exidx.text.UART_SetConfig) refers to lto-llvm-7a7817.o(.text.UART_SetConfig) for [Anonymous Symbol]
    lto-llvm-7a7817.o(.text.UART_AdvFeatureConfig) refers (Special) to use_no_semi_2.o(.text) for __use_no_semihosting
    lto-llvm-7a7817.o(.ARM.exidx.text.UART_AdvFeatureConfig) refers (Special) to use_no_semi_2.o(.text) for __use_no_semihosting
    lto-llvm-7a7817.o(.ARM.exidx.text.UART_AdvFeatureConfig) refers to lto-llvm-7a7817.o(.text.UART_AdvFeatureConfig) for [Anonymous Symbol]
    lto-llvm-7a7817.o(.text.UART_CheckIdleState) refers (Special) to use_no_semi_2.o(.text) for __use_no_semihosting
    lto-llvm-7a7817.o(.text.UART_CheckIdleState) refers to lto-llvm-7a7817.o(.text.HAL_GetTick) for HAL_GetTick
    lto-llvm-7a7817.o(.text.UART_CheckIdleState) refers to lto-llvm-7a7817.o(.text.UART_WaitOnFlagUntilTimeout) for UART_WaitOnFlagUntilTimeout
    lto-llvm-7a7817.o(.ARM.exidx.text.UART_CheckIdleState) refers (Special) to use_no_semi_2.o(.text) for __use_no_semihosting
    lto-llvm-7a7817.o(.ARM.exidx.text.UART_CheckIdleState) refers to lto-llvm-7a7817.o(.text.UART_CheckIdleState) for [Anonymous Symbol]
    lto-llvm-7a7817.o(.text.UART_WaitOnFlagUntilTimeout) refers (Special) to use_no_semi_2.o(.text) for __use_no_semihosting
    lto-llvm-7a7817.o(.text.UART_WaitOnFlagUntilTimeout) refers to lto-llvm-7a7817.o(.text.HAL_GetTick) for HAL_GetTick
    lto-llvm-7a7817.o(.ARM.exidx.text.UART_WaitOnFlagUntilTimeout) refers (Special) to use_no_semi_2.o(.text) for __use_no_semihosting
    lto-llvm-7a7817.o(.ARM.exidx.text.UART_WaitOnFlagUntilTimeout) refers to lto-llvm-7a7817.o(.text.UART_WaitOnFlagUntilTimeout) for [Anonymous Symbol]
    lto-llvm-7a7817.o(.text.HAL_UART_Transmit) refers (Special) to use_no_semi_2.o(.text) for __use_no_semihosting
    lto-llvm-7a7817.o(.text.HAL_UART_Transmit) refers to lto-llvm-7a7817.o(.text.HAL_GetTick) for HAL_GetTick
    lto-llvm-7a7817.o(.text.HAL_UART_Transmit) refers to lto-llvm-7a7817.o(.text.UART_WaitOnFlagUntilTimeout) for UART_WaitOnFlagUntilTimeout
    lto-llvm-7a7817.o(.ARM.exidx.text.HAL_UART_Transmit) refers (Special) to use_no_semi_2.o(.text) for __use_no_semihosting
    lto-llvm-7a7817.o(.ARM.exidx.text.HAL_UART_Transmit) refers to lto-llvm-7a7817.o(.text.HAL_UART_Transmit) for [Anonymous Symbol]
    lto-llvm-7a7817.o(.text.HAL_UART_Transmit_DMA) refers (Special) to use_no_semi_2.o(.text) for __use_no_semihosting
    lto-llvm-7a7817.o(.text.HAL_UART_Transmit_DMA) refers to lto-llvm-7a7817.o(.text.UART_DMATransmitCplt) for UART_DMATransmitCplt
    lto-llvm-7a7817.o(.text.HAL_UART_Transmit_DMA) refers to lto-llvm-7a7817.o(.text.UART_DMATxHalfCplt) for UART_DMATxHalfCplt
    lto-llvm-7a7817.o(.text.HAL_UART_Transmit_DMA) refers to lto-llvm-7a7817.o(.text.UART_DMAError) for UART_DMAError
    lto-llvm-7a7817.o(.text.HAL_UART_Transmit_DMA) refers to lto-llvm-7a7817.o(.text.HAL_DMA_Start_IT) for HAL_DMA_Start_IT
    lto-llvm-7a7817.o(.ARM.exidx.text.HAL_UART_Transmit_DMA) refers (Special) to use_no_semi_2.o(.text) for __use_no_semihosting
    lto-llvm-7a7817.o(.ARM.exidx.text.HAL_UART_Transmit_DMA) refers to lto-llvm-7a7817.o(.text.HAL_UART_Transmit_DMA) for [Anonymous Symbol]
    lto-llvm-7a7817.o(.text.UART_DMATransmitCplt) refers (Special) to use_no_semi_2.o(.text) for __use_no_semihosting
    lto-llvm-7a7817.o(.text.UART_DMATransmitCplt) refers to lto-llvm-7a7817.o(.text.HAL_UART_TxCpltCallback) for HAL_UART_TxCpltCallback
    lto-llvm-7a7817.o(.ARM.exidx.text.UART_DMATransmitCplt) refers (Special) to use_no_semi_2.o(.text) for __use_no_semihosting
    lto-llvm-7a7817.o(.ARM.exidx.text.UART_DMATransmitCplt) refers to lto-llvm-7a7817.o(.text.UART_DMATransmitCplt) for [Anonymous Symbol]
    lto-llvm-7a7817.o(.text.UART_DMATxHalfCplt) refers (Special) to use_no_semi_2.o(.text) for __use_no_semihosting
    lto-llvm-7a7817.o(.text.UART_DMATxHalfCplt) refers to lto-llvm-7a7817.o(.text.HAL_UART_TxHalfCpltCallback) for HAL_UART_TxHalfCpltCallback
    lto-llvm-7a7817.o(.ARM.exidx.text.UART_DMATxHalfCplt) refers (Special) to use_no_semi_2.o(.text) for __use_no_semihosting
    lto-llvm-7a7817.o(.ARM.exidx.text.UART_DMATxHalfCplt) refers to lto-llvm-7a7817.o(.text.UART_DMATxHalfCplt) for [Anonymous Symbol]
    lto-llvm-7a7817.o(.text.UART_DMAError) refers (Special) to use_no_semi_2.o(.text) for __use_no_semihosting
    lto-llvm-7a7817.o(.text.UART_DMAError) refers to lto-llvm-7a7817.o(.text.UART_EndTxTransfer) for UART_EndTxTransfer
    lto-llvm-7a7817.o(.text.UART_DMAError) refers to lto-llvm-7a7817.o(.text.UART_EndRxTransfer) for UART_EndRxTransfer
    lto-llvm-7a7817.o(.text.UART_DMAError) refers to lto-llvm-7a7817.o(.text.HAL_UART_ErrorCallback) for HAL_UART_ErrorCallback
    lto-llvm-7a7817.o(.ARM.exidx.text.UART_DMAError) refers (Special) to use_no_semi_2.o(.text) for __use_no_semihosting
    lto-llvm-7a7817.o(.ARM.exidx.text.UART_DMAError) refers to lto-llvm-7a7817.o(.text.UART_DMAError) for [Anonymous Symbol]
    lto-llvm-7a7817.o(.text.UART_EndTxTransfer) refers (Special) to use_no_semi_2.o(.text) for __use_no_semihosting
    lto-llvm-7a7817.o(.ARM.exidx.text.UART_EndTxTransfer) refers (Special) to use_no_semi_2.o(.text) for __use_no_semihosting
    lto-llvm-7a7817.o(.ARM.exidx.text.UART_EndTxTransfer) refers to lto-llvm-7a7817.o(.text.UART_EndTxTransfer) for [Anonymous Symbol]
    lto-llvm-7a7817.o(.text.UART_EndRxTransfer) refers (Special) to use_no_semi_2.o(.text) for __use_no_semihosting
    lto-llvm-7a7817.o(.ARM.exidx.text.UART_EndRxTransfer) refers (Special) to use_no_semi_2.o(.text) for __use_no_semihosting
    lto-llvm-7a7817.o(.ARM.exidx.text.UART_EndRxTransfer) refers to lto-llvm-7a7817.o(.text.UART_EndRxTransfer) for [Anonymous Symbol]
    lto-llvm-7a7817.o(.text.HAL_UART_ErrorCallback) refers (Special) to use_no_semi_2.o(.text) for __use_no_semihosting
    lto-llvm-7a7817.o(.ARM.exidx.text.HAL_UART_ErrorCallback) refers (Special) to use_no_semi_2.o(.text) for __use_no_semihosting
    lto-llvm-7a7817.o(.ARM.exidx.text.HAL_UART_ErrorCallback) refers to lto-llvm-7a7817.o(.text.HAL_UART_ErrorCallback) for [Anonymous Symbol]
    lto-llvm-7a7817.o(.text.HAL_UART_TxHalfCpltCallback) refers (Special) to use_no_semi_2.o(.text) for __use_no_semihosting
    lto-llvm-7a7817.o(.ARM.exidx.text.HAL_UART_TxHalfCpltCallback) refers (Special) to use_no_semi_2.o(.text) for __use_no_semihosting
    lto-llvm-7a7817.o(.ARM.exidx.text.HAL_UART_TxHalfCpltCallback) refers to lto-llvm-7a7817.o(.text.HAL_UART_TxHalfCpltCallback) for [Anonymous Symbol]
    lto-llvm-7a7817.o(.text.HAL_UART_Receive_DMA) refers (Special) to use_no_semi_2.o(.text) for __use_no_semihosting
    lto-llvm-7a7817.o(.text.HAL_UART_Receive_DMA) refers to lto-llvm-7a7817.o(.text.UART_DMAReceiveCplt) for UART_DMAReceiveCplt
    lto-llvm-7a7817.o(.text.HAL_UART_Receive_DMA) refers to lto-llvm-7a7817.o(.text.UART_DMARxHalfCplt) for UART_DMARxHalfCplt
    lto-llvm-7a7817.o(.text.HAL_UART_Receive_DMA) refers to lto-llvm-7a7817.o(.text.UART_DMAError) for UART_DMAError
    lto-llvm-7a7817.o(.text.HAL_UART_Receive_DMA) refers to lto-llvm-7a7817.o(.text.HAL_DMA_Start_IT) for HAL_DMA_Start_IT
    lto-llvm-7a7817.o(.ARM.exidx.text.HAL_UART_Receive_DMA) refers (Special) to use_no_semi_2.o(.text) for __use_no_semihosting
    lto-llvm-7a7817.o(.ARM.exidx.text.HAL_UART_Receive_DMA) refers to lto-llvm-7a7817.o(.text.HAL_UART_Receive_DMA) for [Anonymous Symbol]
    lto-llvm-7a7817.o(.text.UART_DMAReceiveCplt) refers (Special) to use_no_semi_2.o(.text) for __use_no_semihosting
    lto-llvm-7a7817.o(.text.UART_DMAReceiveCplt) refers to lto-llvm-7a7817.o(.text.HAL_UART_RxCpltCallback) for HAL_UART_RxCpltCallback
    lto-llvm-7a7817.o(.ARM.exidx.text.UART_DMAReceiveCplt) refers (Special) to use_no_semi_2.o(.text) for __use_no_semihosting
    lto-llvm-7a7817.o(.ARM.exidx.text.UART_DMAReceiveCplt) refers to lto-llvm-7a7817.o(.text.UART_DMAReceiveCplt) for [Anonymous Symbol]
    lto-llvm-7a7817.o(.text.UART_DMARxHalfCplt) refers (Special) to use_no_semi_2.o(.text) for __use_no_semihosting
    lto-llvm-7a7817.o(.text.UART_DMARxHalfCplt) refers to lto-llvm-7a7817.o(.text.HAL_UART_RxHalfCpltCallback) for HAL_UART_RxHalfCpltCallback
    lto-llvm-7a7817.o(.ARM.exidx.text.UART_DMARxHalfCplt) refers (Special) to use_no_semi_2.o(.text) for __use_no_semihosting
    lto-llvm-7a7817.o(.ARM.exidx.text.UART_DMARxHalfCplt) refers to lto-llvm-7a7817.o(.text.UART_DMARxHalfCplt) for [Anonymous Symbol]
    lto-llvm-7a7817.o(.text.HAL_UART_RxHalfCpltCallback) refers (Special) to use_no_semi_2.o(.text) for __use_no_semihosting
    lto-llvm-7a7817.o(.ARM.exidx.text.HAL_UART_RxHalfCpltCallback) refers (Special) to use_no_semi_2.o(.text) for __use_no_semihosting
    lto-llvm-7a7817.o(.ARM.exidx.text.HAL_UART_RxHalfCpltCallback) refers to lto-llvm-7a7817.o(.text.HAL_UART_RxHalfCpltCallback) for [Anonymous Symbol]
    lto-llvm-7a7817.o(.text.HAL_UART_IRQHandler) refers (Special) to use_no_semi_2.o(.text) for __use_no_semihosting
    lto-llvm-7a7817.o(.text.HAL_UART_IRQHandler) refers to lto-llvm-7a7817.o(.text.UART_EndRxTransfer) for UART_EndRxTransfer
    lto-llvm-7a7817.o(.text.HAL_UART_IRQHandler) refers to lto-llvm-7a7817.o(.text.UART_DMAAbortOnError) for UART_DMAAbortOnError
    lto-llvm-7a7817.o(.text.HAL_UART_IRQHandler) refers to lto-llvm-7a7817.o(.text.HAL_DMA_Abort_IT) for HAL_DMA_Abort_IT
    lto-llvm-7a7817.o(.text.HAL_UART_IRQHandler) refers to lto-llvm-7a7817.o(.text.HAL_UART_ErrorCallback) for HAL_UART_ErrorCallback
    lto-llvm-7a7817.o(.text.HAL_UART_IRQHandler) refers to lto-llvm-7a7817.o(.text.HAL_UARTEx_WakeupCallback) for HAL_UARTEx_WakeupCallback
    lto-llvm-7a7817.o(.text.HAL_UART_IRQHandler) refers to lto-llvm-7a7817.o(.text.UART_EndTransmit_IT) for UART_EndTransmit_IT
    lto-llvm-7a7817.o(.text.HAL_UART_IRQHandler) refers to lto-llvm-7a7817.o(.text.HAL_UARTEx_TxFifoEmptyCallback) for HAL_UARTEx_TxFifoEmptyCallback
    lto-llvm-7a7817.o(.text.HAL_UART_IRQHandler) refers to lto-llvm-7a7817.o(.text.HAL_UARTEx_RxFifoFullCallback) for HAL_UARTEx_RxFifoFullCallback
    lto-llvm-7a7817.o(.ARM.exidx.text.HAL_UART_IRQHandler) refers (Special) to use_no_semi_2.o(.text) for __use_no_semihosting
    lto-llvm-7a7817.o(.ARM.exidx.text.HAL_UART_IRQHandler) refers to lto-llvm-7a7817.o(.text.HAL_UART_IRQHandler) for [Anonymous Symbol]
    lto-llvm-7a7817.o(.text.UART_DMAAbortOnError) refers (Special) to use_no_semi_2.o(.text) for __use_no_semihosting
    lto-llvm-7a7817.o(.text.UART_DMAAbortOnError) refers to lto-llvm-7a7817.o(.text.HAL_UART_ErrorCallback) for HAL_UART_ErrorCallback
    lto-llvm-7a7817.o(.ARM.exidx.text.UART_DMAAbortOnError) refers (Special) to use_no_semi_2.o(.text) for __use_no_semihosting
    lto-llvm-7a7817.o(.ARM.exidx.text.UART_DMAAbortOnError) refers to lto-llvm-7a7817.o(.text.UART_DMAAbortOnError) for [Anonymous Symbol]
    lto-llvm-7a7817.o(.text.UART_EndTransmit_IT) refers (Special) to use_no_semi_2.o(.text) for __use_no_semihosting
    lto-llvm-7a7817.o(.text.UART_EndTransmit_IT) refers to lto-llvm-7a7817.o(.text.HAL_UART_TxCpltCallback) for HAL_UART_TxCpltCallback
    lto-llvm-7a7817.o(.ARM.exidx.text.UART_EndTransmit_IT) refers (Special) to use_no_semi_2.o(.text) for __use_no_semihosting
    lto-llvm-7a7817.o(.ARM.exidx.text.UART_EndTransmit_IT) refers to lto-llvm-7a7817.o(.text.UART_EndTransmit_IT) for [Anonymous Symbol]
    lto-llvm-7a7817.o(.text.HAL_UARTEx_WakeupCallback) refers (Special) to use_no_semi_2.o(.text) for __use_no_semihosting
    lto-llvm-7a7817.o(.ARM.exidx.text.HAL_UARTEx_WakeupCallback) refers (Special) to use_no_semi_2.o(.text) for __use_no_semihosting
    lto-llvm-7a7817.o(.ARM.exidx.text.HAL_UARTEx_WakeupCallback) refers to lto-llvm-7a7817.o(.text.HAL_UARTEx_WakeupCallback) for [Anonymous Symbol]
    lto-llvm-7a7817.o(.text.HAL_UARTEx_RxFifoFullCallback) refers (Special) to use_no_semi_2.o(.text) for __use_no_semihosting
    lto-llvm-7a7817.o(.ARM.exidx.text.HAL_UARTEx_RxFifoFullCallback) refers (Special) to use_no_semi_2.o(.text) for __use_no_semihosting
    lto-llvm-7a7817.o(.ARM.exidx.text.HAL_UARTEx_RxFifoFullCallback) refers to lto-llvm-7a7817.o(.text.HAL_UARTEx_RxFifoFullCallback) for [Anonymous Symbol]
    lto-llvm-7a7817.o(.text.HAL_UARTEx_TxFifoEmptyCallback) refers (Special) to use_no_semi_2.o(.text) for __use_no_semihosting
    lto-llvm-7a7817.o(.ARM.exidx.text.HAL_UARTEx_TxFifoEmptyCallback) refers (Special) to use_no_semi_2.o(.text) for __use_no_semihosting
    lto-llvm-7a7817.o(.ARM.exidx.text.HAL_UARTEx_TxFifoEmptyCallback) refers to lto-llvm-7a7817.o(.text.HAL_UARTEx_TxFifoEmptyCallback) for [Anonymous Symbol]
    lto-llvm-7a7817.o(.text.UARTEx_SetNbDataToProcess) refers (Special) to use_no_semi_2.o(.text) for __use_no_semihosting
    lto-llvm-7a7817.o(.ARM.exidx.text.UARTEx_SetNbDataToProcess) refers (Special) to use_no_semi_2.o(.text) for __use_no_semihosting
    lto-llvm-7a7817.o(.ARM.exidx.text.UARTEx_SetNbDataToProcess) refers to lto-llvm-7a7817.o(.text.UARTEx_SetNbDataToProcess) for [Anonymous Symbol]
    lto-llvm-7a7817.o(.text.HAL_UARTEx_DisableFifoMode) refers (Special) to use_no_semi_2.o(.text) for __use_no_semihosting
    lto-llvm-7a7817.o(.ARM.exidx.text.HAL_UARTEx_DisableFifoMode) refers (Special) to use_no_semi_2.o(.text) for __use_no_semihosting
    lto-llvm-7a7817.o(.ARM.exidx.text.HAL_UARTEx_DisableFifoMode) refers to lto-llvm-7a7817.o(.text.HAL_UARTEx_DisableFifoMode) for [Anonymous Symbol]
    lto-llvm-7a7817.o(.text.HAL_UARTEx_SetTxFifoThreshold) refers (Special) to use_no_semi_2.o(.text) for __use_no_semihosting
    lto-llvm-7a7817.o(.text.HAL_UARTEx_SetTxFifoThreshold) refers to lto-llvm-7a7817.o(.text.UARTEx_SetNbDataToProcess) for UARTEx_SetNbDataToProcess
    lto-llvm-7a7817.o(.ARM.exidx.text.HAL_UARTEx_SetTxFifoThreshold) refers (Special) to use_no_semi_2.o(.text) for __use_no_semihosting
    lto-llvm-7a7817.o(.ARM.exidx.text.HAL_UARTEx_SetTxFifoThreshold) refers to lto-llvm-7a7817.o(.text.HAL_UARTEx_SetTxFifoThreshold) for [Anonymous Symbol]
    lto-llvm-7a7817.o(.text.HAL_UARTEx_SetRxFifoThreshold) refers (Special) to use_no_semi_2.o(.text) for __use_no_semihosting
    lto-llvm-7a7817.o(.text.HAL_UARTEx_SetRxFifoThreshold) refers to lto-llvm-7a7817.o(.text.UARTEx_SetNbDataToProcess) for UARTEx_SetNbDataToProcess
    lto-llvm-7a7817.o(.ARM.exidx.text.HAL_UARTEx_SetRxFifoThreshold) refers (Special) to use_no_semi_2.o(.text) for __use_no_semihosting
    lto-llvm-7a7817.o(.ARM.exidx.text.HAL_UARTEx_SetRxFifoThreshold) refers to lto-llvm-7a7817.o(.text.HAL_UARTEx_SetRxFifoThreshold) for [Anonymous Symbol]
    lto-llvm-7a7817.o(.text.SystemInit) refers (Special) to use_no_semi_2.o(.text) for __use_no_semihosting
    lto-llvm-7a7817.o(.ARM.exidx.text.SystemInit) refers (Special) to use_no_semi_2.o(.text) for __use_no_semihosting
    lto-llvm-7a7817.o(.ARM.exidx.text.SystemInit) refers to lto-llvm-7a7817.o(.text.SystemInit) for [Anonymous Symbol]
    lto-llvm-7a7817.o(.text.writeSCS) refers (Special) to use_no_semi_2.o(.text) for __use_no_semihosting
    lto-llvm-7a7817.o(.text.writeSCS) refers to lto-llvm-7a7817.o(.bss.huart5) for huart5
    lto-llvm-7a7817.o(.text.writeSCS) refers to lto-llvm-7a7817.o(.text.HAL_UART_Transmit) for HAL_UART_Transmit
    lto-llvm-7a7817.o(.ARM.exidx.text.writeSCS) refers (Special) to use_no_semi_2.o(.text) for __use_no_semihosting
    lto-llvm-7a7817.o(.ARM.exidx.text.writeSCS) refers to lto-llvm-7a7817.o(.text.writeSCS) for [Anonymous Symbol]
    lto-llvm-7a7817.o(.text.Host2SCS) refers (Special) to use_no_semi_2.o(.text) for __use_no_semihosting
    lto-llvm-7a7817.o(.ARM.exidx.text.Host2SCS) refers (Special) to use_no_semi_2.o(.text) for __use_no_semihosting
    lto-llvm-7a7817.o(.ARM.exidx.text.Host2SCS) refers to lto-llvm-7a7817.o(.text.Host2SCS) for [Anonymous Symbol]
    lto-llvm-7a7817.o(.text.writeBuf) refers (Special) to use_no_semi_2.o(.text) for __use_no_semihosting
    lto-llvm-7a7817.o(.text.writeBuf) refers to lto-llvm-7a7817.o(.text.writeSCS) for writeSCS
    lto-llvm-7a7817.o(.ARM.exidx.text.writeBuf) refers (Special) to use_no_semi_2.o(.text) for __use_no_semihosting
    lto-llvm-7a7817.o(.ARM.exidx.text.writeBuf) refers to lto-llvm-7a7817.o(.text.writeBuf) for [Anonymous Symbol]
    lto-llvm-7a7817.o(.text.Ack) refers (Special) to use_no_semi_2.o(.text) for __use_no_semihosting
    lto-llvm-7a7817.o(.ARM.exidx.text.Ack) refers (Special) to use_no_semi_2.o(.text) for __use_no_semihosting
    lto-llvm-7a7817.o(.ARM.exidx.text.Ack) refers to lto-llvm-7a7817.o(.text.Ack) for [Anonymous Symbol]
    lto-llvm-7a7817.o(.text.writePos) refers (Special) to use_no_semi_2.o(.text) for __use_no_semihosting
    lto-llvm-7a7817.o(.text.writePos) refers to lto-llvm-7a7817.o(.text.Host2SCS) for Host2SCS
    lto-llvm-7a7817.o(.text.writePos) refers to lto-llvm-7a7817.o(.text.writeBuf) for writeBuf
    lto-llvm-7a7817.o(.text.writePos) refers to lto-llvm-7a7817.o(.text.Ack) for Ack
    lto-llvm-7a7817.o(.ARM.exidx.text.writePos) refers (Special) to use_no_semi_2.o(.text) for __use_no_semihosting
    lto-llvm-7a7817.o(.ARM.exidx.text.writePos) refers to lto-llvm-7a7817.o(.text.writePos) for [Anonymous Symbol]
    lto-llvm-7a7817.o(.text.WritePos) refers (Special) to use_no_semi_2.o(.text) for __use_no_semihosting
    lto-llvm-7a7817.o(.text.WritePos) refers to lto-llvm-7a7817.o(.text.writePos) for writePos
    lto-llvm-7a7817.o(.ARM.exidx.text.WritePos) refers (Special) to use_no_semi_2.o(.text) for __use_no_semihosting
    lto-llvm-7a7817.o(.ARM.exidx.text.WritePos) refers to lto-llvm-7a7817.o(.text.WritePos) for [Anonymous Symbol]
    lto-llvm-7a7817.o(.text._Z18Screen_printStringNSt3__112basic_stringIcNS_11char_traitsIcEENS_9allocatorIcEEEE) refers (Special) to use_no_semi_2.o(.text) for __use_no_semihosting
    lto-llvm-7a7817.o(.text._Z18Screen_printStringNSt3__112basic_stringIcNS_11char_traitsIcEENS_9allocatorIcEEEE) refers to lto-llvm-7a7817.o(.bss.huart7) for huart7
    lto-llvm-7a7817.o(.text._Z18Screen_printStringNSt3__112basic_stringIcNS_11char_traitsIcEENS_9allocatorIcEEEE) refers to lto-llvm-7a7817.o(.rodata.str1.1) for .L.str
    lto-llvm-7a7817.o(.text._Z18Screen_printStringNSt3__112basic_stringIcNS_11char_traitsIcEENS_9allocatorIcEEEE) refers to lto-llvm-7a7817.o(.text.HAL_UART_Transmit) for HAL_UART_Transmit
    lto-llvm-7a7817.o(.ARM.exidx.text._Z18Screen_printStringNSt3__112basic_stringIcNS_11char_traitsIcEENS_9allocatorIcEEEE) refers (Special) to use_no_semi_2.o(.text) for __use_no_semihosting
    lto-llvm-7a7817.o(.ARM.exidx.text._Z18Screen_printStringNSt3__112basic_stringIcNS_11char_traitsIcEENS_9allocatorIcEEEE) refers to lto-llvm-7a7817.o(.text._Z18Screen_printStringNSt3__112basic_stringIcNS_11char_traitsIcEENS_9allocatorIcEEEE) for [Anonymous Symbol]
    lto-llvm-7a7817.o(.text.stepper_ISR) refers (Special) to use_no_semi_2.o(.text) for __use_no_semihosting
    lto-llvm-7a7817.o(.text.stepper_ISR) refers to lto-llvm-7a7817.o(.bss._ZZ11stepper_ISRE7counter) for stepper_ISR::counter
    lto-llvm-7a7817.o(.text.stepper_ISR) refers to lto-llvm-7a7817.o(.data.current_speed) for current_speed
    lto-llvm-7a7817.o(.text.stepper_ISR) refers to lto-llvm-7a7817.o(.bss.current_halfstep_left) for current_halfstep_left
    lto-llvm-7a7817.o(.text.stepper_ISR) refers to lto-llvm-7a7817.o(.text.HAL_GPIO_WritePin) for HAL_GPIO_WritePin
    lto-llvm-7a7817.o(.text.stepper_ISR) refers to lto-llvm-7a7817.o(.bss.current_halfstep_total) for current_halfstep_total
    lto-llvm-7a7817.o(.text.stepper_ISR) refers to lto-llvm-7a7817.o(.bss._ZZ11stepper_ISRE5state) for stepper_ISR::state
    lto-llvm-7a7817.o(.text.stepper_ISR) refers to lto-llvm-7a7817.o(.bss.clear_flag) for clear_flag
    lto-llvm-7a7817.o(.text.stepper_ISR) refers to lto-llvm-7a7817.o(.bss.clear_count) for clear_count
    lto-llvm-7a7817.o(.text.stepper_ISR) refers to lto-llvm-7a7817.o(.text.HAL_GPIO_ReadPin) for HAL_GPIO_ReadPin
    lto-llvm-7a7817.o(.text.stepper_ISR) refers to lto-llvm-7a7817.o(.text.set_stepper) for set_stepper
    lto-llvm-7a7817.o(.ARM.exidx.text.stepper_ISR) refers (Special) to use_no_semi_2.o(.text) for __use_no_semihosting
    lto-llvm-7a7817.o(.ARM.exidx.text.stepper_ISR) refers to lto-llvm-7a7817.o(.text.stepper_ISR) for [Anonymous Symbol]
    lto-llvm-7a7817.o(.text.set_stepper) refers (Special) to use_no_semi_2.o(.text) for __use_no_semihosting
    lto-llvm-7a7817.o(.text.set_stepper) refers to lto-llvm-7a7817.o(.bss.current_halfstep_total) for current_halfstep_total
    lto-llvm-7a7817.o(.text.set_stepper) refers to abs.o(.text) for abs
    lto-llvm-7a7817.o(.text.set_stepper) refers to lto-llvm-7a7817.o(.data.current_speed) for current_speed
    lto-llvm-7a7817.o(.text.set_stepper) refers to lto-llvm-7a7817.o(.bss.current_halfstep_left) for current_halfstep_left
    lto-llvm-7a7817.o(.ARM.exidx.text.set_stepper) refers (Special) to use_no_semi_2.o(.text) for __use_no_semihosting
    lto-llvm-7a7817.o(.ARM.exidx.text.set_stepper) refers to lto-llvm-7a7817.o(.text.set_stepper) for [Anonymous Symbol]
    lto-llvm-7a7817.o(.text.set_stepper_abs) refers (Special) to use_no_semi_2.o(.text) for __use_no_semihosting
    lto-llvm-7a7817.o(.text.set_stepper_abs) refers to lto-llvm-7a7817.o(.data.current_speed) for current_speed
    lto-llvm-7a7817.o(.text.set_stepper_abs) refers to lto-llvm-7a7817.o(.bss.current_halfstep_total) for current_halfstep_total
    lto-llvm-7a7817.o(.text.set_stepper_abs) refers to lto-llvm-7a7817.o(.bss.current_halfstep_left) for current_halfstep_left
    lto-llvm-7a7817.o(.ARM.exidx.text.set_stepper_abs) refers (Special) to use_no_semi_2.o(.text) for __use_no_semihosting
    lto-llvm-7a7817.o(.ARM.exidx.text.set_stepper_abs) refers to lto-llvm-7a7817.o(.text.set_stepper_abs) for [Anonymous Symbol]
    lto-llvm-7a7817.o(.text.HAL_GPIO_EXTI_Callback) refers (Special) to use_no_semi_2.o(.text) for __use_no_semihosting
    lto-llvm-7a7817.o(.text.HAL_GPIO_EXTI_Callback) refers to lto-llvm-7a7817.o(.bss.clear_flag) for clear_flag
    lto-llvm-7a7817.o(.ARM.exidx.text.HAL_GPIO_EXTI_Callback) refers (Special) to use_no_semi_2.o(.text) for __use_no_semihosting
    lto-llvm-7a7817.o(.ARM.exidx.text.HAL_GPIO_EXTI_Callback) refers to lto-llvm-7a7817.o(.text.HAL_GPIO_EXTI_Callback) for [Anonymous Symbol]
    lto-llvm-7a7817.o(.text.Control) refers (Special) to use_no_semi_2.o(.text) for __use_no_semihosting
    lto-llvm-7a7817.o(.text.Control) refers to lto-llvm-7a7817.o(.bss.Run_Flag) for Run_Flag
    lto-llvm-7a7817.o(.text.Control) refers to lto-llvm-7a7817.o(.data.relative) for relative
    lto-llvm-7a7817.o(.text.Control) refers to lto-llvm-7a7817.o(.bss.pending_flag) for pending_flag
    lto-llvm-7a7817.o(.text.Control) refers to lto-llvm-7a7817.o(.bss.Move_X) for Move_X
    lto-llvm-7a7817.o(.text.Control) refers to lto-llvm-7a7817.o(.bss.Move_Y) for Move_Y
    lto-llvm-7a7817.o(.text.Control) refers to lto-llvm-7a7817.o(.bss.Move_Z) for Move_Z
    lto-llvm-7a7817.o(.text.Control) refers to lto-llvm-7a7817.o(.text.Kinematic_Analysis_Relative) for Kinematic_Analysis_Relative
    lto-llvm-7a7817.o(.text.Control) refers to lto-llvm-7a7817.o(.text.Kinematic_Analysis) for Kinematic_Analysis
    lto-llvm-7a7817.o(.text.Control) refers to lto-llvm-7a7817.o(.bss.delay_flag) for delay_flag
    lto-llvm-7a7817.o(.text.Control) refers to lto-llvm-7a7817.o(.bss.delay_50) for delay_50
    lto-llvm-7a7817.o(.text.Control) refers to lto-llvm-7a7817.o(.text.Read_Encoder) for Read_Encoder
    lto-llvm-7a7817.o(.text.Control) refers to lto-llvm-7a7817.o(.bss.Encoder_A) for Encoder_A
    lto-llvm-7a7817.o(.text.Control) refers to lto-llvm-7a7817.o(.bss.Position_A) for Position_A
    lto-llvm-7a7817.o(.text.Control) refers to lto-llvm-7a7817.o(.bss.Encoder_B) for Encoder_B
    lto-llvm-7a7817.o(.text.Control) refers to lto-llvm-7a7817.o(.bss.Position_B) for Position_B
    lto-llvm-7a7817.o(.text.Control) refers to lto-llvm-7a7817.o(.bss.Encoder_C) for Encoder_C
    lto-llvm-7a7817.o(.text.Control) refers to lto-llvm-7a7817.o(.bss.Position_C) for Position_C
    lto-llvm-7a7817.o(.text.Control) refers to lto-llvm-7a7817.o(.bss.Encoder_D) for Encoder_D
    lto-llvm-7a7817.o(.text.Control) refers to lto-llvm-7a7817.o(.bss.Position_D) for Position_D
    lto-llvm-7a7817.o(.text.Control) refers to lto-llvm-7a7817.o(.bss.Target_A) for Target_A
    lto-llvm-7a7817.o(.text.Control) refers to lto-llvm-7a7817.o(.text.Incremental_PI_A) for Incremental_PI_A
    lto-llvm-7a7817.o(.text.Control) refers to lto-llvm-7a7817.o(.bss.Motor_A) for Motor_A
    lto-llvm-7a7817.o(.text.Control) refers to lto-llvm-7a7817.o(.bss.Target_B) for Target_B
    lto-llvm-7a7817.o(.text.Control) refers to lto-llvm-7a7817.o(.text.Incremental_PI_B) for Incremental_PI_B
    lto-llvm-7a7817.o(.text.Control) refers to lto-llvm-7a7817.o(.bss.Motor_B) for Motor_B
    lto-llvm-7a7817.o(.text.Control) refers to lto-llvm-7a7817.o(.bss.Target_C) for Target_C
    lto-llvm-7a7817.o(.text.Control) refers to lto-llvm-7a7817.o(.text.Incremental_PI_C) for Incremental_PI_C
    lto-llvm-7a7817.o(.text.Control) refers to lto-llvm-7a7817.o(.bss.Motor_C) for Motor_C
    lto-llvm-7a7817.o(.text.Control) refers to lto-llvm-7a7817.o(.bss.Target_D) for Target_D
    lto-llvm-7a7817.o(.text.Control) refers to lto-llvm-7a7817.o(.text.Incremental_PI_D) for Incremental_PI_D
    lto-llvm-7a7817.o(.text.Control) refers to lto-llvm-7a7817.o(.bss.Motor_D) for Motor_D
    lto-llvm-7a7817.o(.text.Control) refers to lto-llvm-7a7817.o(.text.Position_PID_A) for Position_PID_A
    lto-llvm-7a7817.o(.text.Control) refers to lto-llvm-7a7817.o(.text.Position_PID_B) for Position_PID_B
    lto-llvm-7a7817.o(.text.Control) refers to lto-llvm-7a7817.o(.text.Position_PID_C) for Position_PID_C
    lto-llvm-7a7817.o(.text.Control) refers to lto-llvm-7a7817.o(.text.Position_PID_D) for Position_PID_D
    lto-llvm-7a7817.o(.text.Control) refers to lto-llvm-7a7817.o(.text.Count_Velocity) for Count_Velocity
    lto-llvm-7a7817.o(.text.Control) refers to lto-llvm-7a7817.o(.text.Xianfu_Pwm) for Xianfu_Pwm
    lto-llvm-7a7817.o(.text.Control) refers to lto-llvm-7a7817.o(.text.Set_Pwm) for Set_Pwm
    lto-llvm-7a7817.o(.ARM.exidx.text.Control) refers (Special) to use_no_semi_2.o(.text) for __use_no_semihosting
    lto-llvm-7a7817.o(.ARM.exidx.text.Control) refers to lto-llvm-7a7817.o(.text.Control) for [Anonymous Symbol]
    lto-llvm-7a7817.o(.text.Kinematic_Analysis_Relative) refers (Special) to use_no_semi_2.o(.text) for __use_no_semihosting
    lto-llvm-7a7817.o(.text.Kinematic_Analysis_Relative) refers to lto-llvm-7a7817.o(.bss.Position_A) for Position_A
    lto-llvm-7a7817.o(.text.Kinematic_Analysis_Relative) refers to lto-llvm-7a7817.o(.bss.Target_A) for Target_A
    lto-llvm-7a7817.o(.text.Kinematic_Analysis_Relative) refers to lto-llvm-7a7817.o(.bss.Position_B) for Position_B
    lto-llvm-7a7817.o(.text.Kinematic_Analysis_Relative) refers to lto-llvm-7a7817.o(.bss.Target_B) for Target_B
    lto-llvm-7a7817.o(.text.Kinematic_Analysis_Relative) refers to lto-llvm-7a7817.o(.bss.Position_C) for Position_C
    lto-llvm-7a7817.o(.text.Kinematic_Analysis_Relative) refers to lto-llvm-7a7817.o(.bss.Target_C) for Target_C
    lto-llvm-7a7817.o(.text.Kinematic_Analysis_Relative) refers to lto-llvm-7a7817.o(.bss.Position_D) for Position_D
    lto-llvm-7a7817.o(.text.Kinematic_Analysis_Relative) refers to lto-llvm-7a7817.o(.bss.Target_D) for Target_D
    lto-llvm-7a7817.o(.ARM.exidx.text.Kinematic_Analysis_Relative) refers (Special) to use_no_semi_2.o(.text) for __use_no_semihosting
    lto-llvm-7a7817.o(.ARM.exidx.text.Kinematic_Analysis_Relative) refers to lto-llvm-7a7817.o(.text.Kinematic_Analysis_Relative) for [Anonymous Symbol]
    lto-llvm-7a7817.o(.text.Kinematic_Analysis) refers (Special) to use_no_semi_2.o(.text) for __use_no_semihosting
    lto-llvm-7a7817.o(.text.Kinematic_Analysis) refers to lto-llvm-7a7817.o(.bss.Target_A) for Target_A
    lto-llvm-7a7817.o(.text.Kinematic_Analysis) refers to lto-llvm-7a7817.o(.bss.Target_B) for Target_B
    lto-llvm-7a7817.o(.text.Kinematic_Analysis) refers to lto-llvm-7a7817.o(.bss.Target_C) for Target_C
    lto-llvm-7a7817.o(.text.Kinematic_Analysis) refers to lto-llvm-7a7817.o(.bss.Target_D) for Target_D
    lto-llvm-7a7817.o(.ARM.exidx.text.Kinematic_Analysis) refers (Special) to use_no_semi_2.o(.text) for __use_no_semihosting
    lto-llvm-7a7817.o(.ARM.exidx.text.Kinematic_Analysis) refers to lto-llvm-7a7817.o(.text.Kinematic_Analysis) for [Anonymous Symbol]
    lto-llvm-7a7817.o(.text.Read_Encoder) refers (Special) to use_no_semi_2.o(.text) for __use_no_semihosting
    lto-llvm-7a7817.o(.text.Read_Encoder) refers to lto-llvm-7a7817.o(.bss.htim2) for htim2
    lto-llvm-7a7817.o(.text.Read_Encoder) refers to lto-llvm-7a7817.o(.bss.htim3) for htim3
    lto-llvm-7a7817.o(.text.Read_Encoder) refers to lto-llvm-7a7817.o(.bss.htim4) for htim4
    lto-llvm-7a7817.o(.text.Read_Encoder) refers to lto-llvm-7a7817.o(.bss.htim5) for htim5
    lto-llvm-7a7817.o(.ARM.exidx.text.Read_Encoder) refers (Special) to use_no_semi_2.o(.text) for __use_no_semihosting
    lto-llvm-7a7817.o(.ARM.exidx.text.Read_Encoder) refers to lto-llvm-7a7817.o(.text.Read_Encoder) for [Anonymous Symbol]
    lto-llvm-7a7817.o(.text.Incremental_PI_A) refers (Special) to use_no_semi_2.o(.text) for __use_no_semihosting
    lto-llvm-7a7817.o(.text.Incremental_PI_A) refers to lto-llvm-7a7817.o(.bss.Incremental_PI_A.Bias) for Incremental_PI_A.Bias
    lto-llvm-7a7817.o(.text.Incremental_PI_A) refers to lto-llvm-7a7817.o(.bss.Incremental_PI_A.Last_bias) for Incremental_PI_A.Last_bias
    lto-llvm-7a7817.o(.text.Incremental_PI_A) refers to lto-llvm-7a7817.o(.bss.Incremental_PI_A.Pwm) for Incremental_PI_A.Pwm
    lto-llvm-7a7817.o(.ARM.exidx.text.Incremental_PI_A) refers (Special) to use_no_semi_2.o(.text) for __use_no_semihosting
    lto-llvm-7a7817.o(.ARM.exidx.text.Incremental_PI_A) refers to lto-llvm-7a7817.o(.text.Incremental_PI_A) for [Anonymous Symbol]
    lto-llvm-7a7817.o(.text.Incremental_PI_B) refers (Special) to use_no_semi_2.o(.text) for __use_no_semihosting
    lto-llvm-7a7817.o(.text.Incremental_PI_B) refers to lto-llvm-7a7817.o(.bss.Incremental_PI_B.Bias) for Incremental_PI_B.Bias
    lto-llvm-7a7817.o(.text.Incremental_PI_B) refers to lto-llvm-7a7817.o(.bss.Incremental_PI_B.Last_bias) for Incremental_PI_B.Last_bias
    lto-llvm-7a7817.o(.text.Incremental_PI_B) refers to lto-llvm-7a7817.o(.bss.Incremental_PI_B.Pwm) for Incremental_PI_B.Pwm
    lto-llvm-7a7817.o(.ARM.exidx.text.Incremental_PI_B) refers (Special) to use_no_semi_2.o(.text) for __use_no_semihosting
    lto-llvm-7a7817.o(.ARM.exidx.text.Incremental_PI_B) refers to lto-llvm-7a7817.o(.text.Incremental_PI_B) for [Anonymous Symbol]
    lto-llvm-7a7817.o(.text.Incremental_PI_C) refers (Special) to use_no_semi_2.o(.text) for __use_no_semihosting
    lto-llvm-7a7817.o(.text.Incremental_PI_C) refers to lto-llvm-7a7817.o(.bss.Incremental_PI_C.Bias) for Incremental_PI_C.Bias
    lto-llvm-7a7817.o(.text.Incremental_PI_C) refers to lto-llvm-7a7817.o(.bss.Incremental_PI_C.Last_bias) for Incremental_PI_C.Last_bias
    lto-llvm-7a7817.o(.text.Incremental_PI_C) refers to lto-llvm-7a7817.o(.bss.Incremental_PI_C.Pwm) for Incremental_PI_C.Pwm
    lto-llvm-7a7817.o(.ARM.exidx.text.Incremental_PI_C) refers (Special) to use_no_semi_2.o(.text) for __use_no_semihosting
    lto-llvm-7a7817.o(.ARM.exidx.text.Incremental_PI_C) refers to lto-llvm-7a7817.o(.text.Incremental_PI_C) for [Anonymous Symbol]
    lto-llvm-7a7817.o(.text.Incremental_PI_D) refers (Special) to use_no_semi_2.o(.text) for __use_no_semihosting
    lto-llvm-7a7817.o(.text.Incremental_PI_D) refers to lto-llvm-7a7817.o(.bss.Incremental_PI_D.Bias) for Incremental_PI_D.Bias
    lto-llvm-7a7817.o(.text.Incremental_PI_D) refers to lto-llvm-7a7817.o(.bss.Incremental_PI_D.Last_bias) for Incremental_PI_D.Last_bias
    lto-llvm-7a7817.o(.text.Incremental_PI_D) refers to lto-llvm-7a7817.o(.bss.Incremental_PI_D.Pwm) for Incremental_PI_D.Pwm
    lto-llvm-7a7817.o(.ARM.exidx.text.Incremental_PI_D) refers (Special) to use_no_semi_2.o(.text) for __use_no_semihosting
    lto-llvm-7a7817.o(.ARM.exidx.text.Incremental_PI_D) refers to lto-llvm-7a7817.o(.text.Incremental_PI_D) for [Anonymous Symbol]
    lto-llvm-7a7817.o(.text.Position_PID_A) refers (Special) to use_no_semi_2.o(.text) for __use_no_semihosting
    lto-llvm-7a7817.o(.text.Position_PID_A) refers to lto-llvm-7a7817.o(.bss.Position_PID_A.Bias) for Position_PID_A.Bias
    lto-llvm-7a7817.o(.text.Position_PID_A) refers to lto-llvm-7a7817.o(.bss.Position_PID_A.Integral_bias) for Position_PID_A.Integral_bias
    lto-llvm-7a7817.o(.text.Position_PID_A) refers to lto-llvm-7a7817.o(.bss.Position_PID_A.Last_Bias) for Position_PID_A.Last_Bias
    lto-llvm-7a7817.o(.text.Position_PID_A) refers to lto-llvm-7a7817.o(.bss.Position_PID_A.Pwm) for Position_PID_A.Pwm
    lto-llvm-7a7817.o(.ARM.exidx.text.Position_PID_A) refers (Special) to use_no_semi_2.o(.text) for __use_no_semihosting
    lto-llvm-7a7817.o(.ARM.exidx.text.Position_PID_A) refers to lto-llvm-7a7817.o(.text.Position_PID_A) for [Anonymous Symbol]
    lto-llvm-7a7817.o(.text.Position_PID_B) refers (Special) to use_no_semi_2.o(.text) for __use_no_semihosting
    lto-llvm-7a7817.o(.text.Position_PID_B) refers to lto-llvm-7a7817.o(.bss.Position_PID_B.Bias) for Position_PID_B.Bias
    lto-llvm-7a7817.o(.text.Position_PID_B) refers to lto-llvm-7a7817.o(.bss.Position_PID_B.Integral_bias) for Position_PID_B.Integral_bias
    lto-llvm-7a7817.o(.text.Position_PID_B) refers to lto-llvm-7a7817.o(.bss.Position_PID_B.Last_Bias) for Position_PID_B.Last_Bias
    lto-llvm-7a7817.o(.text.Position_PID_B) refers to lto-llvm-7a7817.o(.bss.Position_PID_B.Pwm) for Position_PID_B.Pwm
    lto-llvm-7a7817.o(.ARM.exidx.text.Position_PID_B) refers (Special) to use_no_semi_2.o(.text) for __use_no_semihosting
    lto-llvm-7a7817.o(.ARM.exidx.text.Position_PID_B) refers to lto-llvm-7a7817.o(.text.Position_PID_B) for [Anonymous Symbol]
    lto-llvm-7a7817.o(.text.Position_PID_C) refers (Special) to use_no_semi_2.o(.text) for __use_no_semihosting
    lto-llvm-7a7817.o(.text.Position_PID_C) refers to lto-llvm-7a7817.o(.bss.Position_PID_C.Bias) for Position_PID_C.Bias
    lto-llvm-7a7817.o(.text.Position_PID_C) refers to lto-llvm-7a7817.o(.bss.Position_PID_C.Integral_bias) for Position_PID_C.Integral_bias
    lto-llvm-7a7817.o(.text.Position_PID_C) refers to lto-llvm-7a7817.o(.bss.Position_PID_C.Last_Bias) for Position_PID_C.Last_Bias
    lto-llvm-7a7817.o(.text.Position_PID_C) refers to lto-llvm-7a7817.o(.bss.Position_PID_C.Pwm) for Position_PID_C.Pwm
    lto-llvm-7a7817.o(.ARM.exidx.text.Position_PID_C) refers (Special) to use_no_semi_2.o(.text) for __use_no_semihosting
    lto-llvm-7a7817.o(.ARM.exidx.text.Position_PID_C) refers to lto-llvm-7a7817.o(.text.Position_PID_C) for [Anonymous Symbol]
    lto-llvm-7a7817.o(.text.Position_PID_D) refers (Special) to use_no_semi_2.o(.text) for __use_no_semihosting
    lto-llvm-7a7817.o(.text.Position_PID_D) refers to lto-llvm-7a7817.o(.bss.Position_PID_D.Bias) for Position_PID_D.Bias
    lto-llvm-7a7817.o(.text.Position_PID_D) refers to lto-llvm-7a7817.o(.bss.Position_PID_D.Integral_bias) for Position_PID_D.Integral_bias
    lto-llvm-7a7817.o(.text.Position_PID_D) refers to lto-llvm-7a7817.o(.bss.Position_PID_D.Last_Bias) for Position_PID_D.Last_Bias
    lto-llvm-7a7817.o(.text.Position_PID_D) refers to lto-llvm-7a7817.o(.bss.Position_PID_D.Pwm) for Position_PID_D.Pwm
    lto-llvm-7a7817.o(.ARM.exidx.text.Position_PID_D) refers (Special) to use_no_semi_2.o(.text) for __use_no_semihosting
    lto-llvm-7a7817.o(.ARM.exidx.text.Position_PID_D) refers to lto-llvm-7a7817.o(.text.Position_PID_D) for [Anonymous Symbol]
    lto-llvm-7a7817.o(.text.Count_Velocity) refers (Special) to use_no_semi_2.o(.text) for __use_no_semihosting
    lto-llvm-7a7817.o(.text.Count_Velocity) refers to lto-llvm-7a7817.o(.data.relative) for relative
    lto-llvm-7a7817.o(.text.Count_Velocity) refers to lto-llvm-7a7817.o(.bss.Move_X) for Move_X
    lto-llvm-7a7817.o(.text.Count_Velocity) refers to lto-llvm-7a7817.o(.bss.Last_Target_X) for Last_Target_X
    lto-llvm-7a7817.o(.text.Count_Velocity) refers to lto-llvm-7a7817.o(.bss.Move_Y) for Move_Y
    lto-llvm-7a7817.o(.text.Count_Velocity) refers to lto-llvm-7a7817.o(.bss.Last_Target_Y) for Last_Target_Y
    lto-llvm-7a7817.o(.text.Count_Velocity) refers to lto-llvm-7a7817.o(.bss.Move_Z) for Move_Z
    lto-llvm-7a7817.o(.text.Count_Velocity) refers to lto-llvm-7a7817.o(.bss.Last_Target_Z) for Last_Target_Z
    lto-llvm-7a7817.o(.text.Count_Velocity) refers to sqrt.o(i.__hardfp_sqrt) for __hardfp_sqrt
    lto-llvm-7a7817.o(.text.Count_Velocity) refers to lto-llvm-7a7817.o(.bss.Count_Velocity.Divider) for Count_Velocity.Divider
    lto-llvm-7a7817.o(.text.Count_Velocity) refers to lto-llvm-7a7817.o(.text.Kinematic_Analysis2) for Kinematic_Analysis2
    lto-llvm-7a7817.o(.text.Count_Velocity) refers to lto-llvm-7a7817.o(.data.RC_Velocity) for RC_Velocity
    lto-llvm-7a7817.o(.text.Count_Velocity) refers to lto-llvm-7a7817.o(.bss.Rate_A) for Rate_A
    lto-llvm-7a7817.o(.text.Count_Velocity) refers to lto-llvm-7a7817.o(.text.myabs) for myabs
    lto-llvm-7a7817.o(.text.Count_Velocity) refers to lto-llvm-7a7817.o(.bss.Rate_B) for Rate_B
    lto-llvm-7a7817.o(.text.Count_Velocity) refers to lto-llvm-7a7817.o(.bss.Rate_C) for Rate_C
    lto-llvm-7a7817.o(.text.Count_Velocity) refers to lto-llvm-7a7817.o(.bss.Rate_D) for Rate_D
    lto-llvm-7a7817.o(.text.Count_Velocity) refers to lto-llvm-7a7817.o(.text.Xianfu_Velocity) for Xianfu_Velocity
    lto-llvm-7a7817.o(.ARM.exidx.text.Count_Velocity) refers (Special) to use_no_semi_2.o(.text) for __use_no_semihosting
    lto-llvm-7a7817.o(.ARM.exidx.text.Count_Velocity) refers to lto-llvm-7a7817.o(.text.Count_Velocity) for [Anonymous Symbol]
    lto-llvm-7a7817.o(.text.Xianfu_Pwm) refers (Special) to use_no_semi_2.o(.text) for __use_no_semihosting
    lto-llvm-7a7817.o(.text.Xianfu_Pwm) refers to lto-llvm-7a7817.o(.bss.Motor_A) for Motor_A
    lto-llvm-7a7817.o(.text.Xianfu_Pwm) refers to lto-llvm-7a7817.o(.bss.Motor_B) for Motor_B
    lto-llvm-7a7817.o(.text.Xianfu_Pwm) refers to lto-llvm-7a7817.o(.bss.Motor_C) for Motor_C
    lto-llvm-7a7817.o(.text.Xianfu_Pwm) refers to lto-llvm-7a7817.o(.bss.Motor_D) for Motor_D
    lto-llvm-7a7817.o(.ARM.exidx.text.Xianfu_Pwm) refers (Special) to use_no_semi_2.o(.text) for __use_no_semihosting
    lto-llvm-7a7817.o(.ARM.exidx.text.Xianfu_Pwm) refers to lto-llvm-7a7817.o(.text.Xianfu_Pwm) for [Anonymous Symbol]
    lto-llvm-7a7817.o(.text.Set_Pwm) refers (Special) to use_no_semi_2.o(.text) for __use_no_semihosting
    lto-llvm-7a7817.o(.text.Set_Pwm) refers to lto-llvm-7a7817.o(.bss.htim1) for htim1
    lto-llvm-7a7817.o(.text.Set_Pwm) refers to lto-llvm-7a7817.o(.text.HAL_GPIO_WritePin) for HAL_GPIO_WritePin
    lto-llvm-7a7817.o(.ARM.exidx.text.Set_Pwm) refers (Special) to use_no_semi_2.o(.text) for __use_no_semihosting
    lto-llvm-7a7817.o(.ARM.exidx.text.Set_Pwm) refers to lto-llvm-7a7817.o(.text.Set_Pwm) for [Anonymous Symbol]
    lto-llvm-7a7817.o(.text.Kinematic_Analysis2) refers (Special) to use_no_semi_2.o(.text) for __use_no_semihosting
    lto-llvm-7a7817.o(.text.Kinematic_Analysis2) refers to lto-llvm-7a7817.o(.bss.Rate_A) for Rate_A
    lto-llvm-7a7817.o(.text.Kinematic_Analysis2) refers to lto-llvm-7a7817.o(.bss.Rate_B) for Rate_B
    lto-llvm-7a7817.o(.text.Kinematic_Analysis2) refers to lto-llvm-7a7817.o(.bss.Rate_C) for Rate_C
    lto-llvm-7a7817.o(.text.Kinematic_Analysis2) refers to lto-llvm-7a7817.o(.bss.Rate_D) for Rate_D
    lto-llvm-7a7817.o(.ARM.exidx.text.Kinematic_Analysis2) refers (Special) to use_no_semi_2.o(.text) for __use_no_semihosting
    lto-llvm-7a7817.o(.ARM.exidx.text.Kinematic_Analysis2) refers to lto-llvm-7a7817.o(.text.Kinematic_Analysis2) for [Anonymous Symbol]
    lto-llvm-7a7817.o(.text.myabs) refers (Special) to use_no_semi_2.o(.text) for __use_no_semihosting
    lto-llvm-7a7817.o(.ARM.exidx.text.myabs) refers (Special) to use_no_semi_2.o(.text) for __use_no_semihosting
    lto-llvm-7a7817.o(.ARM.exidx.text.myabs) refers to lto-llvm-7a7817.o(.text.myabs) for [Anonymous Symbol]
    lto-llvm-7a7817.o(.text.Xianfu_Velocity) refers (Special) to use_no_semi_2.o(.text) for __use_no_semihosting
    lto-llvm-7a7817.o(.text.Xianfu_Velocity) refers to lto-llvm-7a7817.o(.bss.Motor_A) for Motor_A
    lto-llvm-7a7817.o(.text.Xianfu_Velocity) refers to lto-llvm-7a7817.o(.bss.Motor_B) for Motor_B
    lto-llvm-7a7817.o(.text.Xianfu_Velocity) refers to lto-llvm-7a7817.o(.bss.Motor_C) for Motor_C
    lto-llvm-7a7817.o(.text.Xianfu_Velocity) refers to lto-llvm-7a7817.o(.bss.Motor_D) for Motor_D
    lto-llvm-7a7817.o(.ARM.exidx.text.Xianfu_Velocity) refers (Special) to use_no_semi_2.o(.text) for __use_no_semihosting
    lto-llvm-7a7817.o(.ARM.exidx.text.Xianfu_Velocity) refers to lto-llvm-7a7817.o(.text.Xianfu_Velocity) for [Anonymous Symbol]
    lto-llvm-7a7817.o(.text.Enable_Motors) refers (Special) to use_no_semi_2.o(.text) for __use_no_semihosting
    lto-llvm-7a7817.o(.text.Enable_Motors) refers to lto-llvm-7a7817.o(.text.HAL_GPIO_WritePin) for HAL_GPIO_WritePin
    lto-llvm-7a7817.o(.ARM.exidx.text.Enable_Motors) refers (Special) to use_no_semi_2.o(.text) for __use_no_semihosting
    lto-llvm-7a7817.o(.ARM.exidx.text.Enable_Motors) refers to lto-llvm-7a7817.o(.text.Enable_Motors) for [Anonymous Symbol]
    lto-llvm-7a7817.o(.text.Servo_Server) refers (Special) to use_no_semi_2.o(.text) for __use_no_semihosting
    lto-llvm-7a7817.o(.text.Servo_Server) refers to lto-llvm-7a7817.o(.bss.Current) for Current
    lto-llvm-7a7817.o(.text.Servo_Server) refers to lto-llvm-7a7817.o(.text.HAL_GetTick) for HAL_GetTick
    lto-llvm-7a7817.o(.text.Servo_Server) refers to lto-llvm-7a7817.o(.bss.time_start) for time_start
    lto-llvm-7a7817.o(.text.Servo_Server) refers to lto-llvm-7a7817.o(.text._ZN12action_servoD2Ev) for action_servo::~action_servo__sub_object()
    lto-llvm-7a7817.o(.text.Servo_Server) refers to new.cpp.o(.text._ZdlPv) for operator delete (void*)
    lto-llvm-7a7817.o(.text.Servo_Server) refers to lto-llvm-7a7817.o(.bss.ptr_test) for ptr_test
    lto-llvm-7a7817.o(.text.Servo_Server) refers to lto-llvm-7a7817.o(.text.WritePos) for WritePos
    lto-llvm-7a7817.o(.text.Servo_Server) refers to lto-llvm-7a7817.o(.text.set_stepper) for set_stepper
    lto-llvm-7a7817.o(.text.Servo_Server) refers to rt_memmove_w.o(.text) for __aeabi_memmove4
    lto-llvm-7a7817.o(.ARM.exidx.text.Servo_Server) refers (Special) to use_no_semi_2.o(.text) for __use_no_semihosting
    lto-llvm-7a7817.o(.ARM.exidx.text.Servo_Server) refers to lto-llvm-7a7817.o(.text.Servo_Server) for [Anonymous Symbol]
    lto-llvm-7a7817.o(.text._ZN12action_servoD2Ev) refers (Special) to use_no_semi_2.o(.text) for __use_no_semihosting
    lto-llvm-7a7817.o(.text._ZN12action_servoD2Ev) refers to lto-llvm-7a7817.o(.text._ZNSt3__113__vector_baseI4_actNS_9allocatorIS1_EEED2Ev) for std::__1::__vector_base<_act, std::__1::allocator<_act>>::~__vector_base__sub_object()
    lto-llvm-7a7817.o(.ARM.exidx.text._ZN12action_servoD2Ev) refers (Special) to use_no_semi_2.o(.text) for __use_no_semihosting
    lto-llvm-7a7817.o(.ARM.exidx.text._ZN12action_servoD2Ev) refers to lto-llvm-7a7817.o(.text._ZN12action_servoD2Ev) for [Anonymous Symbol]
    lto-llvm-7a7817.o(.text._ZNSt3__113__vector_baseI4_actNS_9allocatorIS1_EEED2Ev) refers (Special) to use_no_semi_2.o(.text) for __use_no_semihosting
    lto-llvm-7a7817.o(.text._ZNSt3__113__vector_baseI4_actNS_9allocatorIS1_EEED2Ev) refers to lto-llvm-7a7817.o(.text._ZNSt3__117_DeallocateCaller27__do_deallocate_handle_sizeEPvj) for std::__1::_DeallocateCaller::__do_deallocate_handle_size(void*, unsigned)
    lto-llvm-7a7817.o(.ARM.exidx.text._ZNSt3__113__vector_baseI4_actNS_9allocatorIS1_EEED2Ev) refers (Special) to use_no_semi_2.o(.text) for __use_no_semihosting
    lto-llvm-7a7817.o(.ARM.exidx.text._ZNSt3__113__vector_baseI4_actNS_9allocatorIS1_EEED2Ev) refers to lto-llvm-7a7817.o(.text._ZNSt3__113__vector_baseI4_actNS_9allocatorIS1_EEED2Ev) for [Anonymous Symbol]
    lto-llvm-7a7817.o(.text._ZNSt3__117_DeallocateCaller27__do_deallocate_handle_sizeEPvj) refers (Special) to use_no_semi_2.o(.text) for __use_no_semihosting
    lto-llvm-7a7817.o(.text._ZNSt3__117_DeallocateCaller27__do_deallocate_handle_sizeEPvj) refers to lto-llvm-7a7817.o(.text._ZNSt3__117_DeallocateCaller9__do_callEPv) for std::__1::_DeallocateCaller::__do_call(void*)
    lto-llvm-7a7817.o(.ARM.exidx.text._ZNSt3__117_DeallocateCaller27__do_deallocate_handle_sizeEPvj) refers (Special) to use_no_semi_2.o(.text) for __use_no_semihosting
    lto-llvm-7a7817.o(.ARM.exidx.text._ZNSt3__117_DeallocateCaller27__do_deallocate_handle_sizeEPvj) refers to lto-llvm-7a7817.o(.text._ZNSt3__117_DeallocateCaller27__do_deallocate_handle_sizeEPvj) for [Anonymous Symbol]
    lto-llvm-7a7817.o(.text._ZNSt3__117_DeallocateCaller9__do_callEPv) refers (Special) to use_no_semi_2.o(.text) for __use_no_semihosting
    lto-llvm-7a7817.o(.text._ZNSt3__117_DeallocateCaller9__do_callEPv) refers to new.cpp.o(.text._ZdlPv) for operator delete (void*)
    lto-llvm-7a7817.o(.ARM.exidx.text._ZNSt3__117_DeallocateCaller9__do_callEPv) refers (Special) to use_no_semi_2.o(.text) for __use_no_semihosting
    lto-llvm-7a7817.o(.ARM.exidx.text._ZNSt3__117_DeallocateCaller9__do_callEPv) refers to lto-llvm-7a7817.o(.text._ZNSt3__117_DeallocateCaller9__do_callEPv) for [Anonymous Symbol]
    lto-llvm-7a7817.o(.text.Servo_Add_Action) refers (Special) to use_no_semi_2.o(.text) for __use_no_semihosting
    lto-llvm-7a7817.o(.text.Servo_Add_Action) refers to new.cpp.o(.text._Znwj) for operator new(unsigned)
    lto-llvm-7a7817.o(.text.Servo_Add_Action) refers to lto-llvm-7a7817.o(.text._ZN12action_servoC2Ev) for action_servo::action_servo__sub_object()
    lto-llvm-7a7817.o(.text.Servo_Add_Action) refers to lto-llvm-7a7817.o(.text._ZNSt3__16vectorI4_actNS_9allocatorIS1_EEE21__push_back_slow_pathIRKS1_EEvOT_) for void std::__1::vector<_act, std::__1::allocator<_act>>::__push_back_slow_path<const _act&>(T1&&)
    lto-llvm-7a7817.o(.text.Servo_Add_Action) refers to lto-llvm-7a7817.o(.bss.Last) for Last
    lto-llvm-7a7817.o(.text.Servo_Add_Action) refers to lto-llvm-7a7817.o(.bss.Current) for Current
    lto-llvm-7a7817.o(.text.Servo_Add_Action) refers to lto-llvm-7a7817.o(.text.WritePos) for WritePos
    lto-llvm-7a7817.o(.text.Servo_Add_Action) refers to lto-llvm-7a7817.o(.text.set_stepper) for set_stepper
    lto-llvm-7a7817.o(.text.Servo_Add_Action) refers to rt_memmove_w.o(.text) for __aeabi_memmove4
    lto-llvm-7a7817.o(.text.Servo_Add_Action) refers to lto-llvm-7a7817.o(.text.HAL_GetTick) for HAL_GetTick
    lto-llvm-7a7817.o(.text.Servo_Add_Action) refers to lto-llvm-7a7817.o(.bss.time_start) for time_start
    lto-llvm-7a7817.o(.ARM.exidx.text.Servo_Add_Action) refers (Special) to use_no_semi_2.o(.text) for __use_no_semihosting
    lto-llvm-7a7817.o(.ARM.exidx.text.Servo_Add_Action) refers to lto-llvm-7a7817.o(.text.Servo_Add_Action) for [Anonymous Symbol]
    lto-llvm-7a7817.o(.text._ZN12action_servoC2Ev) refers (Special) to use_no_semi_2.o(.text) for __use_no_semihosting
    lto-llvm-7a7817.o(.ARM.exidx.text._ZN12action_servoC2Ev) refers (Special) to use_no_semi_2.o(.text) for __use_no_semihosting
    lto-llvm-7a7817.o(.ARM.exidx.text._ZN12action_servoC2Ev) refers to lto-llvm-7a7817.o(.text._ZN12action_servoC2Ev) for [Anonymous Symbol]
    lto-llvm-7a7817.o(.text._ZNSt3__16vectorI4_actNS_9allocatorIS1_EEE21__push_back_slow_pathIRKS1_EEvOT_) refers (Special) to use_no_semi_2.o(.text) for __use_no_semihosting
    lto-llvm-7a7817.o(.text._ZNSt3__16vectorI4_actNS_9allocatorIS1_EEE21__push_back_slow_pathIRKS1_EEvOT_) refers to lto-llvm-7a7817.o(.text._ZNKSt3__16vectorI4_actNS_9allocatorIS1_EEE8max_sizeEv) for std::__1::vector<_act, std::__1::allocator<_act>>::max_size() const
    lto-llvm-7a7817.o(.text._ZNSt3__16vectorI4_actNS_9allocatorIS1_EEE21__push_back_slow_pathIRKS1_EEvOT_) refers to vector.cpp.o(.text._ZNKSt3__120__vector_base_commonILb1EE20__throw_length_errorEv) for std::__1::__vector_base_common<(bool)1>::__throw_length_error() const
    lto-llvm-7a7817.o(.text._ZNSt3__16vectorI4_actNS_9allocatorIS1_EEE21__push_back_slow_pathIRKS1_EEvOT_) refers to lto-llvm-7a7817.o(.text._ZNSt3__114__split_bufferI4_actRNS_9allocatorIS1_EEEC2EjjS4_) for std::__1::__split_buffer<_act, std::__1::allocator<_act>&>::__split_buffer__sub_object(unsigned, unsigned, std::__1::allocator<_act>&)
    lto-llvm-7a7817.o(.text._ZNSt3__16vectorI4_actNS_9allocatorIS1_EEE21__push_back_slow_pathIRKS1_EEvOT_) refers to lto-llvm-7a7817.o(.text._ZNSt3__16vectorI4_actNS_9allocatorIS1_EEE26__swap_out_circular_bufferERNS_14__split_bufferIS1_RS3_EE) for std::__1::vector<_act, std::__1::allocator<_act>>::__swap_out_circular_buffer(std::__1::__split_buffer<_act, std::__1::allocator<_act>&>&)
    lto-llvm-7a7817.o(.text._ZNSt3__16vectorI4_actNS_9allocatorIS1_EEE21__push_back_slow_pathIRKS1_EEvOT_) refers to lto-llvm-7a7817.o(.text._ZNSt3__114__split_bufferI4_actRNS_9allocatorIS1_EEED2Ev) for std::__1::__split_buffer<_act, std::__1::allocator<_act>&>::~__split_buffer__sub_object()
    lto-llvm-7a7817.o(.ARM.exidx.text._ZNSt3__16vectorI4_actNS_9allocatorIS1_EEE21__push_back_slow_pathIRKS1_EEvOT_) refers (Special) to use_no_semi_2.o(.text) for __use_no_semihosting
    lto-llvm-7a7817.o(.ARM.exidx.text._ZNSt3__16vectorI4_actNS_9allocatorIS1_EEE21__push_back_slow_pathIRKS1_EEvOT_) refers to lto-llvm-7a7817.o(.text._ZNSt3__16vectorI4_actNS_9allocatorIS1_EEE21__push_back_slow_pathIRKS1_EEvOT_) for [Anonymous Symbol]
    lto-llvm-7a7817.o(.text._ZNKSt3__16vectorI4_actNS_9allocatorIS1_EEE8max_sizeEv) refers (Special) to use_no_semi_2.o(.text) for __use_no_semihosting
    lto-llvm-7a7817.o(.ARM.exidx.text._ZNKSt3__16vectorI4_actNS_9allocatorIS1_EEE8max_sizeEv) refers (Special) to use_no_semi_2.o(.text) for __use_no_semihosting
    lto-llvm-7a7817.o(.ARM.exidx.text._ZNKSt3__16vectorI4_actNS_9allocatorIS1_EEE8max_sizeEv) refers to lto-llvm-7a7817.o(.text._ZNKSt3__16vectorI4_actNS_9allocatorIS1_EEE8max_sizeEv) for [Anonymous Symbol]
    lto-llvm-7a7817.o(.text._ZNSt3__114__split_bufferI4_actRNS_9allocatorIS1_EEEC2EjjS4_) refers (Special) to use_no_semi_2.o(.text) for __use_no_semihosting
    lto-llvm-7a7817.o(.text._ZNSt3__114__split_bufferI4_actRNS_9allocatorIS1_EEEC2EjjS4_) refers to lto-llvm-7a7817.o(.rodata.str1.1) for .L.str.156
    lto-llvm-7a7817.o(.text._ZNSt3__114__split_bufferI4_actRNS_9allocatorIS1_EEEC2EjjS4_) refers to abort.o(.text) for abort
    lto-llvm-7a7817.o(.text._ZNSt3__114__split_bufferI4_actRNS_9allocatorIS1_EEEC2EjjS4_) refers to new.cpp.o(.text._Znwj) for operator new(unsigned)
    lto-llvm-7a7817.o(.ARM.exidx.text._ZNSt3__114__split_bufferI4_actRNS_9allocatorIS1_EEEC2EjjS4_) refers (Special) to use_no_semi_2.o(.text) for __use_no_semihosting
    lto-llvm-7a7817.o(.ARM.exidx.text._ZNSt3__114__split_bufferI4_actRNS_9allocatorIS1_EEEC2EjjS4_) refers to lto-llvm-7a7817.o(.text._ZNSt3__114__split_bufferI4_actRNS_9allocatorIS1_EEEC2EjjS4_) for [Anonymous Symbol]
    lto-llvm-7a7817.o(.text._ZNSt3__16vectorI4_actNS_9allocatorIS1_EEE26__swap_out_circular_bufferERNS_14__split_bufferIS1_RS3_EE) refers (Special) to use_no_semi_2.o(.text) for __use_no_semihosting
    lto-llvm-7a7817.o(.text._ZNSt3__16vectorI4_actNS_9allocatorIS1_EEE26__swap_out_circular_bufferERNS_14__split_bufferIS1_RS3_EE) refers to rt_memcpy_w.o(.text) for __aeabi_memcpy4
    lto-llvm-7a7817.o(.ARM.exidx.text._ZNSt3__16vectorI4_actNS_9allocatorIS1_EEE26__swap_out_circular_bufferERNS_14__split_bufferIS1_RS3_EE) refers (Special) to use_no_semi_2.o(.text) for __use_no_semihosting
    lto-llvm-7a7817.o(.ARM.exidx.text._ZNSt3__16vectorI4_actNS_9allocatorIS1_EEE26__swap_out_circular_bufferERNS_14__split_bufferIS1_RS3_EE) refers to lto-llvm-7a7817.o(.text._ZNSt3__16vectorI4_actNS_9allocatorIS1_EEE26__swap_out_circular_bufferERNS_14__split_bufferIS1_RS3_EE) for [Anonymous Symbol]
    lto-llvm-7a7817.o(.text._ZNSt3__114__split_bufferI4_actRNS_9allocatorIS1_EEED2Ev) refers (Special) to use_no_semi_2.o(.text) for __use_no_semihosting
    lto-llvm-7a7817.o(.text._ZNSt3__114__split_bufferI4_actRNS_9allocatorIS1_EEED2Ev) refers to lto-llvm-7a7817.o(.text._ZNSt3__117_DeallocateCaller27__do_deallocate_handle_sizeEPvj) for std::__1::_DeallocateCaller::__do_deallocate_handle_size(void*, unsigned)
    lto-llvm-7a7817.o(.ARM.exidx.text._ZNSt3__114__split_bufferI4_actRNS_9allocatorIS1_EEED2Ev) refers (Special) to use_no_semi_2.o(.text) for __use_no_semihosting
    lto-llvm-7a7817.o(.ARM.exidx.text._ZNSt3__114__split_bufferI4_actRNS_9allocatorIS1_EEED2Ev) refers to lto-llvm-7a7817.o(.text._ZNSt3__114__split_bufferI4_actRNS_9allocatorIS1_EEED2Ev) for [Anonymous Symbol]
    lto-llvm-7a7817.o(.text.Servo_TransPos) refers (Special) to use_no_semi_2.o(.text) for __use_no_semihosting
    lto-llvm-7a7817.o(.text.Servo_TransPos) refers to lto-llvm-7a7817.o(.text.Servo_Add_Action) for Servo_Add_Action
    lto-llvm-7a7817.o(.ARM.exidx.text.Servo_TransPos) refers (Special) to use_no_semi_2.o(.text) for __use_no_semihosting
    lto-llvm-7a7817.o(.ARM.exidx.text.Servo_TransPos) refers to lto-llvm-7a7817.o(.text.Servo_TransPos) for [Anonymous Symbol]
    lto-llvm-7a7817.o(.text.All_Middle) refers (Special) to use_no_semi_2.o(.text) for __use_no_semihosting
    lto-llvm-7a7817.o(.text.All_Middle) refers to lto-llvm-7a7817.o(.text.Servo_Add_Action) for Servo_Add_Action
    lto-llvm-7a7817.o(.ARM.exidx.text.All_Middle) refers (Special) to use_no_semi_2.o(.text) for __use_no_semihosting
    lto-llvm-7a7817.o(.ARM.exidx.text.All_Middle) refers to lto-llvm-7a7817.o(.text.All_Middle) for [Anonymous Symbol]
    lto-llvm-7a7817.o(.text.Servo_PutLeft) refers (Special) to use_no_semi_2.o(.text) for __use_no_semihosting
    lto-llvm-7a7817.o(.text.Servo_PutLeft) refers to lto-llvm-7a7817.o(.text.Servo_Add_Action) for Servo_Add_Action
    lto-llvm-7a7817.o(.text.Servo_PutLeft) refers to lto-llvm-7a7817.o(.text.Servo_TransPos) for Servo_TransPos
    lto-llvm-7a7817.o(.ARM.exidx.text.Servo_PutLeft) refers (Special) to use_no_semi_2.o(.text) for __use_no_semihosting
    lto-llvm-7a7817.o(.ARM.exidx.text.Servo_PutLeft) refers to lto-llvm-7a7817.o(.text.Servo_PutLeft) for [Anonymous Symbol]
    lto-llvm-7a7817.o(.text.Servo_PutMiddle) refers (Special) to use_no_semi_2.o(.text) for __use_no_semihosting
    lto-llvm-7a7817.o(.text.Servo_PutMiddle) refers to lto-llvm-7a7817.o(.text.Servo_Add_Action) for Servo_Add_Action
    lto-llvm-7a7817.o(.text.Servo_PutMiddle) refers to lto-llvm-7a7817.o(.text.Servo_TransPos) for Servo_TransPos
    lto-llvm-7a7817.o(.ARM.exidx.text.Servo_PutMiddle) refers (Special) to use_no_semi_2.o(.text) for __use_no_semihosting
    lto-llvm-7a7817.o(.ARM.exidx.text.Servo_PutMiddle) refers to lto-llvm-7a7817.o(.text.Servo_PutMiddle) for [Anonymous Symbol]
    lto-llvm-7a7817.o(.text.Servo_PutRight) refers (Special) to use_no_semi_2.o(.text) for __use_no_semihosting
    lto-llvm-7a7817.o(.text.Servo_PutRight) refers to lto-llvm-7a7817.o(.text.Servo_Add_Action) for Servo_Add_Action
    lto-llvm-7a7817.o(.text.Servo_PutRight) refers to lto-llvm-7a7817.o(.text.Servo_TransPos) for Servo_TransPos
    lto-llvm-7a7817.o(.ARM.exidx.text.Servo_PutRight) refers (Special) to use_no_semi_2.o(.text) for __use_no_semihosting
    lto-llvm-7a7817.o(.ARM.exidx.text.Servo_PutRight) refers to lto-llvm-7a7817.o(.text.Servo_PutRight) for [Anonymous Symbol]
    lto-llvm-7a7817.o(.text.Servo_GrabLeft) refers (Special) to use_no_semi_2.o(.text) for __use_no_semihosting
    lto-llvm-7a7817.o(.text.Servo_GrabLeft) refers to lto-llvm-7a7817.o(.text.Servo_Add_Action) for Servo_Add_Action
    lto-llvm-7a7817.o(.text.Servo_GrabLeft) refers to lto-llvm-7a7817.o(.text.Servo_TransPos) for Servo_TransPos
    lto-llvm-7a7817.o(.ARM.exidx.text.Servo_GrabLeft) refers (Special) to use_no_semi_2.o(.text) for __use_no_semihosting
    lto-llvm-7a7817.o(.ARM.exidx.text.Servo_GrabLeft) refers to lto-llvm-7a7817.o(.text.Servo_GrabLeft) for [Anonymous Symbol]
    lto-llvm-7a7817.o(.text.Servo_GrabMiddle) refers (Special) to use_no_semi_2.o(.text) for __use_no_semihosting
    lto-llvm-7a7817.o(.text.Servo_GrabMiddle) refers to lto-llvm-7a7817.o(.text.Servo_Add_Action) for Servo_Add_Action
    lto-llvm-7a7817.o(.text.Servo_GrabMiddle) refers to lto-llvm-7a7817.o(.text.Servo_TransPos) for Servo_TransPos
    lto-llvm-7a7817.o(.ARM.exidx.text.Servo_GrabMiddle) refers (Special) to use_no_semi_2.o(.text) for __use_no_semihosting
    lto-llvm-7a7817.o(.ARM.exidx.text.Servo_GrabMiddle) refers to lto-llvm-7a7817.o(.text.Servo_GrabMiddle) for [Anonymous Symbol]
    lto-llvm-7a7817.o(.text.Servo_GrabRight) refers (Special) to use_no_semi_2.o(.text) for __use_no_semihosting
    lto-llvm-7a7817.o(.text.Servo_GrabRight) refers to lto-llvm-7a7817.o(.text.Servo_Add_Action) for Servo_Add_Action
    lto-llvm-7a7817.o(.text.Servo_GrabRight) refers to lto-llvm-7a7817.o(.text.Servo_TransPos) for Servo_TransPos
    lto-llvm-7a7817.o(.ARM.exidx.text.Servo_GrabRight) refers (Special) to use_no_semi_2.o(.text) for __use_no_semihosting
    lto-llvm-7a7817.o(.ARM.exidx.text.Servo_GrabRight) refers to lto-llvm-7a7817.o(.text.Servo_GrabRight) for [Anonymous Symbol]
    lto-llvm-7a7817.o(.text.Servo_Grab_Upper) refers (Special) to use_no_semi_2.o(.text) for __use_no_semihosting
    lto-llvm-7a7817.o(.text.Servo_Grab_Upper) refers to lto-llvm-7a7817.o(.text.Servo_Add_Action) for Servo_Add_Action
    lto-llvm-7a7817.o(.text.Servo_Grab_Upper) refers to lto-llvm-7a7817.o(.text.Servo_TransPos) for Servo_TransPos
    lto-llvm-7a7817.o(.ARM.exidx.text.Servo_Grab_Upper) refers (Special) to use_no_semi_2.o(.text) for __use_no_semihosting
    lto-llvm-7a7817.o(.ARM.exidx.text.Servo_Grab_Upper) refers to lto-llvm-7a7817.o(.text.Servo_Grab_Upper) for [Anonymous Symbol]
    lto-llvm-7a7817.o(.text.Servo_Grab_Pose_Lower) refers (Special) to use_no_semi_2.o(.text) for __use_no_semihosting
    lto-llvm-7a7817.o(.text.Servo_Grab_Pose_Lower) refers to lto-llvm-7a7817.o(.text.Servo_Add_Action) for Servo_Add_Action
    lto-llvm-7a7817.o(.ARM.exidx.text.Servo_Grab_Pose_Lower) refers (Special) to use_no_semi_2.o(.text) for __use_no_semihosting
    lto-llvm-7a7817.o(.ARM.exidx.text.Servo_Grab_Pose_Lower) refers to lto-llvm-7a7817.o(.text.Servo_Grab_Pose_Lower) for [Anonymous Symbol]
    lto-llvm-7a7817.o(.text.Servo_Grab_Pose2_Lower) refers (Special) to use_no_semi_2.o(.text) for __use_no_semihosting
    lto-llvm-7a7817.o(.text.Servo_Grab_Pose2_Lower) refers to lto-llvm-7a7817.o(.text.Servo_Add_Action) for Servo_Add_Action
    lto-llvm-7a7817.o(.ARM.exidx.text.Servo_Grab_Pose2_Lower) refers (Special) to use_no_semi_2.o(.text) for __use_no_semihosting
    lto-llvm-7a7817.o(.ARM.exidx.text.Servo_Grab_Pose2_Lower) refers to lto-llvm-7a7817.o(.text.Servo_Grab_Pose2_Lower) for [Anonymous Symbol]
    lto-llvm-7a7817.o(.text.Servo_Grab) refers (Special) to use_no_semi_2.o(.text) for __use_no_semihosting
    lto-llvm-7a7817.o(.text.Servo_Grab) refers to lto-llvm-7a7817.o(.text.Servo_Add_Action) for Servo_Add_Action
    lto-llvm-7a7817.o(.ARM.exidx.text.Servo_Grab) refers (Special) to use_no_semi_2.o(.text) for __use_no_semihosting
    lto-llvm-7a7817.o(.ARM.exidx.text.Servo_Grab) refers to lto-llvm-7a7817.o(.text.Servo_Grab) for [Anonymous Symbol]
    lto-llvm-7a7817.o(.text.Servo_Put_Upper) refers (Special) to use_no_semi_2.o(.text) for __use_no_semihosting
    lto-llvm-7a7817.o(.text.Servo_Put_Upper) refers to lto-llvm-7a7817.o(.text.Servo_Add_Action) for Servo_Add_Action
    lto-llvm-7a7817.o(.text.Servo_Put_Upper) refers to lto-llvm-7a7817.o(.text.Servo_TransPos) for Servo_TransPos
    lto-llvm-7a7817.o(.ARM.exidx.text.Servo_Put_Upper) refers (Special) to use_no_semi_2.o(.text) for __use_no_semihosting
    lto-llvm-7a7817.o(.ARM.exidx.text.Servo_Put_Upper) refers to lto-llvm-7a7817.o(.text.Servo_Put_Upper) for [Anonymous Symbol]
    lto-llvm-7a7817.o(.text.Servo_Put_Lower) refers (Special) to use_no_semi_2.o(.text) for __use_no_semihosting
    lto-llvm-7a7817.o(.text.Servo_Put_Lower) refers to lto-llvm-7a7817.o(.text.Servo_Add_Action) for Servo_Add_Action
    lto-llvm-7a7817.o(.text.Servo_Put_Lower) refers to lto-llvm-7a7817.o(.text.Servo_TransPos) for Servo_TransPos
    lto-llvm-7a7817.o(.ARM.exidx.text.Servo_Put_Lower) refers (Special) to use_no_semi_2.o(.text) for __use_no_semihosting
    lto-llvm-7a7817.o(.ARM.exidx.text.Servo_Put_Lower) refers to lto-llvm-7a7817.o(.text.Servo_Put_Lower) for [Anonymous Symbol]
    lto-llvm-7a7817.o(.text.Servo_Camera) refers (Special) to use_no_semi_2.o(.text) for __use_no_semihosting
    lto-llvm-7a7817.o(.text.Servo_Camera) refers to lto-llvm-7a7817.o(.text.Servo_Add_Action) for Servo_Add_Action
    lto-llvm-7a7817.o(.ARM.exidx.text.Servo_Camera) refers (Special) to use_no_semi_2.o(.text) for __use_no_semihosting
    lto-llvm-7a7817.o(.ARM.exidx.text.Servo_Camera) refers to lto-llvm-7a7817.o(.text.Servo_Camera) for [Anonymous Symbol]
    lto-llvm-7a7817.o(.text._GLOBAL__sub_I_ros_support_layer.cpp) refers (Special) to use_no_semi_2.o(.text) for __use_no_semihosting
    lto-llvm-7a7817.o(.text._GLOBAL__sub_I_ros_support_layer.cpp) refers to lto-llvm-7a7817.o(.text.__cxx_global_var_init) for __cxx_global_var_init
    lto-llvm-7a7817.o(.text._GLOBAL__sub_I_ros_support_layer.cpp) refers to lto-llvm-7a7817.o(.text.__cxx_global_var_init.1) for __cxx_global_var_init.1
    lto-llvm-7a7817.o(.text._GLOBAL__sub_I_ros_support_layer.cpp) refers to lto-llvm-7a7817.o(.text.__cxx_global_var_init.2) for __cxx_global_var_init.2
    lto-llvm-7a7817.o(.text._GLOBAL__sub_I_ros_support_layer.cpp) refers to lto-llvm-7a7817.o(.text.__cxx_global_var_init.4) for __cxx_global_var_init.4
    lto-llvm-7a7817.o(.text._GLOBAL__sub_I_ros_support_layer.cpp) refers to lto-llvm-7a7817.o(.text.__cxx_global_var_init.6) for __cxx_global_var_init.6
    lto-llvm-7a7817.o(.text._GLOBAL__sub_I_ros_support_layer.cpp) refers to lto-llvm-7a7817.o(.text.__cxx_global_var_init.8) for __cxx_global_var_init.8
    lto-llvm-7a7817.o(.text._GLOBAL__sub_I_ros_support_layer.cpp) refers to lto-llvm-7a7817.o(.text.__cxx_global_var_init.10) for __cxx_global_var_init.10
    lto-llvm-7a7817.o(.text._GLOBAL__sub_I_ros_support_layer.cpp) refers to lto-llvm-7a7817.o(.text.__cxx_global_var_init.12) for __cxx_global_var_init.12
    lto-llvm-7a7817.o(.text._GLOBAL__sub_I_ros_support_layer.cpp) refers to lto-llvm-7a7817.o(.text.__cxx_global_var_init.14) for __cxx_global_var_init.14
    lto-llvm-7a7817.o(.text._GLOBAL__sub_I_ros_support_layer.cpp) refers to lto-llvm-7a7817.o(.text.__cxx_global_var_init.15) for __cxx_global_var_init.15
    lto-llvm-7a7817.o(.ARM.exidx.text._GLOBAL__sub_I_ros_support_layer.cpp) refers (Special) to use_no_semi_2.o(.text) for __use_no_semihosting
    lto-llvm-7a7817.o(.ARM.exidx.text._GLOBAL__sub_I_ros_support_layer.cpp) refers to lto-llvm-7a7817.o(.text._GLOBAL__sub_I_ros_support_layer.cpp) for [Anonymous Symbol]
    lto-llvm-7a7817.o(.text.__cxx_global_var_init) refers (Special) to use_no_semi_2.o(.text) for __use_no_semihosting
    lto-llvm-7a7817.o(.text.__cxx_global_var_init) refers to lto-llvm-7a7817.o(.text._ZN3ros11NodeHandle_I13STM32HardwareLi25ELi25ELi512ELi512EEC2Ev) for ros::NodeHandle_<STM32Hardware, (int)25, (int)25, (int)512, (int)512>::NodeHandle___sub_object()
    lto-llvm-7a7817.o(.ARM.exidx.text.__cxx_global_var_init) refers (Special) to use_no_semi_2.o(.text) for __use_no_semihosting
    lto-llvm-7a7817.o(.ARM.exidx.text.__cxx_global_var_init) refers to lto-llvm-7a7817.o(.text.__cxx_global_var_init) for [Anonymous Symbol]
    lto-llvm-7a7817.o(.text.__cxx_global_var_init.1) refers (Special) to use_no_semi_2.o(.text) for __use_no_semihosting
    lto-llvm-7a7817.o(.text.__cxx_global_var_init.1) refers to lto-llvm-7a7817.o(.bss.carpos_sub) for carpos_sub
    lto-llvm-7a7817.o(.text.__cxx_global_var_init.1) refers to lto-llvm-7a7817.o(.text._Z12callback_posRKN13geometry_msgs5PointE) for callback_pos(const geometry_msgs::Point&)
    lto-llvm-7a7817.o(.text.__cxx_global_var_init.1) refers to lto-llvm-7a7817.o(.text._ZN3ros10SubscriberIN13geometry_msgs5PointEvEC2EPKcPFvRKS2_Ei) for ros::Subscriber<geometry_msgs::Point, void>::Subscriber__sub_object(const char*, void(*)(const geometry_msgs::Point&), int)
    lto-llvm-7a7817.o(.ARM.exidx.text.__cxx_global_var_init.1) refers (Special) to use_no_semi_2.o(.text) for __use_no_semihosting
    lto-llvm-7a7817.o(.ARM.exidx.text.__cxx_global_var_init.1) refers to lto-llvm-7a7817.o(.text.__cxx_global_var_init.1) for [Anonymous Symbol]
    lto-llvm-7a7817.o(.text.__cxx_global_var_init.2) refers (Special) to use_no_semi_2.o(.text) for __use_no_semihosting
    lto-llvm-7a7817.o(.text.__cxx_global_var_init.2) refers to lto-llvm-7a7817.o(.bss.carspeed_sub) for carspeed_sub
    lto-llvm-7a7817.o(.text.__cxx_global_var_init.2) refers to lto-llvm-7a7817.o(.text._Z14callback_speedRKN13geometry_msgs5PointE) for callback_speed(const geometry_msgs::Point&)
    lto-llvm-7a7817.o(.text.__cxx_global_var_init.2) refers to lto-llvm-7a7817.o(.text._ZN3ros10SubscriberIN13geometry_msgs5PointEvEC2EPKcPFvRKS2_Ei) for ros::Subscriber<geometry_msgs::Point, void>::Subscriber__sub_object(const char*, void(*)(const geometry_msgs::Point&), int)
    lto-llvm-7a7817.o(.ARM.exidx.text.__cxx_global_var_init.2) refers (Special) to use_no_semi_2.o(.text) for __use_no_semihosting
    lto-llvm-7a7817.o(.ARM.exidx.text.__cxx_global_var_init.2) refers to lto-llvm-7a7817.o(.text.__cxx_global_var_init.2) for [Anonymous Symbol]
    lto-llvm-7a7817.o(.text.__cxx_global_var_init.4) refers (Special) to use_no_semi_2.o(.text) for __use_no_semihosting
    lto-llvm-7a7817.o(.text.__cxx_global_var_init.4) refers to lto-llvm-7a7817.o(.text._ZN3ros10SubscriberIN8std_msgs7Float64EvEC2EPKcPFvRKS2_Ei) for ros::Subscriber<std_msgs::Float64, void>::Subscriber__sub_object(const char*, void(*)(const std_msgs::Float64&), int)
    lto-llvm-7a7817.o(.ARM.exidx.text.__cxx_global_var_init.4) refers (Special) to use_no_semi_2.o(.text) for __use_no_semihosting
    lto-llvm-7a7817.o(.ARM.exidx.text.__cxx_global_var_init.4) refers to lto-llvm-7a7817.o(.text.__cxx_global_var_init.4) for [Anonymous Symbol]
    lto-llvm-7a7817.o(.text.__cxx_global_var_init.6) refers (Special) to use_no_semi_2.o(.text) for __use_no_semihosting
    lto-llvm-7a7817.o(.text.__cxx_global_var_init.6) refers to lto-llvm-7a7817.o(.bss.carmode_sub) for carmode_sub
    lto-llvm-7a7817.o(.text.__cxx_global_var_init.6) refers to lto-llvm-7a7817.o(.text._Z13callback_modeRKN8std_msgs5UInt8E) for callback_mode(const std_msgs::UInt8&)
    lto-llvm-7a7817.o(.text.__cxx_global_var_init.6) refers to lto-llvm-7a7817.o(.text._ZN3ros10SubscriberIN8std_msgs5UInt8EvEC2EPKcPFvRKS2_Ei) for ros::Subscriber<std_msgs::UInt8, void>::Subscriber__sub_object(const char*, void(*)(const std_msgs::UInt8&), int)
    lto-llvm-7a7817.o(.ARM.exidx.text.__cxx_global_var_init.6) refers (Special) to use_no_semi_2.o(.text) for __use_no_semihosting
    lto-llvm-7a7817.o(.ARM.exidx.text.__cxx_global_var_init.6) refers to lto-llvm-7a7817.o(.text.__cxx_global_var_init.6) for [Anonymous Symbol]
    lto-llvm-7a7817.o(.text.__cxx_global_var_init.8) refers (Special) to use_no_semi_2.o(.text) for __use_no_semihosting
    lto-llvm-7a7817.o(.text.__cxx_global_var_init.8) refers to lto-llvm-7a7817.o(.bss.servo_sub) for servo_sub
    lto-llvm-7a7817.o(.text.__cxx_global_var_init.8) refers to lto-llvm-7a7817.o(.text._Z14callback_servoRKN8std_msgs5UInt8E) for callback_servo(const std_msgs::UInt8&)
    lto-llvm-7a7817.o(.text.__cxx_global_var_init.8) refers to lto-llvm-7a7817.o(.text._ZN3ros10SubscriberIN8std_msgs5UInt8EvEC2EPKcPFvRKS2_Ei) for ros::Subscriber<std_msgs::UInt8, void>::Subscriber__sub_object(const char*, void(*)(const std_msgs::UInt8&), int)
    lto-llvm-7a7817.o(.ARM.exidx.text.__cxx_global_var_init.8) refers (Special) to use_no_semi_2.o(.text) for __use_no_semihosting
    lto-llvm-7a7817.o(.ARM.exidx.text.__cxx_global_var_init.8) refers to lto-llvm-7a7817.o(.text.__cxx_global_var_init.8) for [Anonymous Symbol]
    lto-llvm-7a7817.o(.text.__cxx_global_var_init.10) refers (Special) to use_no_semi_2.o(.text) for __use_no_semihosting
    lto-llvm-7a7817.o(.text.__cxx_global_var_init.10) refers to lto-llvm-7a7817.o(.bss.xy_sub) for xy_sub
    lto-llvm-7a7817.o(.text.__cxx_global_var_init.10) refers to lto-llvm-7a7817.o(.text._Z11callback_xyRKN13geometry_msgs5PointE) for callback_xy(const geometry_msgs::Point&)
    lto-llvm-7a7817.o(.text.__cxx_global_var_init.10) refers to lto-llvm-7a7817.o(.text._ZN3ros10SubscriberIN13geometry_msgs5PointEvEC2EPKcPFvRKS2_Ei) for ros::Subscriber<geometry_msgs::Point, void>::Subscriber__sub_object(const char*, void(*)(const geometry_msgs::Point&), int)
    lto-llvm-7a7817.o(.ARM.exidx.text.__cxx_global_var_init.10) refers (Special) to use_no_semi_2.o(.text) for __use_no_semihosting
    lto-llvm-7a7817.o(.ARM.exidx.text.__cxx_global_var_init.10) refers to lto-llvm-7a7817.o(.text.__cxx_global_var_init.10) for [Anonymous Symbol]
    lto-llvm-7a7817.o(.text.__cxx_global_var_init.12) refers (Special) to use_no_semi_2.o(.text) for __use_no_semihosting
    lto-llvm-7a7817.o(.text.__cxx_global_var_init.12) refers to lto-llvm-7a7817.o(.text._ZN3ros10SubscriberIN8std_msgs6StringEvEC2EPKcPFvRKS2_Ei) for ros::Subscriber<std_msgs::String, void>::Subscriber__sub_object(const char*, void(*)(const std_msgs::String&), int)
    lto-llvm-7a7817.o(.ARM.exidx.text.__cxx_global_var_init.12) refers (Special) to use_no_semi_2.o(.text) for __use_no_semihosting
    lto-llvm-7a7817.o(.ARM.exidx.text.__cxx_global_var_init.12) refers to lto-llvm-7a7817.o(.text.__cxx_global_var_init.12) for [Anonymous Symbol]
    lto-llvm-7a7817.o(.text.__cxx_global_var_init.14) refers (Special) to use_no_semi_2.o(.text) for __use_no_semihosting
    lto-llvm-7a7817.o(.text.__cxx_global_var_init.14) refers to lto-llvm-7a7817.o(.bss.pos_msg) for pos_msg
    lto-llvm-7a7817.o(.text.__cxx_global_var_init.14) refers to lto-llvm-7a7817.o(.text._ZN13geometry_msgs5PointC2Ev) for geometry_msgs::Point::Point__sub_object()
    lto-llvm-7a7817.o(.ARM.exidx.text.__cxx_global_var_init.14) refers (Special) to use_no_semi_2.o(.text) for __use_no_semihosting
    lto-llvm-7a7817.o(.ARM.exidx.text.__cxx_global_var_init.14) refers to lto-llvm-7a7817.o(.text.__cxx_global_var_init.14) for [Anonymous Symbol]
    lto-llvm-7a7817.o(.text.__cxx_global_var_init.15) refers (Special) to use_no_semi_2.o(.text) for __use_no_semihosting
    lto-llvm-7a7817.o(.text.__cxx_global_var_init.15) refers to lto-llvm-7a7817.o(.text._ZN3ros9PublisherC2EPKcPNS_3MsgEi) for ros::Publisher::Publisher__sub_object(const char*, ros::Msg*, int)
    lto-llvm-7a7817.o(.ARM.exidx.text.__cxx_global_var_init.15) refers (Special) to use_no_semi_2.o(.text) for __use_no_semihosting
    lto-llvm-7a7817.o(.ARM.exidx.text.__cxx_global_var_init.15) refers to lto-llvm-7a7817.o(.text.__cxx_global_var_init.15) for [Anonymous Symbol]
    lto-llvm-7a7817.o(.text._ZN3ros9PublisherC2EPKcPNS_3MsgEi) refers (Special) to use_no_semi_2.o(.text) for __use_no_semihosting
    lto-llvm-7a7817.o(.text._ZN3ros9PublisherC2EPKcPNS_3MsgEi) refers to lto-llvm-7a7817.o(.bss.current_pos) for current_pos
    lto-llvm-7a7817.o(.text._ZN3ros9PublisherC2EPKcPNS_3MsgEi) refers to lto-llvm-7a7817.o(.rodata.str1.1) for .L.str.16
    lto-llvm-7a7817.o(.text._ZN3ros9PublisherC2EPKcPNS_3MsgEi) refers to lto-llvm-7a7817.o(.bss.pos_msg) for pos_msg
    lto-llvm-7a7817.o(.ARM.exidx.text._ZN3ros9PublisherC2EPKcPNS_3MsgEi) refers (Special) to use_no_semi_2.o(.text) for __use_no_semihosting
    lto-llvm-7a7817.o(.ARM.exidx.text._ZN3ros9PublisherC2EPKcPNS_3MsgEi) refers to lto-llvm-7a7817.o(.text._ZN3ros9PublisherC2EPKcPNS_3MsgEi) for [Anonymous Symbol]
    lto-llvm-7a7817.o(.text._ZN13geometry_msgs5PointC2Ev) refers (Special) to use_no_semi_2.o(.text) for __use_no_semihosting
    lto-llvm-7a7817.o(.text._ZN13geometry_msgs5PointC2Ev) refers to lto-llvm-7a7817.o(.text._ZN3ros3MsgC2Ev) for ros::Msg::Msg__sub_object()
    lto-llvm-7a7817.o(.text._ZN13geometry_msgs5PointC2Ev) refers to lto-llvm-7a7817.o(.rodata._ZTVN13geometry_msgs5PointE) for vtable for geometry_msgs::Point
    lto-llvm-7a7817.o(.ARM.exidx.text._ZN13geometry_msgs5PointC2Ev) refers (Special) to use_no_semi_2.o(.text) for __use_no_semihosting
    lto-llvm-7a7817.o(.ARM.exidx.text._ZN13geometry_msgs5PointC2Ev) refers to lto-llvm-7a7817.o(.text._ZN13geometry_msgs5PointC2Ev) for [Anonymous Symbol]
    lto-llvm-7a7817.o(.text._ZN3ros3MsgC2Ev) refers (Special) to use_no_semi_2.o(.text) for __use_no_semihosting
    lto-llvm-7a7817.o(.text._ZN3ros3MsgC2Ev) refers to lto-llvm-7a7817.o(.rodata._ZTVN3ros11Subscriber_E) for vtable for ros::Subscriber_
    lto-llvm-7a7817.o(.ARM.exidx.text._ZN3ros3MsgC2Ev) refers (Special) to use_no_semi_2.o(.text) for __use_no_semihosting
    lto-llvm-7a7817.o(.ARM.exidx.text._ZN3ros3MsgC2Ev) refers to lto-llvm-7a7817.o(.text._ZN3ros3MsgC2Ev) for [Anonymous Symbol]
    lto-llvm-7a7817.o(.text._ZNK13geometry_msgs5Point9serializeEPh) refers (Special) to use_no_semi_2.o(.text) for __use_no_semihosting
    lto-llvm-7a7817.o(.ARM.exidx.text._ZNK13geometry_msgs5Point9serializeEPh) refers (Special) to use_no_semi_2.o(.text) for __use_no_semihosting
    lto-llvm-7a7817.o(.ARM.exidx.text._ZNK13geometry_msgs5Point9serializeEPh) refers to lto-llvm-7a7817.o(.text._ZNK13geometry_msgs5Point9serializeEPh) for [Anonymous Symbol]
    lto-llvm-7a7817.o(.text._ZN13geometry_msgs5Point11deserializeEPh) refers (Special) to use_no_semi_2.o(.text) for __use_no_semihosting
    lto-llvm-7a7817.o(.ARM.exidx.text._ZN13geometry_msgs5Point11deserializeEPh) refers (Special) to use_no_semi_2.o(.text) for __use_no_semihosting
    lto-llvm-7a7817.o(.ARM.exidx.text._ZN13geometry_msgs5Point11deserializeEPh) refers to lto-llvm-7a7817.o(.text._ZN13geometry_msgs5Point11deserializeEPh) for [Anonymous Symbol]
    lto-llvm-7a7817.o(.text._ZN13geometry_msgs5Point7getTypeEv) refers (Special) to use_no_semi_2.o(.text) for __use_no_semihosting
    lto-llvm-7a7817.o(.text._ZN13geometry_msgs5Point7getTypeEv) refers to lto-llvm-7a7817.o(.rodata.str1.1) for .L.str.18
    lto-llvm-7a7817.o(.ARM.exidx.text._ZN13geometry_msgs5Point7getTypeEv) refers (Special) to use_no_semi_2.o(.text) for __use_no_semihosting
    lto-llvm-7a7817.o(.ARM.exidx.text._ZN13geometry_msgs5Point7getTypeEv) refers to lto-llvm-7a7817.o(.text._ZN13geometry_msgs5Point7getTypeEv) for [Anonymous Symbol]
    lto-llvm-7a7817.o(.text._ZN13geometry_msgs5Point6getMD5Ev) refers (Special) to use_no_semi_2.o(.text) for __use_no_semihosting
    lto-llvm-7a7817.o(.text._ZN13geometry_msgs5Point6getMD5Ev) refers to lto-llvm-7a7817.o(.rodata.str1.1) for .L.str.19
    lto-llvm-7a7817.o(.ARM.exidx.text._ZN13geometry_msgs5Point6getMD5Ev) refers (Special) to use_no_semi_2.o(.text) for __use_no_semihosting
    lto-llvm-7a7817.o(.ARM.exidx.text._ZN13geometry_msgs5Point6getMD5Ev) refers to lto-llvm-7a7817.o(.text._ZN13geometry_msgs5Point6getMD5Ev) for [Anonymous Symbol]
    lto-llvm-7a7817.o(.text._Z16callback_displayRKN8std_msgs6StringE) refers (Special) to use_no_semi_2.o(.text) for __use_no_semihosting
    lto-llvm-7a7817.o(.text._Z16callback_displayRKN8std_msgs6StringE) refers to lto-llvm-7a7817.o(.text._ZNSt3__111char_traitsIcE6lengthEPKc) for std::__1::char_traits<char>::length(const char*)
    lto-llvm-7a7817.o(.text._Z16callback_displayRKN8std_msgs6StringE) refers to string.cpp.o(.text._ZNSt3__112basic_stringIcNS_11char_traitsIcEENS_9allocatorIcEEE6__initEPKcj) for std::__1::basic_string<char, std::__1::char_traits<char>, std::__1::allocator<char>>::__init(const char*, unsigned)
    lto-llvm-7a7817.o(.text._Z16callback_displayRKN8std_msgs6StringE) refers to lto-llvm-7a7817.o(.text._Z18Screen_printStringNSt3__112basic_stringIcNS_11char_traitsIcEENS_9allocatorIcEEEE) for Screen_printString(std::__1::basic_string<char, std::__1::char_traits<char>, std::__1::allocator<char>>)
    lto-llvm-7a7817.o(.text._Z16callback_displayRKN8std_msgs6StringE) refers to string.cpp.o(.text._ZNSt3__112basic_stringIcNS_11char_traitsIcEENS_9allocatorIcEEED2Ev) for std::__1::basic_string<char, std::__1::char_traits<char>, std::__1::allocator<char>>::~basic_string()
    lto-llvm-7a7817.o(.ARM.exidx.text._Z16callback_displayRKN8std_msgs6StringE) refers (Special) to use_no_semi_2.o(.text) for __use_no_semihosting
    lto-llvm-7a7817.o(.ARM.exidx.text._Z16callback_displayRKN8std_msgs6StringE) refers to lto-llvm-7a7817.o(.text._Z16callback_displayRKN8std_msgs6StringE) for [Anonymous Symbol]
    lto-llvm-7a7817.o(.text._ZN3ros10SubscriberIN8std_msgs6StringEvEC2EPKcPFvRKS2_Ei) refers (Special) to use_no_semi_2.o(.text) for __use_no_semihosting
    lto-llvm-7a7817.o(.text._ZN3ros10SubscriberIN8std_msgs6StringEvEC2EPKcPFvRKS2_Ei) refers to lto-llvm-7a7817.o(.bss.display_sub) for display_sub
    lto-llvm-7a7817.o(.text._ZN3ros10SubscriberIN8std_msgs6StringEvEC2EPKcPFvRKS2_Ei) refers to lto-llvm-7a7817.o(.rodata.str1.1) for .L.str.13
    lto-llvm-7a7817.o(.text._ZN3ros10SubscriberIN8std_msgs6StringEvEC2EPKcPFvRKS2_Ei) refers to lto-llvm-7a7817.o(.text._Z16callback_displayRKN8std_msgs6StringE) for callback_display(const std_msgs::String&)
    lto-llvm-7a7817.o(.text._ZN3ros10SubscriberIN8std_msgs6StringEvEC2EPKcPFvRKS2_Ei) refers to lto-llvm-7a7817.o(.text._ZN3ros11Subscriber_C2Ev) for ros::Subscriber_::Subscriber___sub_object()
    lto-llvm-7a7817.o(.text._ZN3ros10SubscriberIN8std_msgs6StringEvEC2EPKcPFvRKS2_Ei) refers to lto-llvm-7a7817.o(.rodata._ZTVN3ros10SubscriberIN8std_msgs6StringEvEE) for vtable for ros::Subscriber<std_msgs::String, void>
    lto-llvm-7a7817.o(.text._ZN3ros10SubscriberIN8std_msgs6StringEvEC2EPKcPFvRKS2_Ei) refers to lto-llvm-7a7817.o(.text._ZN8std_msgs6StringC2Ev) for std_msgs::String::String__sub_object()
    lto-llvm-7a7817.o(.ARM.exidx.text._ZN3ros10SubscriberIN8std_msgs6StringEvEC2EPKcPFvRKS2_Ei) refers (Special) to use_no_semi_2.o(.text) for __use_no_semihosting
    lto-llvm-7a7817.o(.ARM.exidx.text._ZN3ros10SubscriberIN8std_msgs6StringEvEC2EPKcPFvRKS2_Ei) refers to lto-llvm-7a7817.o(.text._ZN3ros10SubscriberIN8std_msgs6StringEvEC2EPKcPFvRKS2_Ei) for [Anonymous Symbol]
    lto-llvm-7a7817.o(.text._ZN3ros11Subscriber_C2Ev) refers (Special) to use_no_semi_2.o(.text) for __use_no_semihosting
    lto-llvm-7a7817.o(.text._ZN3ros11Subscriber_C2Ev) refers to lto-llvm-7a7817.o(.rodata._ZTVN3ros11Subscriber_E) for vtable for ros::Subscriber_
    lto-llvm-7a7817.o(.ARM.exidx.text._ZN3ros11Subscriber_C2Ev) refers (Special) to use_no_semi_2.o(.text) for __use_no_semihosting
    lto-llvm-7a7817.o(.ARM.exidx.text._ZN3ros11Subscriber_C2Ev) refers to lto-llvm-7a7817.o(.text._ZN3ros11Subscriber_C2Ev) for [Anonymous Symbol]
    lto-llvm-7a7817.o(.text._ZN8std_msgs6StringC2Ev) refers (Special) to use_no_semi_2.o(.text) for __use_no_semihosting
    lto-llvm-7a7817.o(.text._ZN8std_msgs6StringC2Ev) refers to lto-llvm-7a7817.o(.text._ZN3ros3MsgC2Ev) for ros::Msg::Msg__sub_object()
    lto-llvm-7a7817.o(.text._ZN8std_msgs6StringC2Ev) refers to lto-llvm-7a7817.o(.rodata._ZTVN8std_msgs6StringE) for vtable for std_msgs::String
    lto-llvm-7a7817.o(.text._ZN8std_msgs6StringC2Ev) refers to lto-llvm-7a7817.o(.rodata.str1.1) for .L.str.22
    lto-llvm-7a7817.o(.ARM.exidx.text._ZN8std_msgs6StringC2Ev) refers (Special) to use_no_semi_2.o(.text) for __use_no_semihosting
    lto-llvm-7a7817.o(.ARM.exidx.text._ZN8std_msgs6StringC2Ev) refers to lto-llvm-7a7817.o(.text._ZN8std_msgs6StringC2Ev) for [Anonymous Symbol]
    lto-llvm-7a7817.o(.text._ZNK8std_msgs6String9serializeEPh) refers (Special) to use_no_semi_2.o(.text) for __use_no_semihosting
    lto-llvm-7a7817.o(.text._ZNK8std_msgs6String9serializeEPh) refers to strlen.o(.text) for strlen
    lto-llvm-7a7817.o(.text._ZNK8std_msgs6String9serializeEPh) refers to lto-llvm-7a7817.o(.text._ZN3ros3Msg8varToArrIPhjEEvT_T0_) for void ros::Msg::varToArr<unsigned char*, unsigned>(T1, T2)
    lto-llvm-7a7817.o(.text._ZNK8std_msgs6String9serializeEPh) refers to rt_memcpy_v6.o(.text) for __aeabi_memcpy
    lto-llvm-7a7817.o(.ARM.exidx.text._ZNK8std_msgs6String9serializeEPh) refers (Special) to use_no_semi_2.o(.text) for __use_no_semihosting
    lto-llvm-7a7817.o(.ARM.exidx.text._ZNK8std_msgs6String9serializeEPh) refers to lto-llvm-7a7817.o(.text._ZNK8std_msgs6String9serializeEPh) for [Anonymous Symbol]
    lto-llvm-7a7817.o(.text._ZN8std_msgs6String11deserializeEPh) refers (Special) to use_no_semi_2.o(.text) for __use_no_semihosting
    lto-llvm-7a7817.o(.text._ZN8std_msgs6String11deserializeEPh) refers to lto-llvm-7a7817.o(.text._ZN3ros3Msg8arrToVarIjPhEEvRT_T0_) for void ros::Msg::arrToVar<unsigned, unsigned char*>(T1&, T2)
    lto-llvm-7a7817.o(.ARM.exidx.text._ZN8std_msgs6String11deserializeEPh) refers (Special) to use_no_semi_2.o(.text) for __use_no_semihosting
    lto-llvm-7a7817.o(.ARM.exidx.text._ZN8std_msgs6String11deserializeEPh) refers to lto-llvm-7a7817.o(.text._ZN8std_msgs6String11deserializeEPh) for [Anonymous Symbol]
    lto-llvm-7a7817.o(.text._ZN8std_msgs6String7getTypeEv) refers (Special) to use_no_semi_2.o(.text) for __use_no_semihosting
    lto-llvm-7a7817.o(.text._ZN8std_msgs6String7getTypeEv) refers to lto-llvm-7a7817.o(.rodata.str1.1) for .L.str.29
    lto-llvm-7a7817.o(.ARM.exidx.text._ZN8std_msgs6String7getTypeEv) refers (Special) to use_no_semi_2.o(.text) for __use_no_semihosting
    lto-llvm-7a7817.o(.ARM.exidx.text._ZN8std_msgs6String7getTypeEv) refers to lto-llvm-7a7817.o(.text._ZN8std_msgs6String7getTypeEv) for [Anonymous Symbol]
    lto-llvm-7a7817.o(.text._ZN8std_msgs6String6getMD5Ev) refers (Special) to use_no_semi_2.o(.text) for __use_no_semihosting
    lto-llvm-7a7817.o(.text._ZN8std_msgs6String6getMD5Ev) refers to lto-llvm-7a7817.o(.rodata.str1.1) for .L.str.30
    lto-llvm-7a7817.o(.ARM.exidx.text._ZN8std_msgs6String6getMD5Ev) refers (Special) to use_no_semi_2.o(.text) for __use_no_semihosting
    lto-llvm-7a7817.o(.ARM.exidx.text._ZN8std_msgs6String6getMD5Ev) refers to lto-llvm-7a7817.o(.text._ZN8std_msgs6String6getMD5Ev) for [Anonymous Symbol]
    lto-llvm-7a7817.o(.text._ZN3ros3Msg8arrToVarIjPhEEvRT_T0_) refers (Special) to use_no_semi_2.o(.text) for __use_no_semihosting
    lto-llvm-7a7817.o(.ARM.exidx.text._ZN3ros3Msg8arrToVarIjPhEEvRT_T0_) refers (Special) to use_no_semi_2.o(.text) for __use_no_semihosting
    lto-llvm-7a7817.o(.ARM.exidx.text._ZN3ros3Msg8arrToVarIjPhEEvRT_T0_) refers to lto-llvm-7a7817.o(.text._ZN3ros3Msg8arrToVarIjPhEEvRT_T0_) for [Anonymous Symbol]
    lto-llvm-7a7817.o(.text._ZN3ros3Msg8varToArrIPhjEEvT_T0_) refers (Special) to use_no_semi_2.o(.text) for __use_no_semihosting
    lto-llvm-7a7817.o(.ARM.exidx.text._ZN3ros3Msg8varToArrIPhjEEvT_T0_) refers (Special) to use_no_semi_2.o(.text) for __use_no_semihosting
    lto-llvm-7a7817.o(.ARM.exidx.text._ZN3ros3Msg8varToArrIPhjEEvT_T0_) refers to lto-llvm-7a7817.o(.text._ZN3ros3Msg8varToArrIPhjEEvT_T0_) for [Anonymous Symbol]
    lto-llvm-7a7817.o(.text._ZN3ros10SubscriberIN8std_msgs6StringEvE8callbackEPh) refers (Special) to use_no_semi_2.o(.text) for __use_no_semihosting
    lto-llvm-7a7817.o(.text._ZN3ros10SubscriberIN8std_msgs6StringEvE8callbackEPh) refers to lto-llvm-7a7817.o(.text._ZN8std_msgs6String11deserializeEPh) for std_msgs::String::deserialize(unsigned char*)
    lto-llvm-7a7817.o(.ARM.exidx.text._ZN3ros10SubscriberIN8std_msgs6StringEvE8callbackEPh) refers (Special) to use_no_semi_2.o(.text) for __use_no_semihosting
    lto-llvm-7a7817.o(.ARM.exidx.text._ZN3ros10SubscriberIN8std_msgs6StringEvE8callbackEPh) refers to lto-llvm-7a7817.o(.text._ZN3ros10SubscriberIN8std_msgs6StringEvE8callbackEPh) for [Anonymous Symbol]
    lto-llvm-7a7817.o(.text._ZN3ros10SubscriberIN8std_msgs6StringEvE15getEndpointTypeEv) refers (Special) to use_no_semi_2.o(.text) for __use_no_semihosting
    lto-llvm-7a7817.o(.ARM.exidx.text._ZN3ros10SubscriberIN8std_msgs6StringEvE15getEndpointTypeEv) refers (Special) to use_no_semi_2.o(.text) for __use_no_semihosting
    lto-llvm-7a7817.o(.ARM.exidx.text._ZN3ros10SubscriberIN8std_msgs6StringEvE15getEndpointTypeEv) refers to lto-llvm-7a7817.o(.text._ZN3ros10SubscriberIN8std_msgs6StringEvE15getEndpointTypeEv) for [Anonymous Symbol]
    lto-llvm-7a7817.o(.text._ZN3ros10SubscriberIN8std_msgs6StringEvE10getMsgTypeEv) refers (Special) to use_no_semi_2.o(.text) for __use_no_semihosting
    lto-llvm-7a7817.o(.text._ZN3ros10SubscriberIN8std_msgs6StringEvE10getMsgTypeEv) refers to lto-llvm-7a7817.o(.text._ZN8std_msgs6String7getTypeEv) for std_msgs::String::getType()
    lto-llvm-7a7817.o(.text._ZN3ros10SubscriberIN8std_msgs6StringEvE10getMsgTypeEv) refers to lto-llvm-7a7817.o(.rodata.str1.1) for .L.str.29
    lto-llvm-7a7817.o(.ARM.exidx.text._ZN3ros10SubscriberIN8std_msgs6StringEvE10getMsgTypeEv) refers (Special) to use_no_semi_2.o(.text) for __use_no_semihosting
    lto-llvm-7a7817.o(.ARM.exidx.text._ZN3ros10SubscriberIN8std_msgs6StringEvE10getMsgTypeEv) refers to lto-llvm-7a7817.o(.text._ZN3ros10SubscriberIN8std_msgs6StringEvE10getMsgTypeEv) for [Anonymous Symbol]
    lto-llvm-7a7817.o(.text._ZN3ros10SubscriberIN8std_msgs6StringEvE9getMsgMD5Ev) refers (Special) to use_no_semi_2.o(.text) for __use_no_semihosting
    lto-llvm-7a7817.o(.text._ZN3ros10SubscriberIN8std_msgs6StringEvE9getMsgMD5Ev) refers to lto-llvm-7a7817.o(.text._ZN8std_msgs6String6getMD5Ev) for std_msgs::String::getMD5()
    lto-llvm-7a7817.o(.text._ZN3ros10SubscriberIN8std_msgs6StringEvE9getMsgMD5Ev) refers to lto-llvm-7a7817.o(.rodata.str1.1) for .L.str.30
    lto-llvm-7a7817.o(.ARM.exidx.text._ZN3ros10SubscriberIN8std_msgs6StringEvE9getMsgMD5Ev) refers (Special) to use_no_semi_2.o(.text) for __use_no_semihosting
    lto-llvm-7a7817.o(.ARM.exidx.text._ZN3ros10SubscriberIN8std_msgs6StringEvE9getMsgMD5Ev) refers to lto-llvm-7a7817.o(.text._ZN3ros10SubscriberIN8std_msgs6StringEvE9getMsgMD5Ev) for [Anonymous Symbol]
    lto-llvm-7a7817.o(.text._ZNSt3__111char_traitsIcE6lengthEPKc) refers (Special) to use_no_semi_2.o(.text) for __use_no_semihosting
    lto-llvm-7a7817.o(.text._ZNSt3__111char_traitsIcE6lengthEPKc) refers to strlen.o(.text) for strlen
    lto-llvm-7a7817.o(.ARM.exidx.text._ZNSt3__111char_traitsIcE6lengthEPKc) refers (Special) to use_no_semi_2.o(.text) for __use_no_semihosting
    lto-llvm-7a7817.o(.ARM.exidx.text._ZNSt3__111char_traitsIcE6lengthEPKc) refers to lto-llvm-7a7817.o(.text._ZNSt3__111char_traitsIcE6lengthEPKc) for [Anonymous Symbol]
    lto-llvm-7a7817.o(.text._Z11callback_xyRKN13geometry_msgs5PointE) refers (Special) to use_no_semi_2.o(.text) for __use_no_semihosting
    lto-llvm-7a7817.o(.text._Z11callback_xyRKN13geometry_msgs5PointE) refers to lto-llvm-7a7817.o(.text.set_stepper_abs) for set_stepper_abs
    lto-llvm-7a7817.o(.text._Z11callback_xyRKN13geometry_msgs5PointE) refers to lto-llvm-7a7817.o(.text.WritePos) for WritePos
    lto-llvm-7a7817.o(.ARM.exidx.text._Z11callback_xyRKN13geometry_msgs5PointE) refers (Special) to use_no_semi_2.o(.text) for __use_no_semihosting
    lto-llvm-7a7817.o(.ARM.exidx.text._Z11callback_xyRKN13geometry_msgs5PointE) refers to lto-llvm-7a7817.o(.text._Z11callback_xyRKN13geometry_msgs5PointE) for [Anonymous Symbol]
    lto-llvm-7a7817.o(.text._ZN3ros10SubscriberIN13geometry_msgs5PointEvEC2EPKcPFvRKS2_Ei) refers (Special) to use_no_semi_2.o(.text) for __use_no_semihosting
    lto-llvm-7a7817.o(.text._ZN3ros10SubscriberIN13geometry_msgs5PointEvEC2EPKcPFvRKS2_Ei) refers to lto-llvm-7a7817.o(.text._ZN3ros11Subscriber_C2Ev) for ros::Subscriber_::Subscriber___sub_object()
    lto-llvm-7a7817.o(.text._ZN3ros10SubscriberIN13geometry_msgs5PointEvEC2EPKcPFvRKS2_Ei) refers to lto-llvm-7a7817.o(.rodata._ZTVN3ros10SubscriberIN13geometry_msgs5PointEvEE) for vtable for ros::Subscriber<geometry_msgs::Point, void>
    lto-llvm-7a7817.o(.text._ZN3ros10SubscriberIN13geometry_msgs5PointEvEC2EPKcPFvRKS2_Ei) refers to lto-llvm-7a7817.o(.text._ZN13geometry_msgs5PointC2Ev) for geometry_msgs::Point::Point__sub_object()
    lto-llvm-7a7817.o(.ARM.exidx.text._ZN3ros10SubscriberIN13geometry_msgs5PointEvEC2EPKcPFvRKS2_Ei) refers (Special) to use_no_semi_2.o(.text) for __use_no_semihosting
    lto-llvm-7a7817.o(.ARM.exidx.text._ZN3ros10SubscriberIN13geometry_msgs5PointEvEC2EPKcPFvRKS2_Ei) refers to lto-llvm-7a7817.o(.text._ZN3ros10SubscriberIN13geometry_msgs5PointEvEC2EPKcPFvRKS2_Ei) for [Anonymous Symbol]
    lto-llvm-7a7817.o(.text._ZN3ros10SubscriberIN13geometry_msgs5PointEvE8callbackEPh) refers (Special) to use_no_semi_2.o(.text) for __use_no_semihosting
    lto-llvm-7a7817.o(.text._ZN3ros10SubscriberIN13geometry_msgs5PointEvE8callbackEPh) refers to lto-llvm-7a7817.o(.text._ZN13geometry_msgs5Point11deserializeEPh) for geometry_msgs::Point::deserialize(unsigned char*)
    lto-llvm-7a7817.o(.ARM.exidx.text._ZN3ros10SubscriberIN13geometry_msgs5PointEvE8callbackEPh) refers (Special) to use_no_semi_2.o(.text) for __use_no_semihosting
    lto-llvm-7a7817.o(.ARM.exidx.text._ZN3ros10SubscriberIN13geometry_msgs5PointEvE8callbackEPh) refers to lto-llvm-7a7817.o(.text._ZN3ros10SubscriberIN13geometry_msgs5PointEvE8callbackEPh) for [Anonymous Symbol]
    lto-llvm-7a7817.o(.text._ZN3ros10SubscriberIN13geometry_msgs5PointEvE15getEndpointTypeEv) refers (Special) to use_no_semi_2.o(.text) for __use_no_semihosting
    lto-llvm-7a7817.o(.ARM.exidx.text._ZN3ros10SubscriberIN13geometry_msgs5PointEvE15getEndpointTypeEv) refers (Special) to use_no_semi_2.o(.text) for __use_no_semihosting
    lto-llvm-7a7817.o(.ARM.exidx.text._ZN3ros10SubscriberIN13geometry_msgs5PointEvE15getEndpointTypeEv) refers to lto-llvm-7a7817.o(.text._ZN3ros10SubscriberIN13geometry_msgs5PointEvE15getEndpointTypeEv) for [Anonymous Symbol]
    lto-llvm-7a7817.o(.text._ZN3ros10SubscriberIN13geometry_msgs5PointEvE10getMsgTypeEv) refers (Special) to use_no_semi_2.o(.text) for __use_no_semihosting
    lto-llvm-7a7817.o(.text._ZN3ros10SubscriberIN13geometry_msgs5PointEvE10getMsgTypeEv) refers to lto-llvm-7a7817.o(.text._ZN13geometry_msgs5Point7getTypeEv) for geometry_msgs::Point::getType()
    lto-llvm-7a7817.o(.text._ZN3ros10SubscriberIN13geometry_msgs5PointEvE10getMsgTypeEv) refers to lto-llvm-7a7817.o(.rodata.str1.1) for .L.str.18
    lto-llvm-7a7817.o(.ARM.exidx.text._ZN3ros10SubscriberIN13geometry_msgs5PointEvE10getMsgTypeEv) refers (Special) to use_no_semi_2.o(.text) for __use_no_semihosting
    lto-llvm-7a7817.o(.ARM.exidx.text._ZN3ros10SubscriberIN13geometry_msgs5PointEvE10getMsgTypeEv) refers to lto-llvm-7a7817.o(.text._ZN3ros10SubscriberIN13geometry_msgs5PointEvE10getMsgTypeEv) for [Anonymous Symbol]
    lto-llvm-7a7817.o(.text._ZN3ros10SubscriberIN13geometry_msgs5PointEvE9getMsgMD5Ev) refers (Special) to use_no_semi_2.o(.text) for __use_no_semihosting
    lto-llvm-7a7817.o(.text._ZN3ros10SubscriberIN13geometry_msgs5PointEvE9getMsgMD5Ev) refers to lto-llvm-7a7817.o(.text._ZN13geometry_msgs5Point6getMD5Ev) for geometry_msgs::Point::getMD5()
    lto-llvm-7a7817.o(.text._ZN3ros10SubscriberIN13geometry_msgs5PointEvE9getMsgMD5Ev) refers to lto-llvm-7a7817.o(.rodata.str1.1) for .L.str.19
    lto-llvm-7a7817.o(.ARM.exidx.text._ZN3ros10SubscriberIN13geometry_msgs5PointEvE9getMsgMD5Ev) refers (Special) to use_no_semi_2.o(.text) for __use_no_semihosting
    lto-llvm-7a7817.o(.ARM.exidx.text._ZN3ros10SubscriberIN13geometry_msgs5PointEvE9getMsgMD5Ev) refers to lto-llvm-7a7817.o(.text._ZN3ros10SubscriberIN13geometry_msgs5PointEvE9getMsgMD5Ev) for [Anonymous Symbol]
    lto-llvm-7a7817.o(.text._Z14callback_servoRKN8std_msgs5UInt8E) refers (Special) to use_no_semi_2.o(.text) for __use_no_semihosting
    lto-llvm-7a7817.o(.text._Z14callback_servoRKN8std_msgs5UInt8E) refers to lto-llvm-7a7817.o(.text.Servo_PutLeft) for Servo_PutLeft
    lto-llvm-7a7817.o(.text._Z14callback_servoRKN8std_msgs5UInt8E) refers to lto-llvm-7a7817.o(.text.Servo_PutMiddle) for Servo_PutMiddle
    lto-llvm-7a7817.o(.text._Z14callback_servoRKN8std_msgs5UInt8E) refers to lto-llvm-7a7817.o(.text.Servo_PutRight) for Servo_PutRight
    lto-llvm-7a7817.o(.text._Z14callback_servoRKN8std_msgs5UInt8E) refers to lto-llvm-7a7817.o(.text.Servo_GrabLeft) for Servo_GrabLeft
    lto-llvm-7a7817.o(.text._Z14callback_servoRKN8std_msgs5UInt8E) refers to lto-llvm-7a7817.o(.text.Servo_GrabMiddle) for Servo_GrabMiddle
    lto-llvm-7a7817.o(.text._Z14callback_servoRKN8std_msgs5UInt8E) refers to lto-llvm-7a7817.o(.text.Servo_GrabRight) for Servo_GrabRight
    lto-llvm-7a7817.o(.text._Z14callback_servoRKN8std_msgs5UInt8E) refers to lto-llvm-7a7817.o(.text.Servo_Grab_Upper) for Servo_Grab_Upper
    lto-llvm-7a7817.o(.text._Z14callback_servoRKN8std_msgs5UInt8E) refers to lto-llvm-7a7817.o(.text.Servo_Grab_Pose_Lower) for Servo_Grab_Pose_Lower
    lto-llvm-7a7817.o(.text._Z14callback_servoRKN8std_msgs5UInt8E) refers to lto-llvm-7a7817.o(.text.Servo_Grab_Pose2_Lower) for Servo_Grab_Pose2_Lower
    lto-llvm-7a7817.o(.text._Z14callback_servoRKN8std_msgs5UInt8E) refers to lto-llvm-7a7817.o(.text.Servo_Grab) for Servo_Grab
    lto-llvm-7a7817.o(.text._Z14callback_servoRKN8std_msgs5UInt8E) refers to lto-llvm-7a7817.o(.text.Servo_Put_Upper) for Servo_Put_Upper
    lto-llvm-7a7817.o(.text._Z14callback_servoRKN8std_msgs5UInt8E) refers to lto-llvm-7a7817.o(.text.Servo_Put_Lower) for Servo_Put_Lower
    lto-llvm-7a7817.o(.text._Z14callback_servoRKN8std_msgs5UInt8E) refers to lto-llvm-7a7817.o(.text.Servo_Camera) for Servo_Camera
    lto-llvm-7a7817.o(.text._Z14callback_servoRKN8std_msgs5UInt8E) refers to lto-llvm-7a7817.o(.text.Servo_TransPos) for Servo_TransPos
    lto-llvm-7a7817.o(.text._Z14callback_servoRKN8std_msgs5UInt8E) refers to lto-llvm-7a7817.o(.text.All_Middle) for All_Middle
    lto-llvm-7a7817.o(.ARM.exidx.text._Z14callback_servoRKN8std_msgs5UInt8E) refers (Special) to use_no_semi_2.o(.text) for __use_no_semihosting
    lto-llvm-7a7817.o(.ARM.exidx.text._Z14callback_servoRKN8std_msgs5UInt8E) refers to lto-llvm-7a7817.o(.text._Z14callback_servoRKN8std_msgs5UInt8E) for [Anonymous Symbol]
    lto-llvm-7a7817.o(.text._ZN3ros10SubscriberIN8std_msgs5UInt8EvEC2EPKcPFvRKS2_Ei) refers (Special) to use_no_semi_2.o(.text) for __use_no_semihosting
    lto-llvm-7a7817.o(.text._ZN3ros10SubscriberIN8std_msgs5UInt8EvEC2EPKcPFvRKS2_Ei) refers to lto-llvm-7a7817.o(.text._ZN3ros11Subscriber_C2Ev) for ros::Subscriber_::Subscriber___sub_object()
    lto-llvm-7a7817.o(.text._ZN3ros10SubscriberIN8std_msgs5UInt8EvEC2EPKcPFvRKS2_Ei) refers to lto-llvm-7a7817.o(.rodata._ZTVN3ros10SubscriberIN8std_msgs5UInt8EvEE) for vtable for ros::Subscriber<std_msgs::UInt8, void>
    lto-llvm-7a7817.o(.text._ZN3ros10SubscriberIN8std_msgs5UInt8EvEC2EPKcPFvRKS2_Ei) refers to lto-llvm-7a7817.o(.text._ZN8std_msgs5UInt8C2Ev) for std_msgs::UInt8::UInt8__sub_object()
    lto-llvm-7a7817.o(.ARM.exidx.text._ZN3ros10SubscriberIN8std_msgs5UInt8EvEC2EPKcPFvRKS2_Ei) refers (Special) to use_no_semi_2.o(.text) for __use_no_semihosting
    lto-llvm-7a7817.o(.ARM.exidx.text._ZN3ros10SubscriberIN8std_msgs5UInt8EvEC2EPKcPFvRKS2_Ei) refers to lto-llvm-7a7817.o(.text._ZN3ros10SubscriberIN8std_msgs5UInt8EvEC2EPKcPFvRKS2_Ei) for [Anonymous Symbol]
    lto-llvm-7a7817.o(.text._ZN8std_msgs5UInt8C2Ev) refers (Special) to use_no_semi_2.o(.text) for __use_no_semihosting
    lto-llvm-7a7817.o(.text._ZN8std_msgs5UInt8C2Ev) refers to lto-llvm-7a7817.o(.text._ZN3ros3MsgC2Ev) for ros::Msg::Msg__sub_object()
    lto-llvm-7a7817.o(.text._ZN8std_msgs5UInt8C2Ev) refers to lto-llvm-7a7817.o(.rodata._ZTVN8std_msgs5UInt8E) for vtable for std_msgs::UInt8
    lto-llvm-7a7817.o(.ARM.exidx.text._ZN8std_msgs5UInt8C2Ev) refers (Special) to use_no_semi_2.o(.text) for __use_no_semihosting
    lto-llvm-7a7817.o(.ARM.exidx.text._ZN8std_msgs5UInt8C2Ev) refers to lto-llvm-7a7817.o(.text._ZN8std_msgs5UInt8C2Ev) for [Anonymous Symbol]
    lto-llvm-7a7817.o(.text._ZNK8std_msgs5UInt89serializeEPh) refers (Special) to use_no_semi_2.o(.text) for __use_no_semihosting
    lto-llvm-7a7817.o(.ARM.exidx.text._ZNK8std_msgs5UInt89serializeEPh) refers (Special) to use_no_semi_2.o(.text) for __use_no_semihosting
    lto-llvm-7a7817.o(.ARM.exidx.text._ZNK8std_msgs5UInt89serializeEPh) refers to lto-llvm-7a7817.o(.text._ZNK8std_msgs5UInt89serializeEPh) for [Anonymous Symbol]
    lto-llvm-7a7817.o(.text._ZN8std_msgs5UInt811deserializeEPh) refers (Special) to use_no_semi_2.o(.text) for __use_no_semihosting
    lto-llvm-7a7817.o(.ARM.exidx.text._ZN8std_msgs5UInt811deserializeEPh) refers (Special) to use_no_semi_2.o(.text) for __use_no_semihosting
    lto-llvm-7a7817.o(.ARM.exidx.text._ZN8std_msgs5UInt811deserializeEPh) refers to lto-llvm-7a7817.o(.text._ZN8std_msgs5UInt811deserializeEPh) for [Anonymous Symbol]
    lto-llvm-7a7817.o(.text._ZN8std_msgs5UInt87getTypeEv) refers (Special) to use_no_semi_2.o(.text) for __use_no_semihosting
    lto-llvm-7a7817.o(.text._ZN8std_msgs5UInt87getTypeEv) refers to lto-llvm-7a7817.o(.rodata.str1.1) for .L.str.27
    lto-llvm-7a7817.o(.ARM.exidx.text._ZN8std_msgs5UInt87getTypeEv) refers (Special) to use_no_semi_2.o(.text) for __use_no_semihosting
    lto-llvm-7a7817.o(.ARM.exidx.text._ZN8std_msgs5UInt87getTypeEv) refers to lto-llvm-7a7817.o(.text._ZN8std_msgs5UInt87getTypeEv) for [Anonymous Symbol]
    lto-llvm-7a7817.o(.text._ZN8std_msgs5UInt86getMD5Ev) refers (Special) to use_no_semi_2.o(.text) for __use_no_semihosting
    lto-llvm-7a7817.o(.text._ZN8std_msgs5UInt86getMD5Ev) refers to lto-llvm-7a7817.o(.rodata.str1.1) for .L.str.28
    lto-llvm-7a7817.o(.ARM.exidx.text._ZN8std_msgs5UInt86getMD5Ev) refers (Special) to use_no_semi_2.o(.text) for __use_no_semihosting
    lto-llvm-7a7817.o(.ARM.exidx.text._ZN8std_msgs5UInt86getMD5Ev) refers to lto-llvm-7a7817.o(.text._ZN8std_msgs5UInt86getMD5Ev) for [Anonymous Symbol]
    lto-llvm-7a7817.o(.text._ZN3ros10SubscriberIN8std_msgs5UInt8EvE8callbackEPh) refers (Special) to use_no_semi_2.o(.text) for __use_no_semihosting
    lto-llvm-7a7817.o(.text._ZN3ros10SubscriberIN8std_msgs5UInt8EvE8callbackEPh) refers to lto-llvm-7a7817.o(.text._ZN8std_msgs5UInt811deserializeEPh) for std_msgs::UInt8::deserialize(unsigned char*)
    lto-llvm-7a7817.o(.ARM.exidx.text._ZN3ros10SubscriberIN8std_msgs5UInt8EvE8callbackEPh) refers (Special) to use_no_semi_2.o(.text) for __use_no_semihosting
    lto-llvm-7a7817.o(.ARM.exidx.text._ZN3ros10SubscriberIN8std_msgs5UInt8EvE8callbackEPh) refers to lto-llvm-7a7817.o(.text._ZN3ros10SubscriberIN8std_msgs5UInt8EvE8callbackEPh) for [Anonymous Symbol]
    lto-llvm-7a7817.o(.text._ZN3ros10SubscriberIN8std_msgs5UInt8EvE15getEndpointTypeEv) refers (Special) to use_no_semi_2.o(.text) for __use_no_semihosting
    lto-llvm-7a7817.o(.ARM.exidx.text._ZN3ros10SubscriberIN8std_msgs5UInt8EvE15getEndpointTypeEv) refers (Special) to use_no_semi_2.o(.text) for __use_no_semihosting
    lto-llvm-7a7817.o(.ARM.exidx.text._ZN3ros10SubscriberIN8std_msgs5UInt8EvE15getEndpointTypeEv) refers to lto-llvm-7a7817.o(.text._ZN3ros10SubscriberIN8std_msgs5UInt8EvE15getEndpointTypeEv) for [Anonymous Symbol]
    lto-llvm-7a7817.o(.text._ZN3ros10SubscriberIN8std_msgs5UInt8EvE10getMsgTypeEv) refers (Special) to use_no_semi_2.o(.text) for __use_no_semihosting
    lto-llvm-7a7817.o(.text._ZN3ros10SubscriberIN8std_msgs5UInt8EvE10getMsgTypeEv) refers to lto-llvm-7a7817.o(.text._ZN8std_msgs5UInt87getTypeEv) for std_msgs::UInt8::getType()
    lto-llvm-7a7817.o(.text._ZN3ros10SubscriberIN8std_msgs5UInt8EvE10getMsgTypeEv) refers to lto-llvm-7a7817.o(.rodata.str1.1) for .L.str.27
    lto-llvm-7a7817.o(.ARM.exidx.text._ZN3ros10SubscriberIN8std_msgs5UInt8EvE10getMsgTypeEv) refers (Special) to use_no_semi_2.o(.text) for __use_no_semihosting
    lto-llvm-7a7817.o(.ARM.exidx.text._ZN3ros10SubscriberIN8std_msgs5UInt8EvE10getMsgTypeEv) refers to lto-llvm-7a7817.o(.text._ZN3ros10SubscriberIN8std_msgs5UInt8EvE10getMsgTypeEv) for [Anonymous Symbol]
    lto-llvm-7a7817.o(.text._ZN3ros10SubscriberIN8std_msgs5UInt8EvE9getMsgMD5Ev) refers (Special) to use_no_semi_2.o(.text) for __use_no_semihosting
    lto-llvm-7a7817.o(.text._ZN3ros10SubscriberIN8std_msgs5UInt8EvE9getMsgMD5Ev) refers to lto-llvm-7a7817.o(.text._ZN8std_msgs5UInt86getMD5Ev) for std_msgs::UInt8::getMD5()
    lto-llvm-7a7817.o(.text._ZN3ros10SubscriberIN8std_msgs5UInt8EvE9getMsgMD5Ev) refers to lto-llvm-7a7817.o(.rodata.str1.1) for .L.str.28
    lto-llvm-7a7817.o(.ARM.exidx.text._ZN3ros10SubscriberIN8std_msgs5UInt8EvE9getMsgMD5Ev) refers (Special) to use_no_semi_2.o(.text) for __use_no_semihosting
    lto-llvm-7a7817.o(.ARM.exidx.text._ZN3ros10SubscriberIN8std_msgs5UInt8EvE9getMsgMD5Ev) refers to lto-llvm-7a7817.o(.text._ZN3ros10SubscriberIN8std_msgs5UInt8EvE9getMsgMD5Ev) for [Anonymous Symbol]
    lto-llvm-7a7817.o(.text._Z13callback_modeRKN8std_msgs5UInt8E) refers (Special) to use_no_semi_2.o(.text) for __use_no_semihosting
    lto-llvm-7a7817.o(.text._Z13callback_modeRKN8std_msgs5UInt8E) refers to lto-llvm-7a7817.o(.data.relative) for relative
    lto-llvm-7a7817.o(.text._Z13callback_modeRKN8std_msgs5UInt8E) refers to lto-llvm-7a7817.o(.bss.Run_Flag) for Run_Flag
    lto-llvm-7a7817.o(.text._Z13callback_modeRKN8std_msgs5UInt8E) refers to lto-llvm-7a7817.o(.bss.Position_B) for Position_B
    lto-llvm-7a7817.o(.text._Z13callback_modeRKN8std_msgs5UInt8E) refers to lto-llvm-7a7817.o(.bss.Position_A) for Position_A
    lto-llvm-7a7817.o(.text._Z13callback_modeRKN8std_msgs5UInt8E) refers to lto-llvm-7a7817.o(.bss.Position_C) for Position_C
    lto-llvm-7a7817.o(.text._Z13callback_modeRKN8std_msgs5UInt8E) refers to lto-llvm-7a7817.o(.bss.Position_D) for Position_D
    lto-llvm-7a7817.o(.text._Z13callback_modeRKN8std_msgs5UInt8E) refers to lto-llvm-7a7817.o(.bss.Last_Target_X) for Last_Target_X
    lto-llvm-7a7817.o(.text._Z13callback_modeRKN8std_msgs5UInt8E) refers to lto-llvm-7a7817.o(.bss.Last_Target_Y) for Last_Target_Y
    lto-llvm-7a7817.o(.text._Z13callback_modeRKN8std_msgs5UInt8E) refers to lto-llvm-7a7817.o(.bss.Last_Target_Z) for Last_Target_Z
    lto-llvm-7a7817.o(.text._Z13callback_modeRKN8std_msgs5UInt8E) refers to lto-llvm-7a7817.o(.bss.Move_X) for Move_X
    lto-llvm-7a7817.o(.text._Z13callback_modeRKN8std_msgs5UInt8E) refers to lto-llvm-7a7817.o(.bss.Move_Y) for Move_Y
    lto-llvm-7a7817.o(.text._Z13callback_modeRKN8std_msgs5UInt8E) refers to lto-llvm-7a7817.o(.bss.Move_Z) for Move_Z
    lto-llvm-7a7817.o(.ARM.exidx.text._Z13callback_modeRKN8std_msgs5UInt8E) refers (Special) to use_no_semi_2.o(.text) for __use_no_semihosting
    lto-llvm-7a7817.o(.ARM.exidx.text._Z13callback_modeRKN8std_msgs5UInt8E) refers to lto-llvm-7a7817.o(.text._Z13callback_modeRKN8std_msgs5UInt8E) for [Anonymous Symbol]
    lto-llvm-7a7817.o(.text._Z19callback_speedlimitRKN8std_msgs7Float64E) refers (Special) to use_no_semi_2.o(.text) for __use_no_semihosting
    lto-llvm-7a7817.o(.text._Z19callback_speedlimitRKN8std_msgs7Float64E) refers to lto-llvm-7a7817.o(.data.RC_Velocity) for RC_Velocity
    lto-llvm-7a7817.o(.ARM.exidx.text._Z19callback_speedlimitRKN8std_msgs7Float64E) refers (Special) to use_no_semi_2.o(.text) for __use_no_semihosting
    lto-llvm-7a7817.o(.ARM.exidx.text._Z19callback_speedlimitRKN8std_msgs7Float64E) refers to lto-llvm-7a7817.o(.text._Z19callback_speedlimitRKN8std_msgs7Float64E) for [Anonymous Symbol]
    lto-llvm-7a7817.o(.text._ZN3ros10SubscriberIN8std_msgs7Float64EvEC2EPKcPFvRKS2_Ei) refers (Special) to use_no_semi_2.o(.text) for __use_no_semihosting
    lto-llvm-7a7817.o(.text._ZN3ros10SubscriberIN8std_msgs7Float64EvEC2EPKcPFvRKS2_Ei) refers to lto-llvm-7a7817.o(.bss.carspeedlimit_sub) for carspeedlimit_sub
    lto-llvm-7a7817.o(.text._ZN3ros10SubscriberIN8std_msgs7Float64EvEC2EPKcPFvRKS2_Ei) refers to lto-llvm-7a7817.o(.rodata.str1.1) for .L.str.5
    lto-llvm-7a7817.o(.text._ZN3ros10SubscriberIN8std_msgs7Float64EvEC2EPKcPFvRKS2_Ei) refers to lto-llvm-7a7817.o(.text._Z19callback_speedlimitRKN8std_msgs7Float64E) for callback_speedlimit(const std_msgs::Float64&)
    lto-llvm-7a7817.o(.text._ZN3ros10SubscriberIN8std_msgs7Float64EvEC2EPKcPFvRKS2_Ei) refers to lto-llvm-7a7817.o(.text._ZN3ros11Subscriber_C2Ev) for ros::Subscriber_::Subscriber___sub_object()
    lto-llvm-7a7817.o(.text._ZN3ros10SubscriberIN8std_msgs7Float64EvEC2EPKcPFvRKS2_Ei) refers to lto-llvm-7a7817.o(.rodata._ZTVN3ros10SubscriberIN8std_msgs7Float64EvEE) for vtable for ros::Subscriber<std_msgs::Float64, void>
    lto-llvm-7a7817.o(.text._ZN3ros10SubscriberIN8std_msgs7Float64EvEC2EPKcPFvRKS2_Ei) refers to lto-llvm-7a7817.o(.text._ZN8std_msgs7Float64C2Ev) for std_msgs::Float64::Float64__sub_object()
    lto-llvm-7a7817.o(.ARM.exidx.text._ZN3ros10SubscriberIN8std_msgs7Float64EvEC2EPKcPFvRKS2_Ei) refers (Special) to use_no_semi_2.o(.text) for __use_no_semihosting
    lto-llvm-7a7817.o(.ARM.exidx.text._ZN3ros10SubscriberIN8std_msgs7Float64EvEC2EPKcPFvRKS2_Ei) refers to lto-llvm-7a7817.o(.text._ZN3ros10SubscriberIN8std_msgs7Float64EvEC2EPKcPFvRKS2_Ei) for [Anonymous Symbol]
    lto-llvm-7a7817.o(.text._ZN8std_msgs7Float64C2Ev) refers (Special) to use_no_semi_2.o(.text) for __use_no_semihosting
    lto-llvm-7a7817.o(.text._ZN8std_msgs7Float64C2Ev) refers to lto-llvm-7a7817.o(.text._ZN3ros3MsgC2Ev) for ros::Msg::Msg__sub_object()
    lto-llvm-7a7817.o(.text._ZN8std_msgs7Float64C2Ev) refers to lto-llvm-7a7817.o(.rodata._ZTVN8std_msgs7Float64E) for vtable for std_msgs::Float64
    lto-llvm-7a7817.o(.ARM.exidx.text._ZN8std_msgs7Float64C2Ev) refers (Special) to use_no_semi_2.o(.text) for __use_no_semihosting
    lto-llvm-7a7817.o(.ARM.exidx.text._ZN8std_msgs7Float64C2Ev) refers to lto-llvm-7a7817.o(.text._ZN8std_msgs7Float64C2Ev) for [Anonymous Symbol]
    lto-llvm-7a7817.o(.text._ZNK8std_msgs7Float649serializeEPh) refers (Special) to use_no_semi_2.o(.text) for __use_no_semihosting
    lto-llvm-7a7817.o(.ARM.exidx.text._ZNK8std_msgs7Float649serializeEPh) refers (Special) to use_no_semi_2.o(.text) for __use_no_semihosting
    lto-llvm-7a7817.o(.ARM.exidx.text._ZNK8std_msgs7Float649serializeEPh) refers to lto-llvm-7a7817.o(.text._ZNK8std_msgs7Float649serializeEPh) for [Anonymous Symbol]
    lto-llvm-7a7817.o(.text._ZN8std_msgs7Float6411deserializeEPh) refers (Special) to use_no_semi_2.o(.text) for __use_no_semihosting
    lto-llvm-7a7817.o(.ARM.exidx.text._ZN8std_msgs7Float6411deserializeEPh) refers (Special) to use_no_semi_2.o(.text) for __use_no_semihosting
    lto-llvm-7a7817.o(.ARM.exidx.text._ZN8std_msgs7Float6411deserializeEPh) refers to lto-llvm-7a7817.o(.text._ZN8std_msgs7Float6411deserializeEPh) for [Anonymous Symbol]
    lto-llvm-7a7817.o(.text._ZN8std_msgs7Float647getTypeEv) refers (Special) to use_no_semi_2.o(.text) for __use_no_semihosting
    lto-llvm-7a7817.o(.text._ZN8std_msgs7Float647getTypeEv) refers to lto-llvm-7a7817.o(.rodata.str1.1) for .L.str.25
    lto-llvm-7a7817.o(.ARM.exidx.text._ZN8std_msgs7Float647getTypeEv) refers (Special) to use_no_semi_2.o(.text) for __use_no_semihosting
    lto-llvm-7a7817.o(.ARM.exidx.text._ZN8std_msgs7Float647getTypeEv) refers to lto-llvm-7a7817.o(.text._ZN8std_msgs7Float647getTypeEv) for [Anonymous Symbol]
    lto-llvm-7a7817.o(.text._ZN8std_msgs7Float646getMD5Ev) refers (Special) to use_no_semi_2.o(.text) for __use_no_semihosting
    lto-llvm-7a7817.o(.text._ZN8std_msgs7Float646getMD5Ev) refers to lto-llvm-7a7817.o(.rodata.str1.1) for .L.str.26
    lto-llvm-7a7817.o(.ARM.exidx.text._ZN8std_msgs7Float646getMD5Ev) refers (Special) to use_no_semi_2.o(.text) for __use_no_semihosting
    lto-llvm-7a7817.o(.ARM.exidx.text._ZN8std_msgs7Float646getMD5Ev) refers to lto-llvm-7a7817.o(.text._ZN8std_msgs7Float646getMD5Ev) for [Anonymous Symbol]
    lto-llvm-7a7817.o(.text._ZN3ros10SubscriberIN8std_msgs7Float64EvE8callbackEPh) refers (Special) to use_no_semi_2.o(.text) for __use_no_semihosting
    lto-llvm-7a7817.o(.text._ZN3ros10SubscriberIN8std_msgs7Float64EvE8callbackEPh) refers to lto-llvm-7a7817.o(.text._ZN8std_msgs7Float6411deserializeEPh) for std_msgs::Float64::deserialize(unsigned char*)
    lto-llvm-7a7817.o(.ARM.exidx.text._ZN3ros10SubscriberIN8std_msgs7Float64EvE8callbackEPh) refers (Special) to use_no_semi_2.o(.text) for __use_no_semihosting
    lto-llvm-7a7817.o(.ARM.exidx.text._ZN3ros10SubscriberIN8std_msgs7Float64EvE8callbackEPh) refers to lto-llvm-7a7817.o(.text._ZN3ros10SubscriberIN8std_msgs7Float64EvE8callbackEPh) for [Anonymous Symbol]
    lto-llvm-7a7817.o(.text._ZN3ros10SubscriberIN8std_msgs7Float64EvE15getEndpointTypeEv) refers (Special) to use_no_semi_2.o(.text) for __use_no_semihosting
    lto-llvm-7a7817.o(.ARM.exidx.text._ZN3ros10SubscriberIN8std_msgs7Float64EvE15getEndpointTypeEv) refers (Special) to use_no_semi_2.o(.text) for __use_no_semihosting
    lto-llvm-7a7817.o(.ARM.exidx.text._ZN3ros10SubscriberIN8std_msgs7Float64EvE15getEndpointTypeEv) refers to lto-llvm-7a7817.o(.text._ZN3ros10SubscriberIN8std_msgs7Float64EvE15getEndpointTypeEv) for [Anonymous Symbol]
    lto-llvm-7a7817.o(.text._ZN3ros10SubscriberIN8std_msgs7Float64EvE10getMsgTypeEv) refers (Special) to use_no_semi_2.o(.text) for __use_no_semihosting
    lto-llvm-7a7817.o(.text._ZN3ros10SubscriberIN8std_msgs7Float64EvE10getMsgTypeEv) refers to lto-llvm-7a7817.o(.text._ZN8std_msgs7Float647getTypeEv) for std_msgs::Float64::getType()
    lto-llvm-7a7817.o(.text._ZN3ros10SubscriberIN8std_msgs7Float64EvE10getMsgTypeEv) refers to lto-llvm-7a7817.o(.rodata.str1.1) for .L.str.25
    lto-llvm-7a7817.o(.ARM.exidx.text._ZN3ros10SubscriberIN8std_msgs7Float64EvE10getMsgTypeEv) refers (Special) to use_no_semi_2.o(.text) for __use_no_semihosting
    lto-llvm-7a7817.o(.ARM.exidx.text._ZN3ros10SubscriberIN8std_msgs7Float64EvE10getMsgTypeEv) refers to lto-llvm-7a7817.o(.text._ZN3ros10SubscriberIN8std_msgs7Float64EvE10getMsgTypeEv) for [Anonymous Symbol]
    lto-llvm-7a7817.o(.text._ZN3ros10SubscriberIN8std_msgs7Float64EvE9getMsgMD5Ev) refers (Special) to use_no_semi_2.o(.text) for __use_no_semihosting
    lto-llvm-7a7817.o(.text._ZN3ros10SubscriberIN8std_msgs7Float64EvE9getMsgMD5Ev) refers to lto-llvm-7a7817.o(.text._ZN8std_msgs7Float646getMD5Ev) for std_msgs::Float64::getMD5()
    lto-llvm-7a7817.o(.text._ZN3ros10SubscriberIN8std_msgs7Float64EvE9getMsgMD5Ev) refers to lto-llvm-7a7817.o(.rodata.str1.1) for .L.str.26
    lto-llvm-7a7817.o(.ARM.exidx.text._ZN3ros10SubscriberIN8std_msgs7Float64EvE9getMsgMD5Ev) refers (Special) to use_no_semi_2.o(.text) for __use_no_semihosting
    lto-llvm-7a7817.o(.ARM.exidx.text._ZN3ros10SubscriberIN8std_msgs7Float64EvE9getMsgMD5Ev) refers to lto-llvm-7a7817.o(.text._ZN3ros10SubscriberIN8std_msgs7Float64EvE9getMsgMD5Ev) for [Anonymous Symbol]
    lto-llvm-7a7817.o(.text._Z14callback_speedRKN13geometry_msgs5PointE) refers (Special) to use_no_semi_2.o(.text) for __use_no_semihosting
    lto-llvm-7a7817.o(.text._Z14callback_speedRKN13geometry_msgs5PointE) refers to lto-llvm-7a7817.o(.bss.Run_Flag) for Run_Flag
    lto-llvm-7a7817.o(.text._Z14callback_speedRKN13geometry_msgs5PointE) refers to lto-llvm-7a7817.o(.bss.Move_X) for Move_X
    lto-llvm-7a7817.o(.text._Z14callback_speedRKN13geometry_msgs5PointE) refers to lto-llvm-7a7817.o(.bss.Move_Y) for Move_Y
    lto-llvm-7a7817.o(.text._Z14callback_speedRKN13geometry_msgs5PointE) refers to lto-llvm-7a7817.o(.bss.Move_Z) for Move_Z
    lto-llvm-7a7817.o(.ARM.exidx.text._Z14callback_speedRKN13geometry_msgs5PointE) refers (Special) to use_no_semi_2.o(.text) for __use_no_semihosting
    lto-llvm-7a7817.o(.ARM.exidx.text._Z14callback_speedRKN13geometry_msgs5PointE) refers to lto-llvm-7a7817.o(.text._Z14callback_speedRKN13geometry_msgs5PointE) for [Anonymous Symbol]
    lto-llvm-7a7817.o(.text._Z12callback_posRKN13geometry_msgs5PointE) refers (Special) to use_no_semi_2.o(.text) for __use_no_semihosting
    lto-llvm-7a7817.o(.text._Z12callback_posRKN13geometry_msgs5PointE) refers to lto-llvm-7a7817.o(.bss.Run_Flag) for Run_Flag
    lto-llvm-7a7817.o(.text._Z12callback_posRKN13geometry_msgs5PointE) refers to lto-llvm-7a7817.o(.data.relative) for relative
    lto-llvm-7a7817.o(.text._Z12callback_posRKN13geometry_msgs5PointE) refers to lto-llvm-7a7817.o(.bss.Position_B) for Position_B
    lto-llvm-7a7817.o(.text._Z12callback_posRKN13geometry_msgs5PointE) refers to lto-llvm-7a7817.o(.bss.Position_A) for Position_A
    lto-llvm-7a7817.o(.text._Z12callback_posRKN13geometry_msgs5PointE) refers to lto-llvm-7a7817.o(.bss.Position_C) for Position_C
    lto-llvm-7a7817.o(.text._Z12callback_posRKN13geometry_msgs5PointE) refers to lto-llvm-7a7817.o(.bss.Position_D) for Position_D
    lto-llvm-7a7817.o(.text._Z12callback_posRKN13geometry_msgs5PointE) refers to lto-llvm-7a7817.o(.bss.Last_Target_X) for Last_Target_X
    lto-llvm-7a7817.o(.text._Z12callback_posRKN13geometry_msgs5PointE) refers to lto-llvm-7a7817.o(.bss.Last_Target_Y) for Last_Target_Y
    lto-llvm-7a7817.o(.text._Z12callback_posRKN13geometry_msgs5PointE) refers to lto-llvm-7a7817.o(.bss.Last_Target_Z) for Last_Target_Z
    lto-llvm-7a7817.o(.text._Z12callback_posRKN13geometry_msgs5PointE) refers to lto-llvm-7a7817.o(.bss.Move_X) for Move_X
    lto-llvm-7a7817.o(.text._Z12callback_posRKN13geometry_msgs5PointE) refers to lto-llvm-7a7817.o(.bss.Move_Y) for Move_Y
    lto-llvm-7a7817.o(.text._Z12callback_posRKN13geometry_msgs5PointE) refers to lto-llvm-7a7817.o(.bss.Move_Z) for Move_Z
    lto-llvm-7a7817.o(.text._Z12callback_posRKN13geometry_msgs5PointE) refers to lto-llvm-7a7817.o(.bss.pending_flag) for pending_flag
    lto-llvm-7a7817.o(.ARM.exidx.text._Z12callback_posRKN13geometry_msgs5PointE) refers (Special) to use_no_semi_2.o(.text) for __use_no_semihosting
    lto-llvm-7a7817.o(.ARM.exidx.text._Z12callback_posRKN13geometry_msgs5PointE) refers to lto-llvm-7a7817.o(.text._Z12callback_posRKN13geometry_msgs5PointE) for [Anonymous Symbol]
    lto-llvm-7a7817.o(.text._ZN3ros11NodeHandle_I13STM32HardwareLi25ELi25ELi512ELi512EEC2Ev) refers (Special) to use_no_semi_2.o(.text) for __use_no_semihosting
    lto-llvm-7a7817.o(.text._ZN3ros11NodeHandle_I13STM32HardwareLi25ELi25ELi512ELi512EEC2Ev) refers to lto-llvm-7a7817.o(.bss.nh) for nh
    lto-llvm-7a7817.o(.text._ZN3ros11NodeHandle_I13STM32HardwareLi25ELi25ELi512ELi512EEC2Ev) refers to lto-llvm-7a7817.o(.text._ZN3ros15NodeHandleBase_C2Ev) for ros::NodeHandleBase_::NodeHandleBase___sub_object()
    lto-llvm-7a7817.o(.text._ZN3ros11NodeHandle_I13STM32HardwareLi25ELi25ELi512ELi512EEC2Ev) refers to lto-llvm-7a7817.o(.rodata._ZTVN3ros11NodeHandle_I13STM32HardwareLi25ELi25ELi512ELi512EEE) for vtable for ros::NodeHandle_<STM32Hardware, (int)25, (int)25, (int)512, (int)512>
    lto-llvm-7a7817.o(.text._ZN3ros11NodeHandle_I13STM32HardwareLi25ELi25ELi512ELi512EEC2Ev) refers to lto-llvm-7a7817.o(.text._ZN13STM32HardwareC2Ev) for STM32Hardware::STM32Hardware__sub_object()
    lto-llvm-7a7817.o(.text._ZN3ros11NodeHandle_I13STM32HardwareLi25ELi25ELi512ELi512EEC2Ev) refers to lto-llvm-7a7817.o(.text._ZN14rosserial_msgs20RequestParamResponseC2Ev) for rosserial_msgs::RequestParamResponse::RequestParamResponse__sub_object()
    lto-llvm-7a7817.o(.ARM.exidx.text._ZN3ros11NodeHandle_I13STM32HardwareLi25ELi25ELi512ELi512EEC2Ev) refers (Special) to use_no_semi_2.o(.text) for __use_no_semihosting
    lto-llvm-7a7817.o(.ARM.exidx.text._ZN3ros11NodeHandle_I13STM32HardwareLi25ELi25ELi512ELi512EEC2Ev) refers to lto-llvm-7a7817.o(.text._ZN3ros11NodeHandle_I13STM32HardwareLi25ELi25ELi512ELi512EEC2Ev) for [Anonymous Symbol]
    lto-llvm-7a7817.o(.text._ZN3ros15NodeHandleBase_C2Ev) refers (Special) to use_no_semi_2.o(.text) for __use_no_semihosting
    lto-llvm-7a7817.o(.text._ZN3ros15NodeHandleBase_C2Ev) refers to lto-llvm-7a7817.o(.rodata._ZTVN3ros15NodeHandleBase_E) for vtable for ros::NodeHandleBase_
    lto-llvm-7a7817.o(.ARM.exidx.text._ZN3ros15NodeHandleBase_C2Ev) refers (Special) to use_no_semi_2.o(.text) for __use_no_semihosting
    lto-llvm-7a7817.o(.ARM.exidx.text._ZN3ros15NodeHandleBase_C2Ev) refers to lto-llvm-7a7817.o(.text._ZN3ros15NodeHandleBase_C2Ev) for [Anonymous Symbol]
    lto-llvm-7a7817.o(.text._ZN13STM32HardwareC2Ev) refers (Special) to use_no_semi_2.o(.text) for __use_no_semihosting
    lto-llvm-7a7817.o(.text._ZN13STM32HardwareC2Ev) refers to lto-llvm-7a7817.o(.bss.huart1) for huart1
    lto-llvm-7a7817.o(.ARM.exidx.text._ZN13STM32HardwareC2Ev) refers (Special) to use_no_semi_2.o(.text) for __use_no_semihosting
    lto-llvm-7a7817.o(.ARM.exidx.text._ZN13STM32HardwareC2Ev) refers to lto-llvm-7a7817.o(.text._ZN13STM32HardwareC2Ev) for [Anonymous Symbol]
    lto-llvm-7a7817.o(.text._ZN14rosserial_msgs20RequestParamResponseC2Ev) refers (Special) to use_no_semi_2.o(.text) for __use_no_semihosting
    lto-llvm-7a7817.o(.text._ZN14rosserial_msgs20RequestParamResponseC2Ev) refers to lto-llvm-7a7817.o(.text._ZN3ros3MsgC2Ev) for ros::Msg::Msg__sub_object()
    lto-llvm-7a7817.o(.text._ZN14rosserial_msgs20RequestParamResponseC2Ev) refers to lto-llvm-7a7817.o(.rodata._ZTVN14rosserial_msgs20RequestParamResponseE) for vtable for rosserial_msgs::RequestParamResponse
    lto-llvm-7a7817.o(.ARM.exidx.text._ZN14rosserial_msgs20RequestParamResponseC2Ev) refers (Special) to use_no_semi_2.o(.text) for __use_no_semihosting
    lto-llvm-7a7817.o(.ARM.exidx.text._ZN14rosserial_msgs20RequestParamResponseC2Ev) refers to lto-llvm-7a7817.o(.text._ZN14rosserial_msgs20RequestParamResponseC2Ev) for [Anonymous Symbol]
    lto-llvm-7a7817.o(.text._ZNK14rosserial_msgs20RequestParamResponse9serializeEPh) refers (Special) to use_no_semi_2.o(.text) for __use_no_semihosting
    lto-llvm-7a7817.o(.text._ZNK14rosserial_msgs20RequestParamResponse9serializeEPh) refers to strlen.o(.text) for strlen
    lto-llvm-7a7817.o(.text._ZNK14rosserial_msgs20RequestParamResponse9serializeEPh) refers to lto-llvm-7a7817.o(.text._ZN3ros3Msg8varToArrIPhjEEvT_T0_) for void ros::Msg::varToArr<unsigned char*, unsigned>(T1, T2)
    lto-llvm-7a7817.o(.text._ZNK14rosserial_msgs20RequestParamResponse9serializeEPh) refers to rt_memcpy_v6.o(.text) for __aeabi_memcpy
    lto-llvm-7a7817.o(.ARM.exidx.text._ZNK14rosserial_msgs20RequestParamResponse9serializeEPh) refers (Special) to use_no_semi_2.o(.text) for __use_no_semihosting
    lto-llvm-7a7817.o(.ARM.exidx.text._ZNK14rosserial_msgs20RequestParamResponse9serializeEPh) refers to lto-llvm-7a7817.o(.text._ZNK14rosserial_msgs20RequestParamResponse9serializeEPh) for [Anonymous Symbol]
    lto-llvm-7a7817.o(.text._ZN14rosserial_msgs20RequestParamResponse11deserializeEPh) refers (Special) to use_no_semi_2.o(.text) for __use_no_semihosting
    lto-llvm-7a7817.o(.text._ZN14rosserial_msgs20RequestParamResponse11deserializeEPh) refers to h1_realloc.o(.text) for realloc
    lto-llvm-7a7817.o(.text._ZN14rosserial_msgs20RequestParamResponse11deserializeEPh) refers to lto-llvm-7a7817.o(.text._ZN3ros3Msg8arrToVarIjPhEEvRT_T0_) for void ros::Msg::arrToVar<unsigned, unsigned char*>(T1&, T2)
    lto-llvm-7a7817.o(.ARM.exidx.text._ZN14rosserial_msgs20RequestParamResponse11deserializeEPh) refers (Special) to use_no_semi_2.o(.text) for __use_no_semihosting
    lto-llvm-7a7817.o(.ARM.exidx.text._ZN14rosserial_msgs20RequestParamResponse11deserializeEPh) refers to lto-llvm-7a7817.o(.text._ZN14rosserial_msgs20RequestParamResponse11deserializeEPh) for [Anonymous Symbol]
    lto-llvm-7a7817.o(.text._ZN14rosserial_msgs20RequestParamResponse7getTypeEv) refers (Special) to use_no_semi_2.o(.text) for __use_no_semihosting
    lto-llvm-7a7817.o(.text._ZN14rosserial_msgs20RequestParamResponse7getTypeEv) refers to lto-llvm-7a7817.o(.rodata._ZN14rosserial_msgsL12REQUESTPARAME) for _ZN14rosserial_msgsL12REQUESTPARAME
    lto-llvm-7a7817.o(.ARM.exidx.text._ZN14rosserial_msgs20RequestParamResponse7getTypeEv) refers (Special) to use_no_semi_2.o(.text) for __use_no_semihosting
    lto-llvm-7a7817.o(.ARM.exidx.text._ZN14rosserial_msgs20RequestParamResponse7getTypeEv) refers to lto-llvm-7a7817.o(.text._ZN14rosserial_msgs20RequestParamResponse7getTypeEv) for [Anonymous Symbol]
    lto-llvm-7a7817.o(.text._ZN14rosserial_msgs20RequestParamResponse6getMD5Ev) refers (Special) to use_no_semi_2.o(.text) for __use_no_semihosting
    lto-llvm-7a7817.o(.text._ZN14rosserial_msgs20RequestParamResponse6getMD5Ev) refers to lto-llvm-7a7817.o(.rodata.str1.1) for .L.str.20
    lto-llvm-7a7817.o(.ARM.exidx.text._ZN14rosserial_msgs20RequestParamResponse6getMD5Ev) refers (Special) to use_no_semi_2.o(.text) for __use_no_semihosting
    lto-llvm-7a7817.o(.ARM.exidx.text._ZN14rosserial_msgs20RequestParamResponse6getMD5Ev) refers to lto-llvm-7a7817.o(.text._ZN14rosserial_msgs20RequestParamResponse6getMD5Ev) for [Anonymous Symbol]
    lto-llvm-7a7817.o(.text._ZN3ros11NodeHandle_I13STM32HardwareLi25ELi25ELi512ELi512EE7publishEiPKNS_3MsgE) refers (Special) to use_no_semi_2.o(.text) for __use_no_semihosting
    lto-llvm-7a7817.o(.text._ZN3ros11NodeHandle_I13STM32HardwareLi25ELi25ELi512ELi512EE7publishEiPKNS_3MsgE) refers to lto-llvm-7a7817.o(.text._ZN13STM32Hardware5writeEPhi) for STM32Hardware::write(unsigned char*, int)
    lto-llvm-7a7817.o(.text._ZN3ros11NodeHandle_I13STM32HardwareLi25ELi25ELi512ELi512EE7publishEiPKNS_3MsgE) refers to lto-llvm-7a7817.o(.text._ZN3ros11NodeHandle_I13STM32HardwareLi25ELi25ELi512ELi512EE8logerrorEPKc) for ros::NodeHandle_<STM32Hardware, (int)25, (int)25, (int)512, (int)512>::logerror(const char*)
    lto-llvm-7a7817.o(.ARM.exidx.text._ZN3ros11NodeHandle_I13STM32HardwareLi25ELi25ELi512ELi512EE7publishEiPKNS_3MsgE) refers (Special) to use_no_semi_2.o(.text) for __use_no_semihosting
    lto-llvm-7a7817.o(.ARM.exidx.text._ZN3ros11NodeHandle_I13STM32HardwareLi25ELi25ELi512ELi512EE7publishEiPKNS_3MsgE) refers to lto-llvm-7a7817.o(.text._ZN3ros11NodeHandle_I13STM32HardwareLi25ELi25ELi512ELi512EE7publishEiPKNS_3MsgE) for [Anonymous Symbol]
    lto-llvm-7a7817.o(.text._ZN3ros11NodeHandle_I13STM32HardwareLi25ELi25ELi512ELi512EE8spinOnceEv) refers (Special) to use_no_semi_2.o(.text) for __use_no_semihosting
    lto-llvm-7a7817.o(.text._ZN3ros11NodeHandle_I13STM32HardwareLi25ELi25ELi512ELi512EE8spinOnceEv) refers to lto-llvm-7a7817.o(.text._ZN13STM32Hardware4timeEv) for STM32Hardware::time()
    lto-llvm-7a7817.o(.text._ZN3ros11NodeHandle_I13STM32HardwareLi25ELi25ELi512ELi512EE8spinOnceEv) refers to lto-llvm-7a7817.o(.text._ZN13STM32Hardware4readEv) for STM32Hardware::read()
    lto-llvm-7a7817.o(.text._ZN3ros11NodeHandle_I13STM32HardwareLi25ELi25ELi512ELi512EE8spinOnceEv) refers to lto-llvm-7a7817.o(.text._ZN3ros11NodeHandle_I13STM32HardwareLi25ELi25ELi512ELi512EE15requestSyncTimeEv) for ros::NodeHandle_<STM32Hardware, (int)25, (int)25, (int)512, (int)512>::requestSyncTime()
    lto-llvm-7a7817.o(.text._ZN3ros11NodeHandle_I13STM32HardwareLi25ELi25ELi512ELi512EE8spinOnceEv) refers to lto-llvm-7a7817.o(.text._ZN3ros11NodeHandle_I13STM32HardwareLi25ELi25ELi512ELi512EE15negotiateTopicsEv) for ros::NodeHandle_<STM32Hardware, (int)25, (int)25, (int)512, (int)512>::negotiateTopics()
    lto-llvm-7a7817.o(.text._ZN3ros11NodeHandle_I13STM32HardwareLi25ELi25ELi512ELi512EE8spinOnceEv) refers to lto-llvm-7a7817.o(.text._ZN3ros11NodeHandle_I13STM32HardwareLi25ELi25ELi512ELi512EE8syncTimeEPh) for ros::NodeHandle_<STM32Hardware, (int)25, (int)25, (int)512, (int)512>::syncTime(unsigned char*)
    lto-llvm-7a7817.o(.text._ZN3ros11NodeHandle_I13STM32HardwareLi25ELi25ELi512ELi512EE8spinOnceEv) refers to lto-llvm-7a7817.o(.text._ZN14rosserial_msgs20RequestParamResponse11deserializeEPh) for rosserial_msgs::RequestParamResponse::deserialize(unsigned char*)
    lto-llvm-7a7817.o(.ARM.exidx.text._ZN3ros11NodeHandle_I13STM32HardwareLi25ELi25ELi512ELi512EE8spinOnceEv) refers (Special) to use_no_semi_2.o(.text) for __use_no_semihosting
    lto-llvm-7a7817.o(.ARM.exidx.text._ZN3ros11NodeHandle_I13STM32HardwareLi25ELi25ELi512ELi512EE8spinOnceEv) refers to lto-llvm-7a7817.o(.text._ZN3ros11NodeHandle_I13STM32HardwareLi25ELi25ELi512ELi512EE8spinOnceEv) for [Anonymous Symbol]
    lto-llvm-7a7817.o(.text._ZN3ros11NodeHandle_I13STM32HardwareLi25ELi25ELi512ELi512EE9connectedEv) refers (Special) to use_no_semi_2.o(.text) for __use_no_semihosting
    lto-llvm-7a7817.o(.ARM.exidx.text._ZN3ros11NodeHandle_I13STM32HardwareLi25ELi25ELi512ELi512EE9connectedEv) refers (Special) to use_no_semi_2.o(.text) for __use_no_semihosting
    lto-llvm-7a7817.o(.ARM.exidx.text._ZN3ros11NodeHandle_I13STM32HardwareLi25ELi25ELi512ELi512EE9connectedEv) refers to lto-llvm-7a7817.o(.text._ZN3ros11NodeHandle_I13STM32HardwareLi25ELi25ELi512ELi512EE9connectedEv) for [Anonymous Symbol]
    lto-llvm-7a7817.o(.text._ZN13STM32Hardware4timeEv) refers (Special) to use_no_semi_2.o(.text) for __use_no_semihosting
    lto-llvm-7a7817.o(.text._ZN13STM32Hardware4timeEv) refers to lto-llvm-7a7817.o(.text.HAL_GetTick) for HAL_GetTick
    lto-llvm-7a7817.o(.ARM.exidx.text._ZN13STM32Hardware4timeEv) refers (Special) to use_no_semi_2.o(.text) for __use_no_semihosting
    lto-llvm-7a7817.o(.ARM.exidx.text._ZN13STM32Hardware4timeEv) refers to lto-llvm-7a7817.o(.text._ZN13STM32Hardware4timeEv) for [Anonymous Symbol]
    lto-llvm-7a7817.o(.text._ZN13STM32Hardware4readEv) refers (Special) to use_no_semi_2.o(.text) for __use_no_semihosting
    lto-llvm-7a7817.o(.text._ZN13STM32Hardware4readEv) refers to lto-llvm-7a7817.o(.text._ZN13STM32Hardware10getRdmaIndEv) for STM32Hardware::getRdmaInd()
    lto-llvm-7a7817.o(.ARM.exidx.text._ZN13STM32Hardware4readEv) refers (Special) to use_no_semi_2.o(.text) for __use_no_semihosting
    lto-llvm-7a7817.o(.ARM.exidx.text._ZN13STM32Hardware4readEv) refers to lto-llvm-7a7817.o(.text._ZN13STM32Hardware4readEv) for [Anonymous Symbol]
    lto-llvm-7a7817.o(.text._ZN3ros11NodeHandle_I13STM32HardwareLi25ELi25ELi512ELi512EE15requestSyncTimeEv) refers (Special) to use_no_semi_2.o(.text) for __use_no_semihosting
    lto-llvm-7a7817.o(.text._ZN3ros11NodeHandle_I13STM32HardwareLi25ELi25ELi512ELi512EE15requestSyncTimeEv) refers to lto-llvm-7a7817.o(.text._ZN8std_msgs4TimeC2Ev) for std_msgs::Time::Time__sub_object()
    lto-llvm-7a7817.o(.text._ZN3ros11NodeHandle_I13STM32HardwareLi25ELi25ELi512ELi512EE15requestSyncTimeEv) refers to lto-llvm-7a7817.o(.text._ZN13STM32Hardware4timeEv) for STM32Hardware::time()
    lto-llvm-7a7817.o(.ARM.exidx.text._ZN3ros11NodeHandle_I13STM32HardwareLi25ELi25ELi512ELi512EE15requestSyncTimeEv) refers (Special) to use_no_semi_2.o(.text) for __use_no_semihosting
    lto-llvm-7a7817.o(.ARM.exidx.text._ZN3ros11NodeHandle_I13STM32HardwareLi25ELi25ELi512ELi512EE15requestSyncTimeEv) refers to lto-llvm-7a7817.o(.text._ZN3ros11NodeHandle_I13STM32HardwareLi25ELi25ELi512ELi512EE15requestSyncTimeEv) for [Anonymous Symbol]
    lto-llvm-7a7817.o(.text._ZN3ros11NodeHandle_I13STM32HardwareLi25ELi25ELi512ELi512EE15negotiateTopicsEv) refers (Special) to use_no_semi_2.o(.text) for __use_no_semihosting
    lto-llvm-7a7817.o(.text._ZN3ros11NodeHandle_I13STM32HardwareLi25ELi25ELi512ELi512EE15negotiateTopicsEv) refers to lto-llvm-7a7817.o(.text._ZN14rosserial_msgs9TopicInfoC2Ev) for rosserial_msgs::TopicInfo::TopicInfo__sub_object()
    lto-llvm-7a7817.o(.text._ZN3ros11NodeHandle_I13STM32HardwareLi25ELi25ELi512ELi512EE15negotiateTopicsEv) refers to lto-llvm-7a7817.o(.text._ZN3ros9Publisher15getEndpointTypeEv) for ros::Publisher::getEndpointType()
    lto-llvm-7a7817.o(.ARM.exidx.text._ZN3ros11NodeHandle_I13STM32HardwareLi25ELi25ELi512ELi512EE15negotiateTopicsEv) refers (Special) to use_no_semi_2.o(.text) for __use_no_semihosting
    lto-llvm-7a7817.o(.ARM.exidx.text._ZN3ros11NodeHandle_I13STM32HardwareLi25ELi25ELi512ELi512EE15negotiateTopicsEv) refers to lto-llvm-7a7817.o(.text._ZN3ros11NodeHandle_I13STM32HardwareLi25ELi25ELi512ELi512EE15negotiateTopicsEv) for [Anonymous Symbol]
    lto-llvm-7a7817.o(.text._ZN3ros11NodeHandle_I13STM32HardwareLi25ELi25ELi512ELi512EE8syncTimeEPh) refers (Special) to use_no_semi_2.o(.text) for __use_no_semihosting
    lto-llvm-7a7817.o(.text._ZN3ros11NodeHandle_I13STM32HardwareLi25ELi25ELi512ELi512EE8syncTimeEPh) refers to lto-llvm-7a7817.o(.text._ZN8std_msgs4TimeC2Ev) for std_msgs::Time::Time__sub_object()
    lto-llvm-7a7817.o(.text._ZN3ros11NodeHandle_I13STM32HardwareLi25ELi25ELi512ELi512EE8syncTimeEPh) refers to lto-llvm-7a7817.o(.text._ZN13STM32Hardware4timeEv) for STM32Hardware::time()
    lto-llvm-7a7817.o(.text._ZN3ros11NodeHandle_I13STM32HardwareLi25ELi25ELi512ELi512EE8syncTimeEPh) refers to lto-llvm-7a7817.o(.text._ZN8std_msgs4Time11deserializeEPh) for std_msgs::Time::deserialize(unsigned char*)
    lto-llvm-7a7817.o(.text._ZN3ros11NodeHandle_I13STM32HardwareLi25ELi25ELi512ELi512EE8syncTimeEPh) refers to lto-llvm-7a7817.o(.text._ZN3ros11NodeHandle_I13STM32HardwareLi25ELi25ELi512ELi512EE6setNowERNS_4TimeE) for ros::NodeHandle_<STM32Hardware, (int)25, (int)25, (int)512, (int)512>::setNow(ros::Time&)
    lto-llvm-7a7817.o(.ARM.exidx.text._ZN3ros11NodeHandle_I13STM32HardwareLi25ELi25ELi512ELi512EE8syncTimeEPh) refers (Special) to use_no_semi_2.o(.text) for __use_no_semihosting
    lto-llvm-7a7817.o(.ARM.exidx.text._ZN3ros11NodeHandle_I13STM32HardwareLi25ELi25ELi512ELi512EE8syncTimeEPh) refers to lto-llvm-7a7817.o(.text._ZN3ros11NodeHandle_I13STM32HardwareLi25ELi25ELi512ELi512EE8syncTimeEPh) for [Anonymous Symbol]
    lto-llvm-7a7817.o(.text._ZN8std_msgs4TimeC2Ev) refers (Special) to use_no_semi_2.o(.text) for __use_no_semihosting
    lto-llvm-7a7817.o(.text._ZN8std_msgs4TimeC2Ev) refers to lto-llvm-7a7817.o(.text._ZN3ros3MsgC2Ev) for ros::Msg::Msg__sub_object()
    lto-llvm-7a7817.o(.text._ZN8std_msgs4TimeC2Ev) refers to lto-llvm-7a7817.o(.rodata._ZTVN8std_msgs4TimeE) for vtable for std_msgs::Time
    lto-llvm-7a7817.o(.text._ZN8std_msgs4TimeC2Ev) refers to lto-llvm-7a7817.o(.text._ZN3ros4TimeC2Ev) for ros::Time::Time__sub_object()
    lto-llvm-7a7817.o(.ARM.exidx.text._ZN8std_msgs4TimeC2Ev) refers (Special) to use_no_semi_2.o(.text) for __use_no_semihosting
    lto-llvm-7a7817.o(.ARM.exidx.text._ZN8std_msgs4TimeC2Ev) refers to lto-llvm-7a7817.o(.text._ZN8std_msgs4TimeC2Ev) for [Anonymous Symbol]
    lto-llvm-7a7817.o(.text._ZN8std_msgs4Time11deserializeEPh) refers (Special) to use_no_semi_2.o(.text) for __use_no_semihosting
    lto-llvm-7a7817.o(.ARM.exidx.text._ZN8std_msgs4Time11deserializeEPh) refers (Special) to use_no_semi_2.o(.text) for __use_no_semihosting
    lto-llvm-7a7817.o(.ARM.exidx.text._ZN8std_msgs4Time11deserializeEPh) refers to lto-llvm-7a7817.o(.text._ZN8std_msgs4Time11deserializeEPh) for [Anonymous Symbol]
    lto-llvm-7a7817.o(.text._ZN3ros11NodeHandle_I13STM32HardwareLi25ELi25ELi512ELi512EE6setNowERNS_4TimeE) refers (Special) to use_no_semi_2.o(.text) for __use_no_semihosting
    lto-llvm-7a7817.o(.text._ZN3ros11NodeHandle_I13STM32HardwareLi25ELi25ELi512ELi512EE6setNowERNS_4TimeE) refers to lto-llvm-7a7817.o(.text._ZN13STM32Hardware4timeEv) for STM32Hardware::time()
    lto-llvm-7a7817.o(.text._ZN3ros11NodeHandle_I13STM32HardwareLi25ELi25ELi512ELi512EE6setNowERNS_4TimeE) refers to lto-llvm-7a7817.o(.text._ZN3ros16normalizeSecNSecERjS0_) for ros::normalizeSecNSec(unsigned&, unsigned&)
    lto-llvm-7a7817.o(.ARM.exidx.text._ZN3ros11NodeHandle_I13STM32HardwareLi25ELi25ELi512ELi512EE6setNowERNS_4TimeE) refers (Special) to use_no_semi_2.o(.text) for __use_no_semihosting
    lto-llvm-7a7817.o(.ARM.exidx.text._ZN3ros11NodeHandle_I13STM32HardwareLi25ELi25ELi512ELi512EE6setNowERNS_4TimeE) refers to lto-llvm-7a7817.o(.text._ZN3ros11NodeHandle_I13STM32HardwareLi25ELi25ELi512ELi512EE6setNowERNS_4TimeE) for [Anonymous Symbol]
    lto-llvm-7a7817.o(.text._ZN3ros4TimeC2Ev) refers (Special) to use_no_semi_2.o(.text) for __use_no_semihosting
    lto-llvm-7a7817.o(.ARM.exidx.text._ZN3ros4TimeC2Ev) refers (Special) to use_no_semi_2.o(.text) for __use_no_semihosting
    lto-llvm-7a7817.o(.ARM.exidx.text._ZN3ros4TimeC2Ev) refers to lto-llvm-7a7817.o(.text._ZN3ros4TimeC2Ev) for [Anonymous Symbol]
    lto-llvm-7a7817.o(.text._ZNK8std_msgs4Time9serializeEPh) refers (Special) to use_no_semi_2.o(.text) for __use_no_semihosting
    lto-llvm-7a7817.o(.ARM.exidx.text._ZNK8std_msgs4Time9serializeEPh) refers (Special) to use_no_semi_2.o(.text) for __use_no_semihosting
    lto-llvm-7a7817.o(.ARM.exidx.text._ZNK8std_msgs4Time9serializeEPh) refers to lto-llvm-7a7817.o(.text._ZNK8std_msgs4Time9serializeEPh) for [Anonymous Symbol]
    lto-llvm-7a7817.o(.text._ZN8std_msgs4Time7getTypeEv) refers (Special) to use_no_semi_2.o(.text) for __use_no_semihosting
    lto-llvm-7a7817.o(.text._ZN8std_msgs4Time7getTypeEv) refers to lto-llvm-7a7817.o(.rodata.str1.1) for .L.str.31
    lto-llvm-7a7817.o(.ARM.exidx.text._ZN8std_msgs4Time7getTypeEv) refers (Special) to use_no_semi_2.o(.text) for __use_no_semihosting
    lto-llvm-7a7817.o(.ARM.exidx.text._ZN8std_msgs4Time7getTypeEv) refers to lto-llvm-7a7817.o(.text._ZN8std_msgs4Time7getTypeEv) for [Anonymous Symbol]
    lto-llvm-7a7817.o(.text._ZN8std_msgs4Time6getMD5Ev) refers (Special) to use_no_semi_2.o(.text) for __use_no_semihosting
    lto-llvm-7a7817.o(.text._ZN8std_msgs4Time6getMD5Ev) refers to lto-llvm-7a7817.o(.rodata.str1.1) for .L.str.32
    lto-llvm-7a7817.o(.ARM.exidx.text._ZN8std_msgs4Time6getMD5Ev) refers (Special) to use_no_semi_2.o(.text) for __use_no_semihosting
    lto-llvm-7a7817.o(.ARM.exidx.text._ZN8std_msgs4Time6getMD5Ev) refers to lto-llvm-7a7817.o(.text._ZN8std_msgs4Time6getMD5Ev) for [Anonymous Symbol]
    lto-llvm-7a7817.o(.text._ZN14rosserial_msgs9TopicInfoC2Ev) refers (Special) to use_no_semi_2.o(.text) for __use_no_semihosting
    lto-llvm-7a7817.o(.text._ZN14rosserial_msgs9TopicInfoC2Ev) refers to lto-llvm-7a7817.o(.text._ZN3ros3MsgC2Ev) for ros::Msg::Msg__sub_object()
    lto-llvm-7a7817.o(.text._ZN14rosserial_msgs9TopicInfoC2Ev) refers to lto-llvm-7a7817.o(.rodata._ZTVN14rosserial_msgs9TopicInfoE) for vtable for rosserial_msgs::TopicInfo
    lto-llvm-7a7817.o(.text._ZN14rosserial_msgs9TopicInfoC2Ev) refers to lto-llvm-7a7817.o(.rodata.str1.1) for .L.str.22
    lto-llvm-7a7817.o(.ARM.exidx.text._ZN14rosserial_msgs9TopicInfoC2Ev) refers (Special) to use_no_semi_2.o(.text) for __use_no_semihosting
    lto-llvm-7a7817.o(.ARM.exidx.text._ZN14rosserial_msgs9TopicInfoC2Ev) refers to lto-llvm-7a7817.o(.text._ZN14rosserial_msgs9TopicInfoC2Ev) for [Anonymous Symbol]
    lto-llvm-7a7817.o(.text._ZN3ros9Publisher15getEndpointTypeEv) refers (Special) to use_no_semi_2.o(.text) for __use_no_semihosting
    lto-llvm-7a7817.o(.ARM.exidx.text._ZN3ros9Publisher15getEndpointTypeEv) refers (Special) to use_no_semi_2.o(.text) for __use_no_semihosting
    lto-llvm-7a7817.o(.ARM.exidx.text._ZN3ros9Publisher15getEndpointTypeEv) refers to lto-llvm-7a7817.o(.text._ZN3ros9Publisher15getEndpointTypeEv) for [Anonymous Symbol]
    lto-llvm-7a7817.o(.text._ZNK14rosserial_msgs9TopicInfo9serializeEPh) refers (Special) to use_no_semi_2.o(.text) for __use_no_semihosting
    lto-llvm-7a7817.o(.text._ZNK14rosserial_msgs9TopicInfo9serializeEPh) refers to strlen.o(.text) for strlen
    lto-llvm-7a7817.o(.text._ZNK14rosserial_msgs9TopicInfo9serializeEPh) refers to lto-llvm-7a7817.o(.text._ZN3ros3Msg8varToArrIPhjEEvT_T0_) for void ros::Msg::varToArr<unsigned char*, unsigned>(T1, T2)
    lto-llvm-7a7817.o(.text._ZNK14rosserial_msgs9TopicInfo9serializeEPh) refers to rt_memcpy_v6.o(.text) for __aeabi_memcpy
    lto-llvm-7a7817.o(.ARM.exidx.text._ZNK14rosserial_msgs9TopicInfo9serializeEPh) refers (Special) to use_no_semi_2.o(.text) for __use_no_semihosting
    lto-llvm-7a7817.o(.ARM.exidx.text._ZNK14rosserial_msgs9TopicInfo9serializeEPh) refers to lto-llvm-7a7817.o(.text._ZNK14rosserial_msgs9TopicInfo9serializeEPh) for [Anonymous Symbol]
    lto-llvm-7a7817.o(.text._ZN14rosserial_msgs9TopicInfo11deserializeEPh) refers (Special) to use_no_semi_2.o(.text) for __use_no_semihosting
    lto-llvm-7a7817.o(.text._ZN14rosserial_msgs9TopicInfo11deserializeEPh) refers to lto-llvm-7a7817.o(.text._ZN3ros3Msg8arrToVarIjPhEEvRT_T0_) for void ros::Msg::arrToVar<unsigned, unsigned char*>(T1&, T2)
    lto-llvm-7a7817.o(.ARM.exidx.text._ZN14rosserial_msgs9TopicInfo11deserializeEPh) refers (Special) to use_no_semi_2.o(.text) for __use_no_semihosting
    lto-llvm-7a7817.o(.ARM.exidx.text._ZN14rosserial_msgs9TopicInfo11deserializeEPh) refers to lto-llvm-7a7817.o(.text._ZN14rosserial_msgs9TopicInfo11deserializeEPh) for [Anonymous Symbol]
    lto-llvm-7a7817.o(.text._ZN14rosserial_msgs9TopicInfo7getTypeEv) refers (Special) to use_no_semi_2.o(.text) for __use_no_semihosting
    lto-llvm-7a7817.o(.text._ZN14rosserial_msgs9TopicInfo7getTypeEv) refers to lto-llvm-7a7817.o(.rodata.str1.1) for .L.str.33
    lto-llvm-7a7817.o(.ARM.exidx.text._ZN14rosserial_msgs9TopicInfo7getTypeEv) refers (Special) to use_no_semi_2.o(.text) for __use_no_semihosting
    lto-llvm-7a7817.o(.ARM.exidx.text._ZN14rosserial_msgs9TopicInfo7getTypeEv) refers to lto-llvm-7a7817.o(.text._ZN14rosserial_msgs9TopicInfo7getTypeEv) for [Anonymous Symbol]
    lto-llvm-7a7817.o(.text._ZN14rosserial_msgs9TopicInfo6getMD5Ev) refers (Special) to use_no_semi_2.o(.text) for __use_no_semihosting
    lto-llvm-7a7817.o(.text._ZN14rosserial_msgs9TopicInfo6getMD5Ev) refers to lto-llvm-7a7817.o(.rodata.str1.1) for .L.str.34
    lto-llvm-7a7817.o(.ARM.exidx.text._ZN14rosserial_msgs9TopicInfo6getMD5Ev) refers (Special) to use_no_semi_2.o(.text) for __use_no_semihosting
    lto-llvm-7a7817.o(.ARM.exidx.text._ZN14rosserial_msgs9TopicInfo6getMD5Ev) refers to lto-llvm-7a7817.o(.text._ZN14rosserial_msgs9TopicInfo6getMD5Ev) for [Anonymous Symbol]
    lto-llvm-7a7817.o(.text._ZN13STM32Hardware10getRdmaIndEv) refers (Special) to use_no_semi_2.o(.text) for __use_no_semihosting
    lto-llvm-7a7817.o(.ARM.exidx.text._ZN13STM32Hardware10getRdmaIndEv) refers (Special) to use_no_semi_2.o(.text) for __use_no_semihosting
    lto-llvm-7a7817.o(.ARM.exidx.text._ZN13STM32Hardware10getRdmaIndEv) refers to lto-llvm-7a7817.o(.text._ZN13STM32Hardware10getRdmaIndEv) for [Anonymous Symbol]
    lto-llvm-7a7817.o(.text._ZN13STM32Hardware5writeEPhi) refers (Special) to use_no_semi_2.o(.text) for __use_no_semihosting
    lto-llvm-7a7817.o(.text._ZN13STM32Hardware5writeEPhi) refers to rt_memcpy_v6.o(.text) for __aeabi_memcpy
    lto-llvm-7a7817.o(.text._ZN13STM32Hardware5writeEPhi) refers to lto-llvm-7a7817.o(.text._ZN13STM32Hardware5flushEv) for STM32Hardware::flush()
    lto-llvm-7a7817.o(.ARM.exidx.text._ZN13STM32Hardware5writeEPhi) refers (Special) to use_no_semi_2.o(.text) for __use_no_semihosting
    lto-llvm-7a7817.o(.ARM.exidx.text._ZN13STM32Hardware5writeEPhi) refers to lto-llvm-7a7817.o(.text._ZN13STM32Hardware5writeEPhi) for [Anonymous Symbol]
    lto-llvm-7a7817.o(.text._ZN3ros11NodeHandle_I13STM32HardwareLi25ELi25ELi512ELi512EE8logerrorEPKc) refers (Special) to use_no_semi_2.o(.text) for __use_no_semihosting
    lto-llvm-7a7817.o(.text._ZN3ros11NodeHandle_I13STM32HardwareLi25ELi25ELi512ELi512EE8logerrorEPKc) refers to lto-llvm-7a7817.o(.rodata.str1.1) for .L.str.21
    lto-llvm-7a7817.o(.text._ZN3ros11NodeHandle_I13STM32HardwareLi25ELi25ELi512ELi512EE8logerrorEPKc) refers to lto-llvm-7a7817.o(.text._ZN3ros11NodeHandle_I13STM32HardwareLi25ELi25ELi512ELi512EE3logEcPKc) for ros::NodeHandle_<STM32Hardware, (int)25, (int)25, (int)512, (int)512>::log(char, const char*)
    lto-llvm-7a7817.o(.ARM.exidx.text._ZN3ros11NodeHandle_I13STM32HardwareLi25ELi25ELi512ELi512EE8logerrorEPKc) refers (Special) to use_no_semi_2.o(.text) for __use_no_semihosting
    lto-llvm-7a7817.o(.ARM.exidx.text._ZN3ros11NodeHandle_I13STM32HardwareLi25ELi25ELi512ELi512EE8logerrorEPKc) refers to lto-llvm-7a7817.o(.text._ZN3ros11NodeHandle_I13STM32HardwareLi25ELi25ELi512ELi512EE8logerrorEPKc) for [Anonymous Symbol]
    lto-llvm-7a7817.o(.text._ZN3ros11NodeHandle_I13STM32HardwareLi25ELi25ELi512ELi512EE3logEcPKc) refers (Special) to use_no_semi_2.o(.text) for __use_no_semihosting
    lto-llvm-7a7817.o(.text._ZN3ros11NodeHandle_I13STM32HardwareLi25ELi25ELi512ELi512EE3logEcPKc) refers to lto-llvm-7a7817.o(.text._ZN14rosserial_msgs3LogC2Ev) for rosserial_msgs::Log::Log__sub_object()
    lto-llvm-7a7817.o(.ARM.exidx.text._ZN3ros11NodeHandle_I13STM32HardwareLi25ELi25ELi512ELi512EE3logEcPKc) refers (Special) to use_no_semi_2.o(.text) for __use_no_semihosting
    lto-llvm-7a7817.o(.ARM.exidx.text._ZN3ros11NodeHandle_I13STM32HardwareLi25ELi25ELi512ELi512EE3logEcPKc) refers to lto-llvm-7a7817.o(.text._ZN3ros11NodeHandle_I13STM32HardwareLi25ELi25ELi512ELi512EE3logEcPKc) for [Anonymous Symbol]
    lto-llvm-7a7817.o(.text._ZN14rosserial_msgs3LogC2Ev) refers (Special) to use_no_semi_2.o(.text) for __use_no_semihosting
    lto-llvm-7a7817.o(.text._ZN14rosserial_msgs3LogC2Ev) refers to lto-llvm-7a7817.o(.text._ZN3ros3MsgC2Ev) for ros::Msg::Msg__sub_object()
    lto-llvm-7a7817.o(.text._ZN14rosserial_msgs3LogC2Ev) refers to lto-llvm-7a7817.o(.rodata._ZTVN14rosserial_msgs3LogE) for vtable for rosserial_msgs::Log
    lto-llvm-7a7817.o(.text._ZN14rosserial_msgs3LogC2Ev) refers to lto-llvm-7a7817.o(.rodata.str1.1) for .L.str.22
    lto-llvm-7a7817.o(.ARM.exidx.text._ZN14rosserial_msgs3LogC2Ev) refers (Special) to use_no_semi_2.o(.text) for __use_no_semihosting
    lto-llvm-7a7817.o(.ARM.exidx.text._ZN14rosserial_msgs3LogC2Ev) refers to lto-llvm-7a7817.o(.text._ZN14rosserial_msgs3LogC2Ev) for [Anonymous Symbol]
    lto-llvm-7a7817.o(.text._ZNK14rosserial_msgs3Log9serializeEPh) refers (Special) to use_no_semi_2.o(.text) for __use_no_semihosting
    lto-llvm-7a7817.o(.text._ZNK14rosserial_msgs3Log9serializeEPh) refers to strlen.o(.text) for strlen
    lto-llvm-7a7817.o(.text._ZNK14rosserial_msgs3Log9serializeEPh) refers to lto-llvm-7a7817.o(.text._ZN3ros3Msg8varToArrIPhjEEvT_T0_) for void ros::Msg::varToArr<unsigned char*, unsigned>(T1, T2)
    lto-llvm-7a7817.o(.text._ZNK14rosserial_msgs3Log9serializeEPh) refers to rt_memcpy_v6.o(.text) for __aeabi_memcpy
    lto-llvm-7a7817.o(.ARM.exidx.text._ZNK14rosserial_msgs3Log9serializeEPh) refers (Special) to use_no_semi_2.o(.text) for __use_no_semihosting
    lto-llvm-7a7817.o(.ARM.exidx.text._ZNK14rosserial_msgs3Log9serializeEPh) refers to lto-llvm-7a7817.o(.text._ZNK14rosserial_msgs3Log9serializeEPh) for [Anonymous Symbol]
    lto-llvm-7a7817.o(.text._ZN14rosserial_msgs3Log11deserializeEPh) refers (Special) to use_no_semi_2.o(.text) for __use_no_semihosting
    lto-llvm-7a7817.o(.text._ZN14rosserial_msgs3Log11deserializeEPh) refers to lto-llvm-7a7817.o(.text._ZN3ros3Msg8arrToVarIjPhEEvRT_T0_) for void ros::Msg::arrToVar<unsigned, unsigned char*>(T1&, T2)
    lto-llvm-7a7817.o(.ARM.exidx.text._ZN14rosserial_msgs3Log11deserializeEPh) refers (Special) to use_no_semi_2.o(.text) for __use_no_semihosting
    lto-llvm-7a7817.o(.ARM.exidx.text._ZN14rosserial_msgs3Log11deserializeEPh) refers to lto-llvm-7a7817.o(.text._ZN14rosserial_msgs3Log11deserializeEPh) for [Anonymous Symbol]
    lto-llvm-7a7817.o(.text._ZN14rosserial_msgs3Log7getTypeEv) refers (Special) to use_no_semi_2.o(.text) for __use_no_semihosting
    lto-llvm-7a7817.o(.text._ZN14rosserial_msgs3Log7getTypeEv) refers to lto-llvm-7a7817.o(.rodata.str1.1) for .L.str.23
    lto-llvm-7a7817.o(.ARM.exidx.text._ZN14rosserial_msgs3Log7getTypeEv) refers (Special) to use_no_semi_2.o(.text) for __use_no_semihosting
    lto-llvm-7a7817.o(.ARM.exidx.text._ZN14rosserial_msgs3Log7getTypeEv) refers to lto-llvm-7a7817.o(.text._ZN14rosserial_msgs3Log7getTypeEv) for [Anonymous Symbol]
    lto-llvm-7a7817.o(.text._ZN14rosserial_msgs3Log6getMD5Ev) refers (Special) to use_no_semi_2.o(.text) for __use_no_semihosting
    lto-llvm-7a7817.o(.text._ZN14rosserial_msgs3Log6getMD5Ev) refers to lto-llvm-7a7817.o(.rodata.str1.1) for .L.str.24
    lto-llvm-7a7817.o(.ARM.exidx.text._ZN14rosserial_msgs3Log6getMD5Ev) refers (Special) to use_no_semi_2.o(.text) for __use_no_semihosting
    lto-llvm-7a7817.o(.ARM.exidx.text._ZN14rosserial_msgs3Log6getMD5Ev) refers to lto-llvm-7a7817.o(.text._ZN14rosserial_msgs3Log6getMD5Ev) for [Anonymous Symbol]
    lto-llvm-7a7817.o(.text._ZN13STM32Hardware5flushEv) refers (Special) to use_no_semi_2.o(.text) for __use_no_semihosting
    lto-llvm-7a7817.o(.text._ZN13STM32Hardware5flushEv) refers to lto-llvm-7a7817.o(.bss._ZZN13STM32Hardware5flushEvE5mutex) for STM32Hardware::flush()::mutex
    lto-llvm-7a7817.o(.text._ZN13STM32Hardware5flushEv) refers to lto-llvm-7a7817.o(.text.HAL_UART_Transmit_DMA) for HAL_UART_Transmit_DMA
    lto-llvm-7a7817.o(.ARM.exidx.text._ZN13STM32Hardware5flushEv) refers (Special) to use_no_semi_2.o(.text) for __use_no_semihosting
    lto-llvm-7a7817.o(.ARM.exidx.text._ZN13STM32Hardware5flushEv) refers to lto-llvm-7a7817.o(.text._ZN13STM32Hardware5flushEv) for [Anonymous Symbol]
    lto-llvm-7a7817.o(.text.HAL_UART_TxCpltCallback) refers (Special) to use_no_semi_2.o(.text) for __use_no_semihosting
    lto-llvm-7a7817.o(.text.HAL_UART_TxCpltCallback) refers to lto-llvm-7a7817.o(.text._ZN3ros11NodeHandle_I13STM32HardwareLi25ELi25ELi512ELi512EE11getHardwareEv) for ros::NodeHandle_<STM32Hardware, (int)25, (int)25, (int)512, (int)512>::getHardware()
    lto-llvm-7a7817.o(.text.HAL_UART_TxCpltCallback) refers to lto-llvm-7a7817.o(.text._ZN13STM32Hardware5flushEv) for STM32Hardware::flush()
    lto-llvm-7a7817.o(.ARM.exidx.text.HAL_UART_TxCpltCallback) refers (Special) to use_no_semi_2.o(.text) for __use_no_semihosting
    lto-llvm-7a7817.o(.ARM.exidx.text.HAL_UART_TxCpltCallback) refers to lto-llvm-7a7817.o(.text.HAL_UART_TxCpltCallback) for [Anonymous Symbol]
    lto-llvm-7a7817.o(.text._ZN3ros11NodeHandle_I13STM32HardwareLi25ELi25ELi512ELi512EE11getHardwareEv) refers (Special) to use_no_semi_2.o(.text) for __use_no_semihosting
    lto-llvm-7a7817.o(.text._ZN3ros11NodeHandle_I13STM32HardwareLi25ELi25ELi512ELi512EE11getHardwareEv) refers to lto-llvm-7a7817.o(.bss.nh) for nh
    lto-llvm-7a7817.o(.ARM.exidx.text._ZN3ros11NodeHandle_I13STM32HardwareLi25ELi25ELi512ELi512EE11getHardwareEv) refers (Special) to use_no_semi_2.o(.text) for __use_no_semihosting
    lto-llvm-7a7817.o(.ARM.exidx.text._ZN3ros11NodeHandle_I13STM32HardwareLi25ELi25ELi512ELi512EE11getHardwareEv) refers to lto-llvm-7a7817.o(.text._ZN3ros11NodeHandle_I13STM32HardwareLi25ELi25ELi512ELi512EE11getHardwareEv) for [Anonymous Symbol]
    lto-llvm-7a7817.o(.text.HAL_UART_RxCpltCallback) refers (Special) to use_no_semi_2.o(.text) for __use_no_semihosting
    lto-llvm-7a7817.o(.text.HAL_UART_RxCpltCallback) refers to lto-llvm-7a7817.o(.text._ZN3ros11NodeHandle_I13STM32HardwareLi25ELi25ELi512ELi512EE11getHardwareEv) for ros::NodeHandle_<STM32Hardware, (int)25, (int)25, (int)512, (int)512>::getHardware()
    lto-llvm-7a7817.o(.text.HAL_UART_RxCpltCallback) refers to lto-llvm-7a7817.o(.text._ZN13STM32Hardware10reset_rbufEv) for STM32Hardware::reset_rbuf()
    lto-llvm-7a7817.o(.ARM.exidx.text.HAL_UART_RxCpltCallback) refers (Special) to use_no_semi_2.o(.text) for __use_no_semihosting
    lto-llvm-7a7817.o(.ARM.exidx.text.HAL_UART_RxCpltCallback) refers to lto-llvm-7a7817.o(.text.HAL_UART_RxCpltCallback) for [Anonymous Symbol]
    lto-llvm-7a7817.o(.text._ZN13STM32Hardware10reset_rbufEv) refers (Special) to use_no_semi_2.o(.text) for __use_no_semihosting
    lto-llvm-7a7817.o(.text._ZN13STM32Hardware10reset_rbufEv) refers to lto-llvm-7a7817.o(.text.HAL_UART_Receive_DMA) for HAL_UART_Receive_DMA
    lto-llvm-7a7817.o(.ARM.exidx.text._ZN13STM32Hardware10reset_rbufEv) refers (Special) to use_no_semi_2.o(.text) for __use_no_semihosting
    lto-llvm-7a7817.o(.ARM.exidx.text._ZN13STM32Hardware10reset_rbufEv) refers to lto-llvm-7a7817.o(.text._ZN13STM32Hardware10reset_rbufEv) for [Anonymous Symbol]
    lto-llvm-7a7817.o(.text.setup) refers (Special) to use_no_semi_2.o(.text) for __use_no_semihosting
    lto-llvm-7a7817.o(.text.setup) refers to lto-llvm-7a7817.o(.text._ZN3ros11NodeHandle_I13STM32HardwareLi25ELi25ELi512ELi512EE8initNodeEv) for ros::NodeHandle_<STM32Hardware, (int)25, (int)25, (int)512, (int)512>::initNode()
    lto-llvm-7a7817.o(.text.setup) refers to lto-llvm-7a7817.o(.bss.carspeed_sub) for carspeed_sub
    lto-llvm-7a7817.o(.text.setup) refers to lto-llvm-7a7817.o(.text._ZN3ros11NodeHandle_I13STM32HardwareLi25ELi25ELi512ELi512EE9subscribeINS_10SubscriberIN13geometry_msgs5PointEvEEEEbRT_) for bool ros::NodeHandle_<STM32Hardware, (int)25, (int)25, (int)512, (int)512>::subscribe<ros::Subscriber<geometry_msgs::Point, void>>(T1&)
    lto-llvm-7a7817.o(.text.setup) refers to lto-llvm-7a7817.o(.bss.carpos_sub) for carpos_sub
    lto-llvm-7a7817.o(.text.setup) refers to lto-llvm-7a7817.o(.text._ZN3ros11NodeHandle_I13STM32HardwareLi25ELi25ELi512ELi512EE9subscribeINS_10SubscriberIN8std_msgs7Float64EvEEEEbRT_) for bool ros::NodeHandle_<STM32Hardware, (int)25, (int)25, (int)512, (int)512>::subscribe<ros::Subscriber<std_msgs::Float64, void>>(T1&)
    lto-llvm-7a7817.o(.text.setup) refers to lto-llvm-7a7817.o(.bss.carmode_sub) for carmode_sub
    lto-llvm-7a7817.o(.text.setup) refers to lto-llvm-7a7817.o(.text._ZN3ros11NodeHandle_I13STM32HardwareLi25ELi25ELi512ELi512EE9subscribeINS_10SubscriberIN8std_msgs5UInt8EvEEEEbRT_) for bool ros::NodeHandle_<STM32Hardware, (int)25, (int)25, (int)512, (int)512>::subscribe<ros::Subscriber<std_msgs::UInt8, void>>(T1&)
    lto-llvm-7a7817.o(.text.setup) refers to lto-llvm-7a7817.o(.bss.servo_sub) for servo_sub
    lto-llvm-7a7817.o(.text.setup) refers to lto-llvm-7a7817.o(.text._ZN3ros11NodeHandle_I13STM32HardwareLi25ELi25ELi512ELi512EE9advertiseERNS_9PublisherE) for ros::NodeHandle_<STM32Hardware, (int)25, (int)25, (int)512, (int)512>::advertise(ros::Publisher&)
    lto-llvm-7a7817.o(.text.setup) refers to lto-llvm-7a7817.o(.text._ZN3ros11NodeHandle_I13STM32HardwareLi25ELi25ELi512ELi512EE9subscribeINS_10SubscriberIN8std_msgs6StringEvEEEEbRT_) for bool ros::NodeHandle_<STM32Hardware, (int)25, (int)25, (int)512, (int)512>::subscribe<ros::Subscriber<std_msgs::String, void>>(T1&)
    lto-llvm-7a7817.o(.text.setup) refers to lto-llvm-7a7817.o(.bss.xy_sub) for xy_sub
    lto-llvm-7a7817.o(.text.setup) refers to lto-llvm-7a7817.o(.text.set_stepper) for set_stepper
    lto-llvm-7a7817.o(.text.setup) refers to lto-llvm-7a7817.o(.text.Servo_Add_Action) for Servo_Add_Action
    lto-llvm-7a7817.o(.text.setup) refers to lto-llvm-7a7817.o(.text.Servo_TransPos) for Servo_TransPos
    lto-llvm-7a7817.o(.text.setup) refers to lto-llvm-7a7817.o(.rodata.str1.1) for .L.str.17
    lto-llvm-7a7817.o(.text.setup) refers to lto-llvm-7a7817.o(.text._ZNSt3__111char_traitsIcE6lengthEPKc) for std::__1::char_traits<char>::length(const char*)
    lto-llvm-7a7817.o(.text.setup) refers to string.cpp.o(.text._ZNSt3__112basic_stringIcNS_11char_traitsIcEENS_9allocatorIcEEE6__initEPKcj) for std::__1::basic_string<char, std::__1::char_traits<char>, std::__1::allocator<char>>::__init(const char*, unsigned)
    lto-llvm-7a7817.o(.text.setup) refers to lto-llvm-7a7817.o(.text._Z18Screen_printStringNSt3__112basic_stringIcNS_11char_traitsIcEENS_9allocatorIcEEEE) for Screen_printString(std::__1::basic_string<char, std::__1::char_traits<char>, std::__1::allocator<char>>)
    lto-llvm-7a7817.o(.text.setup) refers to string.cpp.o(.text._ZNSt3__112basic_stringIcNS_11char_traitsIcEENS_9allocatorIcEEED2Ev) for std::__1::basic_string<char, std::__1::char_traits<char>, std::__1::allocator<char>>::~basic_string()
    lto-llvm-7a7817.o(.ARM.exidx.text.setup) refers (Special) to use_no_semi_2.o(.text) for __use_no_semihosting
    lto-llvm-7a7817.o(.ARM.exidx.text.setup) refers to lto-llvm-7a7817.o(.text.setup) for [Anonymous Symbol]
    lto-llvm-7a7817.o(.text._ZN3ros11NodeHandle_I13STM32HardwareLi25ELi25ELi512ELi512EE8initNodeEv) refers (Special) to use_no_semi_2.o(.text) for __use_no_semihosting
    lto-llvm-7a7817.o(.text._ZN3ros11NodeHandle_I13STM32HardwareLi25ELi25ELi512ELi512EE8initNodeEv) refers to lto-llvm-7a7817.o(.bss.nh) for nh
    lto-llvm-7a7817.o(.text._ZN3ros11NodeHandle_I13STM32HardwareLi25ELi25ELi512ELi512EE8initNodeEv) refers to lto-llvm-7a7817.o(.text._ZN13STM32Hardware4initEv) for STM32Hardware::init()
    lto-llvm-7a7817.o(.ARM.exidx.text._ZN3ros11NodeHandle_I13STM32HardwareLi25ELi25ELi512ELi512EE8initNodeEv) refers (Special) to use_no_semi_2.o(.text) for __use_no_semihosting
    lto-llvm-7a7817.o(.ARM.exidx.text._ZN3ros11NodeHandle_I13STM32HardwareLi25ELi25ELi512ELi512EE8initNodeEv) refers to lto-llvm-7a7817.o(.text._ZN3ros11NodeHandle_I13STM32HardwareLi25ELi25ELi512ELi512EE8initNodeEv) for [Anonymous Symbol]
    lto-llvm-7a7817.o(.text._ZN3ros11NodeHandle_I13STM32HardwareLi25ELi25ELi512ELi512EE9subscribeINS_10SubscriberIN13geometry_msgs5PointEvEEEEbRT_) refers (Special) to use_no_semi_2.o(.text) for __use_no_semihosting
    lto-llvm-7a7817.o(.text._ZN3ros11NodeHandle_I13STM32HardwareLi25ELi25ELi512ELi512EE9subscribeINS_10SubscriberIN13geometry_msgs5PointEvEEEEbRT_) refers to lto-llvm-7a7817.o(.bss.nh) for nh
    lto-llvm-7a7817.o(.ARM.exidx.text._ZN3ros11NodeHandle_I13STM32HardwareLi25ELi25ELi512ELi512EE9subscribeINS_10SubscriberIN13geometry_msgs5PointEvEEEEbRT_) refers (Special) to use_no_semi_2.o(.text) for __use_no_semihosting
    lto-llvm-7a7817.o(.ARM.exidx.text._ZN3ros11NodeHandle_I13STM32HardwareLi25ELi25ELi512ELi512EE9subscribeINS_10SubscriberIN13geometry_msgs5PointEvEEEEbRT_) refers to lto-llvm-7a7817.o(.text._ZN3ros11NodeHandle_I13STM32HardwareLi25ELi25ELi512ELi512EE9subscribeINS_10SubscriberIN13geometry_msgs5PointEvEEEEbRT_) for [Anonymous Symbol]
    lto-llvm-7a7817.o(.text._ZN3ros11NodeHandle_I13STM32HardwareLi25ELi25ELi512ELi512EE9subscribeINS_10SubscriberIN8std_msgs7Float64EvEEEEbRT_) refers (Special) to use_no_semi_2.o(.text) for __use_no_semihosting
    lto-llvm-7a7817.o(.text._ZN3ros11NodeHandle_I13STM32HardwareLi25ELi25ELi512ELi512EE9subscribeINS_10SubscriberIN8std_msgs7Float64EvEEEEbRT_) refers to lto-llvm-7a7817.o(.bss.nh) for nh
    lto-llvm-7a7817.o(.text._ZN3ros11NodeHandle_I13STM32HardwareLi25ELi25ELi512ELi512EE9subscribeINS_10SubscriberIN8std_msgs7Float64EvEEEEbRT_) refers to lto-llvm-7a7817.o(.bss.carspeedlimit_sub) for carspeedlimit_sub
    lto-llvm-7a7817.o(.ARM.exidx.text._ZN3ros11NodeHandle_I13STM32HardwareLi25ELi25ELi512ELi512EE9subscribeINS_10SubscriberIN8std_msgs7Float64EvEEEEbRT_) refers (Special) to use_no_semi_2.o(.text) for __use_no_semihosting
    lto-llvm-7a7817.o(.ARM.exidx.text._ZN3ros11NodeHandle_I13STM32HardwareLi25ELi25ELi512ELi512EE9subscribeINS_10SubscriberIN8std_msgs7Float64EvEEEEbRT_) refers to lto-llvm-7a7817.o(.text._ZN3ros11NodeHandle_I13STM32HardwareLi25ELi25ELi512ELi512EE9subscribeINS_10SubscriberIN8std_msgs7Float64EvEEEEbRT_) for [Anonymous Symbol]
    lto-llvm-7a7817.o(.text._ZN3ros11NodeHandle_I13STM32HardwareLi25ELi25ELi512ELi512EE9subscribeINS_10SubscriberIN8std_msgs5UInt8EvEEEEbRT_) refers (Special) to use_no_semi_2.o(.text) for __use_no_semihosting
    lto-llvm-7a7817.o(.text._ZN3ros11NodeHandle_I13STM32HardwareLi25ELi25ELi512ELi512EE9subscribeINS_10SubscriberIN8std_msgs5UInt8EvEEEEbRT_) refers to lto-llvm-7a7817.o(.bss.nh) for nh
    lto-llvm-7a7817.o(.ARM.exidx.text._ZN3ros11NodeHandle_I13STM32HardwareLi25ELi25ELi512ELi512EE9subscribeINS_10SubscriberIN8std_msgs5UInt8EvEEEEbRT_) refers (Special) to use_no_semi_2.o(.text) for __use_no_semihosting
    lto-llvm-7a7817.o(.ARM.exidx.text._ZN3ros11NodeHandle_I13STM32HardwareLi25ELi25ELi512ELi512EE9subscribeINS_10SubscriberIN8std_msgs5UInt8EvEEEEbRT_) refers to lto-llvm-7a7817.o(.text._ZN3ros11NodeHandle_I13STM32HardwareLi25ELi25ELi512ELi512EE9subscribeINS_10SubscriberIN8std_msgs5UInt8EvEEEEbRT_) for [Anonymous Symbol]
    lto-llvm-7a7817.o(.text._ZN3ros11NodeHandle_I13STM32HardwareLi25ELi25ELi512ELi512EE9advertiseERNS_9PublisherE) refers (Special) to use_no_semi_2.o(.text) for __use_no_semihosting
    lto-llvm-7a7817.o(.text._ZN3ros11NodeHandle_I13STM32HardwareLi25ELi25ELi512ELi512EE9advertiseERNS_9PublisherE) refers to lto-llvm-7a7817.o(.bss.nh) for nh
    lto-llvm-7a7817.o(.text._ZN3ros11NodeHandle_I13STM32HardwareLi25ELi25ELi512ELi512EE9advertiseERNS_9PublisherE) refers to lto-llvm-7a7817.o(.bss.current_pos) for current_pos
    lto-llvm-7a7817.o(.ARM.exidx.text._ZN3ros11NodeHandle_I13STM32HardwareLi25ELi25ELi512ELi512EE9advertiseERNS_9PublisherE) refers (Special) to use_no_semi_2.o(.text) for __use_no_semihosting
    lto-llvm-7a7817.o(.ARM.exidx.text._ZN3ros11NodeHandle_I13STM32HardwareLi25ELi25ELi512ELi512EE9advertiseERNS_9PublisherE) refers to lto-llvm-7a7817.o(.text._ZN3ros11NodeHandle_I13STM32HardwareLi25ELi25ELi512ELi512EE9advertiseERNS_9PublisherE) for [Anonymous Symbol]
    lto-llvm-7a7817.o(.text._ZN3ros11NodeHandle_I13STM32HardwareLi25ELi25ELi512ELi512EE9subscribeINS_10SubscriberIN8std_msgs6StringEvEEEEbRT_) refers (Special) to use_no_semi_2.o(.text) for __use_no_semihosting
    lto-llvm-7a7817.o(.text._ZN3ros11NodeHandle_I13STM32HardwareLi25ELi25ELi512ELi512EE9subscribeINS_10SubscriberIN8std_msgs6StringEvEEEEbRT_) refers to lto-llvm-7a7817.o(.bss.nh) for nh
    lto-llvm-7a7817.o(.text._ZN3ros11NodeHandle_I13STM32HardwareLi25ELi25ELi512ELi512EE9subscribeINS_10SubscriberIN8std_msgs6StringEvEEEEbRT_) refers to lto-llvm-7a7817.o(.bss.display_sub) for display_sub
    lto-llvm-7a7817.o(.ARM.exidx.text._ZN3ros11NodeHandle_I13STM32HardwareLi25ELi25ELi512ELi512EE9subscribeINS_10SubscriberIN8std_msgs6StringEvEEEEbRT_) refers (Special) to use_no_semi_2.o(.text) for __use_no_semihosting
    lto-llvm-7a7817.o(.ARM.exidx.text._ZN3ros11NodeHandle_I13STM32HardwareLi25ELi25ELi512ELi512EE9subscribeINS_10SubscriberIN8std_msgs6StringEvEEEEbRT_) refers to lto-llvm-7a7817.o(.text._ZN3ros11NodeHandle_I13STM32HardwareLi25ELi25ELi512ELi512EE9subscribeINS_10SubscriberIN8std_msgs6StringEvEEEEbRT_) for [Anonymous Symbol]
    lto-llvm-7a7817.o(.text._ZN13STM32Hardware4initEv) refers (Special) to use_no_semi_2.o(.text) for __use_no_semihosting
    lto-llvm-7a7817.o(.text._ZN13STM32Hardware4initEv) refers to lto-llvm-7a7817.o(.text._ZN13STM32Hardware10reset_rbufEv) for STM32Hardware::reset_rbuf()
    lto-llvm-7a7817.o(.ARM.exidx.text._ZN13STM32Hardware4initEv) refers (Special) to use_no_semi_2.o(.text) for __use_no_semihosting
    lto-llvm-7a7817.o(.ARM.exidx.text._ZN13STM32Hardware4initEv) refers to lto-llvm-7a7817.o(.text._ZN13STM32Hardware4initEv) for [Anonymous Symbol]
    lto-llvm-7a7817.o(.text.loop) refers (Special) to use_no_semi_2.o(.text) for __use_no_semihosting
    lto-llvm-7a7817.o(.text.loop) refers to lto-llvm-7a7817.o(.bss.nh) for nh
    lto-llvm-7a7817.o(.text.loop) refers to lto-llvm-7a7817.o(.text._ZN3ros11NodeHandle_I13STM32HardwareLi25ELi25ELi512ELi512EE8spinOnceEv) for ros::NodeHandle_<STM32Hardware, (int)25, (int)25, (int)512, (int)512>::spinOnce()
    lto-llvm-7a7817.o(.ARM.exidx.text.loop) refers (Special) to use_no_semi_2.o(.text) for __use_no_semihosting
    lto-llvm-7a7817.o(.ARM.exidx.text.loop) refers to lto-llvm-7a7817.o(.text.loop) for [Anonymous Symbol]
    lto-llvm-7a7817.o(.text._ZN3ros16normalizeSecNSecERjS0_) refers (Special) to use_no_semi_2.o(.text) for __use_no_semihosting
    lto-llvm-7a7817.o(.ARM.exidx.text._ZN3ros16normalizeSecNSecERjS0_) refers (Special) to use_no_semi_2.o(.text) for __use_no_semihosting
    lto-llvm-7a7817.o(.ARM.exidx.text._ZN3ros16normalizeSecNSecERjS0_) refers to lto-llvm-7a7817.o(.text._ZN3ros16normalizeSecNSecERjS0_) for [Anonymous Symbol]
    lto-llvm-7a7817.o(.bss.ledstate) refers (Special) to use_no_semi_2.o(.text) for __use_no_semihosting
    lto-llvm-7a7817.o(.bss.htim1) refers (Special) to use_no_semi_2.o(.text) for __use_no_semihosting
    lto-llvm-7a7817.o(.bss.htim2) refers (Special) to use_no_semi_2.o(.text) for __use_no_semihosting
    lto-llvm-7a7817.o(.bss.htim3) refers (Special) to use_no_semi_2.o(.text) for __use_no_semihosting
    lto-llvm-7a7817.o(.bss.htim4) refers (Special) to use_no_semi_2.o(.text) for __use_no_semihosting
    lto-llvm-7a7817.o(.bss.htim5) refers (Special) to use_no_semi_2.o(.text) for __use_no_semihosting
    lto-llvm-7a7817.o(.bss.htim6) refers (Special) to use_no_semi_2.o(.text) for __use_no_semihosting
    lto-llvm-7a7817.o(.bss.huart4) refers (Special) to use_no_semi_2.o(.text) for __use_no_semihosting
    lto-llvm-7a7817.o(.bss.huart5) refers (Special) to use_no_semi_2.o(.text) for __use_no_semihosting
    lto-llvm-7a7817.o(.bss.huart7) refers (Special) to use_no_semi_2.o(.text) for __use_no_semihosting
    lto-llvm-7a7817.o(.bss.huart1) refers (Special) to use_no_semi_2.o(.text) for __use_no_semihosting
    lto-llvm-7a7817.o(.bss.hdma_usart1_rx) refers (Special) to use_no_semi_2.o(.text) for __use_no_semihosting
    lto-llvm-7a7817.o(.bss.hdma_usart1_tx) refers (Special) to use_no_semi_2.o(.text) for __use_no_semihosting
    lto-llvm-7a7817.o(.rodata.cst8) refers (Special) to use_no_semi_2.o(.text) for __use_no_semihosting
    lto-llvm-7a7817.o(.data.uwTickPrio) refers (Special) to use_no_semi_2.o(.text) for __use_no_semihosting
    lto-llvm-7a7817.o(.bss.uwTick) refers (Special) to use_no_semi_2.o(.text) for __use_no_semihosting
    lto-llvm-7a7817.o(.rodata.UARTPrescTable) refers (Special) to use_no_semi_2.o(.text) for __use_no_semihosting
    lto-llvm-7a7817.o(.data.SystemCoreClock) refers (Special) to use_no_semi_2.o(.text) for __use_no_semihosting
    lto-llvm-7a7817.o(.data.SystemD2Clock) refers (Special) to use_no_semi_2.o(.text) for __use_no_semihosting
    lto-llvm-7a7817.o(.rodata.cst16) refers (Special) to use_no_semi_2.o(.text) for __use_no_semihosting
    lto-llvm-7a7817.o(.rodata..L__const._Z18Screen_printStringNSt3__112basic_stringIcNS_11char_traitsIcEENS_9allocatorIcEEEE.EOL) refers (Special) to use_no_semi_2.o(.text) for __use_no_semihosting
    lto-llvm-7a7817.o(.rodata.str1.1) refers (Special) to use_no_semi_2.o(.text) for __use_no_semihosting
    lto-llvm-7a7817.o(.data.current_speed) refers (Special) to use_no_semi_2.o(.text) for __use_no_semihosting
    lto-llvm-7a7817.o(.bss.current_halfstep_left) refers (Special) to use_no_semi_2.o(.text) for __use_no_semihosting
    lto-llvm-7a7817.o(.bss.current_halfstep_total) refers (Special) to use_no_semi_2.o(.text) for __use_no_semihosting
    lto-llvm-7a7817.o(.bss.clear_count) refers (Special) to use_no_semi_2.o(.text) for __use_no_semihosting
    lto-llvm-7a7817.o(.bss.clear_flag) refers (Special) to use_no_semi_2.o(.text) for __use_no_semihosting
    lto-llvm-7a7817.o(.bss._ZZ11stepper_ISRE7counter) refers (Special) to use_no_semi_2.o(.text) for __use_no_semihosting
    lto-llvm-7a7817.o(.bss._ZZ11stepper_ISRE5state) refers (Special) to use_no_semi_2.o(.text) for __use_no_semihosting
    lto-llvm-7a7817.o(.bss.Run_Flag) refers (Special) to use_no_semi_2.o(.text) for __use_no_semihosting
    lto-llvm-7a7817.o(.data.RC_Velocity) refers (Special) to use_no_semi_2.o(.text) for __use_no_semihosting
    lto-llvm-7a7817.o(.bss.Move_X) refers (Special) to use_no_semi_2.o(.text) for __use_no_semihosting
    lto-llvm-7a7817.o(.bss.Move_Y) refers (Special) to use_no_semi_2.o(.text) for __use_no_semihosting
    lto-llvm-7a7817.o(.bss.Move_Z) refers (Special) to use_no_semi_2.o(.text) for __use_no_semihosting
    lto-llvm-7a7817.o(.bss.pending_flag) refers (Special) to use_no_semi_2.o(.text) for __use_no_semihosting
    lto-llvm-7a7817.o(.data.relative) refers (Special) to use_no_semi_2.o(.text) for __use_no_semihosting
    lto-llvm-7a7817.o(.bss.delay_flag) refers (Special) to use_no_semi_2.o(.text) for __use_no_semihosting
    lto-llvm-7a7817.o(.bss.delay_50) refers (Special) to use_no_semi_2.o(.text) for __use_no_semihosting
    lto-llvm-7a7817.o(.bss.Encoder_A) refers (Special) to use_no_semi_2.o(.text) for __use_no_semihosting
    lto-llvm-7a7817.o(.bss.Position_A) refers (Special) to use_no_semi_2.o(.text) for __use_no_semihosting
    lto-llvm-7a7817.o(.bss.Encoder_B) refers (Special) to use_no_semi_2.o(.text) for __use_no_semihosting
    lto-llvm-7a7817.o(.bss.Position_B) refers (Special) to use_no_semi_2.o(.text) for __use_no_semihosting
    lto-llvm-7a7817.o(.bss.Encoder_C) refers (Special) to use_no_semi_2.o(.text) for __use_no_semihosting
    lto-llvm-7a7817.o(.bss.Position_C) refers (Special) to use_no_semi_2.o(.text) for __use_no_semihosting
    lto-llvm-7a7817.o(.bss.Encoder_D) refers (Special) to use_no_semi_2.o(.text) for __use_no_semihosting
    lto-llvm-7a7817.o(.bss.Position_D) refers (Special) to use_no_semi_2.o(.text) for __use_no_semihosting
    lto-llvm-7a7817.o(.bss.Target_A) refers (Special) to use_no_semi_2.o(.text) for __use_no_semihosting
    lto-llvm-7a7817.o(.bss.Motor_A) refers (Special) to use_no_semi_2.o(.text) for __use_no_semihosting
    lto-llvm-7a7817.o(.bss.Target_B) refers (Special) to use_no_semi_2.o(.text) for __use_no_semihosting
    lto-llvm-7a7817.o(.bss.Motor_B) refers (Special) to use_no_semi_2.o(.text) for __use_no_semihosting
    lto-llvm-7a7817.o(.bss.Target_C) refers (Special) to use_no_semi_2.o(.text) for __use_no_semihosting
    lto-llvm-7a7817.o(.bss.Motor_C) refers (Special) to use_no_semi_2.o(.text) for __use_no_semihosting
    lto-llvm-7a7817.o(.bss.Target_D) refers (Special) to use_no_semi_2.o(.text) for __use_no_semihosting
    lto-llvm-7a7817.o(.bss.Motor_D) refers (Special) to use_no_semi_2.o(.text) for __use_no_semihosting
    lto-llvm-7a7817.o(.bss.Last_Target_X) refers (Special) to use_no_semi_2.o(.text) for __use_no_semihosting
    lto-llvm-7a7817.o(.bss.Last_Target_Y) refers (Special) to use_no_semi_2.o(.text) for __use_no_semihosting
    lto-llvm-7a7817.o(.bss.Last_Target_Z) refers (Special) to use_no_semi_2.o(.text) for __use_no_semihosting
    lto-llvm-7a7817.o(.bss.Rate_A) refers (Special) to use_no_semi_2.o(.text) for __use_no_semihosting
    lto-llvm-7a7817.o(.bss.Rate_B) refers (Special) to use_no_semi_2.o(.text) for __use_no_semihosting
    lto-llvm-7a7817.o(.bss.Rate_C) refers (Special) to use_no_semi_2.o(.text) for __use_no_semihosting
    lto-llvm-7a7817.o(.bss.Rate_D) refers (Special) to use_no_semi_2.o(.text) for __use_no_semihosting
    lto-llvm-7a7817.o(.bss.Count_Velocity.Divider) refers (Special) to use_no_semi_2.o(.text) for __use_no_semihosting
    lto-llvm-7a7817.o(.bss.Position_PID_D.Integral_bias) refers (Special) to use_no_semi_2.o(.text) for __use_no_semihosting
    lto-llvm-7a7817.o(.bss.Position_PID_D.Bias) refers (Special) to use_no_semi_2.o(.text) for __use_no_semihosting
    lto-llvm-7a7817.o(.bss.Position_PID_D.Last_Bias) refers (Special) to use_no_semi_2.o(.text) for __use_no_semihosting
    lto-llvm-7a7817.o(.bss.Position_PID_D.Pwm) refers (Special) to use_no_semi_2.o(.text) for __use_no_semihosting
    lto-llvm-7a7817.o(.bss.Position_PID_C.Integral_bias) refers (Special) to use_no_semi_2.o(.text) for __use_no_semihosting
    lto-llvm-7a7817.o(.bss.Position_PID_C.Bias) refers (Special) to use_no_semi_2.o(.text) for __use_no_semihosting
    lto-llvm-7a7817.o(.bss.Position_PID_C.Last_Bias) refers (Special) to use_no_semi_2.o(.text) for __use_no_semihosting
    lto-llvm-7a7817.o(.bss.Position_PID_C.Pwm) refers (Special) to use_no_semi_2.o(.text) for __use_no_semihosting
    lto-llvm-7a7817.o(.bss.Position_PID_B.Integral_bias) refers (Special) to use_no_semi_2.o(.text) for __use_no_semihosting
    lto-llvm-7a7817.o(.bss.Position_PID_B.Bias) refers (Special) to use_no_semi_2.o(.text) for __use_no_semihosting
    lto-llvm-7a7817.o(.bss.Position_PID_B.Last_Bias) refers (Special) to use_no_semi_2.o(.text) for __use_no_semihosting
    lto-llvm-7a7817.o(.bss.Position_PID_B.Pwm) refers (Special) to use_no_semi_2.o(.text) for __use_no_semihosting
    lto-llvm-7a7817.o(.bss.Position_PID_A.Integral_bias) refers (Special) to use_no_semi_2.o(.text) for __use_no_semihosting
    lto-llvm-7a7817.o(.bss.Position_PID_A.Bias) refers (Special) to use_no_semi_2.o(.text) for __use_no_semihosting
    lto-llvm-7a7817.o(.bss.Position_PID_A.Last_Bias) refers (Special) to use_no_semi_2.o(.text) for __use_no_semihosting
    lto-llvm-7a7817.o(.bss.Position_PID_A.Pwm) refers (Special) to use_no_semi_2.o(.text) for __use_no_semihosting
    lto-llvm-7a7817.o(.bss.Incremental_PI_D.Bias) refers (Special) to use_no_semi_2.o(.text) for __use_no_semihosting
    lto-llvm-7a7817.o(.bss.Incremental_PI_D.Last_bias) refers (Special) to use_no_semi_2.o(.text) for __use_no_semihosting
    lto-llvm-7a7817.o(.bss.Incremental_PI_D.Pwm) refers (Special) to use_no_semi_2.o(.text) for __use_no_semihosting
    lto-llvm-7a7817.o(.bss.Incremental_PI_C.Bias) refers (Special) to use_no_semi_2.o(.text) for __use_no_semihosting
    lto-llvm-7a7817.o(.bss.Incremental_PI_C.Last_bias) refers (Special) to use_no_semi_2.o(.text) for __use_no_semihosting
    lto-llvm-7a7817.o(.bss.Incremental_PI_C.Pwm) refers (Special) to use_no_semi_2.o(.text) for __use_no_semihosting
    lto-llvm-7a7817.o(.bss.Incremental_PI_B.Bias) refers (Special) to use_no_semi_2.o(.text) for __use_no_semihosting
    lto-llvm-7a7817.o(.bss.Incremental_PI_B.Last_bias) refers (Special) to use_no_semi_2.o(.text) for __use_no_semihosting
    lto-llvm-7a7817.o(.bss.Incremental_PI_B.Pwm) refers (Special) to use_no_semi_2.o(.text) for __use_no_semihosting
    lto-llvm-7a7817.o(.bss.Incremental_PI_A.Bias) refers (Special) to use_no_semi_2.o(.text) for __use_no_semihosting
    lto-llvm-7a7817.o(.bss.Incremental_PI_A.Last_bias) refers (Special) to use_no_semi_2.o(.text) for __use_no_semihosting
    lto-llvm-7a7817.o(.bss.Incremental_PI_A.Pwm) refers (Special) to use_no_semi_2.o(.text) for __use_no_semihosting
    lto-llvm-7a7817.o(.bss.Current) refers (Special) to use_no_semi_2.o(.text) for __use_no_semihosting
    lto-llvm-7a7817.o(.bss.Last) refers (Special) to use_no_semi_2.o(.text) for __use_no_semihosting
    lto-llvm-7a7817.o(.bss.ptr_test) refers (Special) to use_no_semi_2.o(.text) for __use_no_semihosting
    lto-llvm-7a7817.o(.bss.time_start) refers (Special) to use_no_semi_2.o(.text) for __use_no_semihosting
    lto-llvm-7a7817.o(.bss.nh) refers (Special) to use_no_semi_2.o(.text) for __use_no_semihosting
    lto-llvm-7a7817.o(.bss.carpos_sub) refers (Special) to use_no_semi_2.o(.text) for __use_no_semihosting
    lto-llvm-7a7817.o(.bss.carspeed_sub) refers (Special) to use_no_semi_2.o(.text) for __use_no_semihosting
    lto-llvm-7a7817.o(.bss.carspeedlimit_sub) refers (Special) to use_no_semi_2.o(.text) for __use_no_semihosting
    lto-llvm-7a7817.o(.bss.carmode_sub) refers (Special) to use_no_semi_2.o(.text) for __use_no_semihosting
    lto-llvm-7a7817.o(.bss.servo_sub) refers (Special) to use_no_semi_2.o(.text) for __use_no_semihosting
    lto-llvm-7a7817.o(.bss.xy_sub) refers (Special) to use_no_semi_2.o(.text) for __use_no_semihosting
    lto-llvm-7a7817.o(.bss.display_sub) refers (Special) to use_no_semi_2.o(.text) for __use_no_semihosting
    lto-llvm-7a7817.o(.bss.pos_msg) refers (Special) to use_no_semi_2.o(.text) for __use_no_semihosting
    lto-llvm-7a7817.o(.bss.current_pos) refers (Special) to use_no_semi_2.o(.text) for __use_no_semihosting
    lto-llvm-7a7817.o(.init_array) refers (Special) to use_no_semi_2.o(.text) for __use_no_semihosting
    lto-llvm-7a7817.o(.init_array) refers to lto-llvm-7a7817.o(.text._GLOBAL__sub_I_ros_support_layer.cpp) for _GLOBAL__sub_I_ros_support_layer.cpp
    lto-llvm-7a7817.o(.rodata._ZTVN13geometry_msgs5PointE) refers (Special) to use_no_semi_2.o(.text) for __use_no_semihosting
    lto-llvm-7a7817.o(.rodata._ZTVN13geometry_msgs5PointE) refers to lto-llvm-7a7817.o(.text._ZNK13geometry_msgs5Point9serializeEPh) for geometry_msgs::Point::serialize(unsigned char*) const
    lto-llvm-7a7817.o(.rodata._ZTVN13geometry_msgs5PointE) refers to lto-llvm-7a7817.o(.text._ZN13geometry_msgs5Point11deserializeEPh) for geometry_msgs::Point::deserialize(unsigned char*)
    lto-llvm-7a7817.o(.rodata._ZTVN13geometry_msgs5PointE) refers to lto-llvm-7a7817.o(.text._ZN13geometry_msgs5Point7getTypeEv) for geometry_msgs::Point::getType()
    lto-llvm-7a7817.o(.rodata._ZTVN13geometry_msgs5PointE) refers to lto-llvm-7a7817.o(.text._ZN13geometry_msgs5Point6getMD5Ev) for geometry_msgs::Point::getMD5()
    lto-llvm-7a7817.o(.rodata._ZTVN3ros10SubscriberIN8std_msgs6StringEvEE) refers (Special) to use_no_semi_2.o(.text) for __use_no_semihosting
    lto-llvm-7a7817.o(.rodata._ZTVN3ros10SubscriberIN8std_msgs6StringEvEE) refers to lto-llvm-7a7817.o(.text._ZN3ros10SubscriberIN8std_msgs6StringEvE8callbackEPh) for ros::Subscriber<std_msgs::String, void>::callback(unsigned char*)
    lto-llvm-7a7817.o(.rodata._ZTVN3ros10SubscriberIN8std_msgs6StringEvEE) refers to lto-llvm-7a7817.o(.text._ZN3ros10SubscriberIN8std_msgs6StringEvE15getEndpointTypeEv) for ros::Subscriber<std_msgs::String, void>::getEndpointType()
    lto-llvm-7a7817.o(.rodata._ZTVN3ros10SubscriberIN8std_msgs6StringEvEE) refers to lto-llvm-7a7817.o(.text._ZN3ros10SubscriberIN8std_msgs6StringEvE10getMsgTypeEv) for ros::Subscriber<std_msgs::String, void>::getMsgType()
    lto-llvm-7a7817.o(.rodata._ZTVN3ros10SubscriberIN8std_msgs6StringEvEE) refers to lto-llvm-7a7817.o(.text._ZN3ros10SubscriberIN8std_msgs6StringEvE9getMsgMD5Ev) for ros::Subscriber<std_msgs::String, void>::getMsgMD5()
    lto-llvm-7a7817.o(.rodata._ZTVN8std_msgs6StringE) refers (Special) to use_no_semi_2.o(.text) for __use_no_semihosting
    lto-llvm-7a7817.o(.rodata._ZTVN8std_msgs6StringE) refers to lto-llvm-7a7817.o(.text._ZNK8std_msgs6String9serializeEPh) for std_msgs::String::serialize(unsigned char*) const
    lto-llvm-7a7817.o(.rodata._ZTVN8std_msgs6StringE) refers to lto-llvm-7a7817.o(.text._ZN8std_msgs6String11deserializeEPh) for std_msgs::String::deserialize(unsigned char*)
    lto-llvm-7a7817.o(.rodata._ZTVN8std_msgs6StringE) refers to lto-llvm-7a7817.o(.text._ZN8std_msgs6String7getTypeEv) for std_msgs::String::getType()
    lto-llvm-7a7817.o(.rodata._ZTVN8std_msgs6StringE) refers to lto-llvm-7a7817.o(.text._ZN8std_msgs6String6getMD5Ev) for std_msgs::String::getMD5()
    lto-llvm-7a7817.o(.rodata._ZTVN3ros11Subscriber_E) refers (Special) to use_no_semi_2.o(.text) for __use_no_semihosting
    lto-llvm-7a7817.o(.rodata._ZTVN3ros11Subscriber_E) refers to cxa_virtual.cpp.o(.text.__cxa_pure_virtual) for __cxa_pure_virtual
    lto-llvm-7a7817.o(.rodata._ZTVN3ros10SubscriberIN13geometry_msgs5PointEvEE) refers (Special) to use_no_semi_2.o(.text) for __use_no_semihosting
    lto-llvm-7a7817.o(.rodata._ZTVN3ros10SubscriberIN13geometry_msgs5PointEvEE) refers to lto-llvm-7a7817.o(.text._ZN3ros10SubscriberIN13geometry_msgs5PointEvE8callbackEPh) for ros::Subscriber<geometry_msgs::Point, void>::callback(unsigned char*)
    lto-llvm-7a7817.o(.rodata._ZTVN3ros10SubscriberIN13geometry_msgs5PointEvEE) refers to lto-llvm-7a7817.o(.text._ZN3ros10SubscriberIN13geometry_msgs5PointEvE15getEndpointTypeEv) for ros::Subscriber<geometry_msgs::Point, void>::getEndpointType()
